 shader

 Timestamp is 620d3ae4 (Thu Feb 17 01:56:52 2022)

 Preferred load address is 00400000

 Start         Length     Name                   Class
 0001:00000000 00009280H .text$di                CODE
 0001:00009280 000a84a0H .text$mn                CODE
 0001:000b1720 00001227H .text$x                 CODE
 0002:00000000 00000104H .CRT$XCA                DATA
 0002:00000104 00000104H .CRT$XCAA               DATA
 0002:00000208 00000104H .CRT$XCU                DATA
 0002:0000030c 00000104H .CRT$XCZ                DATA
 0002:00000410 00000104H .CRT$XIA                DATA
 0002:00000514 00000104H .CRT$XIAA               DATA
 0002:00000618 00000104H .CRT$XIAC               DATA
 0002:0000071c 00000114H .CRT$XIC                DATA
 0002:00000830 00000104H .CRT$XIZ                DATA
 0002:00000934 00000104H .CRT$XPA                DATA
 0002:00000a38 0000010cH .CRT$XPX                DATA
 0002:00000b44 00000104H .CRT$XPXA               DATA
 0002:00000c48 00000104H .CRT$XPZ                DATA
 0002:00000d4c 00000104H .CRT$XTA                DATA
 0002:00000e50 00000110H .CRT$XTZ                DATA
 0002:00000f60 00029220H .rdata                  DATA
 0002:0002a180 00000104H .rdata$CastGuardVftablesA DATA
 0002:0002a284 00000104H .rdata$CastGuardVftablesC DATA
 0002:0002a388 00000504H .rdata$r                DATA
 0002:0002a88c 0000014cH .rdata$sxdata           DATA
 0002:0002a9d8 0000021cH .rdata$zzzdbg           DATA
 0002:0002abf4 00000104H .rtc$IAA                DATA
 0002:0002acf8 0000010cH .rtc$IMZ                DATA
 0002:0002ae04 00000104H .rtc$IZZ                DATA
 0002:0002af08 00000104H .rtc$TAA                DATA
 0002:0002b00c 0000010cH .rtc$TMZ                DATA
 0002:0002b118 00000108H .rtc$TZZ                DATA
 0002:0002b220 000010f6H .xdata$x                DATA
 0002:0002c316 00000000H .edata                  DATA
 0003:00000000 00000c14H .data                   DATA
 0003:00000c14 000001a4H .data$r                 DATA
 0003:00000db8 000001d8H .data$rs                DATA
 0003:00000f90 00139d90H .bss                    DATA
 0004:00000000 000003d0H .idata$5                DATA
 0004:000003d0 00000078H .idata$2                DATA
 0004:00000448 00000014H .idata$3                DATA
 0004:0000045c 000003d0H .idata$4                DATA
 0004:0000082c 00000d01H .idata$6                DATA
 0005:00000000 00000109H .00cfg                  DATA
 0006:00000000 00000170H .rsrc$01                DATA
 0006:00000170 000002ccH .rsrc$02                DATA

  Address         Publics by Value              Rva+Base       Lib:Object

 0000:00000000       ___hybrid_code_map_count   00000000     <absolute>
 0000:00000000       ___guard_longjmp_count     00000000     <absolute>
 0000:00000000       ___arm64x_extra_rfe_table_size 00000000     <absolute>
 0000:00000000       ___arm64x_native_entrypoint 00000000     <absolute>
 0000:00000000       ___guard_iat_count         00000000     <absolute>
 0000:00000000       ___arm64x_redirection_metadata 00000000     <absolute>
 0000:00000000       ___AbsoluteZero            00000000     <absolute>
 0000:00000000       ___guard_eh_cont_count     00000000     <absolute>
 0000:00000000       ___arm64x_extra_rfe_table  00000000     <absolute>
 0000:00000000       ___guard_fids_table        00000000     <absolute>
 0000:00000000       ___x64_code_ranges_to_entry_points 00000000     <absolute>
 0000:00000000       ___hybrid_auxiliary_iat    00000000     <absolute>
 0000:00000000       ___volatile_metadata       00000000     <absolute>
 0000:00000000       ___enclave_config          00000000     <absolute>
 0000:00000000       ___guard_iat_table         00000000     <absolute>
 0000:00000000       ___guard_eh_cont_table     00000000     <absolute>
 0000:00000000       ___dynamic_value_reloc_table 00000000     <absolute>
 0000:00000000       __except_list              00000000     <absolute>
 0000:00000000       ___guard_check_icall_a64n_fptr 00000000     <absolute>
 0000:00000000       ___hybrid_code_map         00000000     <absolute>
 0000:00000000       ___guard_fids_count        00000000     <absolute>
 0000:00000000       ___arm64x_redirection_metadata_count 00000000     <absolute>
 0000:00000000       ___guard_longjmp_table     00000000     <absolute>
 0000:00000000       ___hybrid_auxiliary_iat_copy 00000000     <absolute>
 0000:00000000       ___x64_code_ranges_to_entry_points_count 00000000     <absolute>
 0000:00000010       ___safe_se_handler_count   00000010     <absolute>
 0000:00000100       ___guard_flags             00000100     <absolute>
 0000:00000000       ___ImageBase               00400000     <linker-defined>
 0001:00009280       ?BuildFreshel_tex@@YAHH@Z  0040a280 f   CRenderer.obj
 0001:00009630       ?CreateNoiseTexture@CRenderer@@AAEXXZ 0040a630 f   CRenderer.obj
 0001:00009720       ?GetTime@@YAMXZ            0040a720 f   CRenderer.obj
 0001:00009790       ?Initialize@CRenderer@@QAEXXZ 0040a790 f   CRenderer.obj
 0001:0000b590       ?LoadRaw@@YAXPADPAXH@Z     0040c590 f   CRenderer.obj
 0001:0000b610       ?PRNGenerator@CRenderer@@AAEMH@Z 0040c610 f   CRenderer.obj
 0001:0000b6b0       ?Render@CRenderer@@QAEXH@Z 0040c6b0 f   CRenderer.obj
 0001:0000b730       ?RenderIsland@CRenderer@@AAEXXZ 0040c730 f   CRenderer.obj
 0001:0000bd00       ?RenderSea@CRenderer@@AAEXXZ 0040cd00 f   CRenderer.obj
 0001:0000c610       ?RenderSky@CRenderer@@AAEXXZ 0040d610 f   CRenderer.obj
 0001:0000c950       ?Set@TVertexV1C@@QAEXMMMK@Z 0040d950 f i CRenderer.obj
 0001:0000c9c0       ?SetScreenPrjMatrix@@YAXXZ 0040d9c0 f   CRenderer.obj
 0001:0000cc20       ?load_cubemap@@YAHPBDH@Z   0040dc20 f   CRenderer.obj
 0001:0000cfc0       ?load_tex@@YAHPADHHH@Z     0040dfc0 f   CRenderer.obj
 0001:0000d090       ?load_texlist@@YAHPADPAIHHH@Z 0040e090 f   CRenderer.obj
 0001:0000d180       ?make_tex@@YAHPAEHHH@Z     0040e180 f   CRenderer.obj
 0001:0000d3c0       ___local_stdio_printf_options 0040e3c0 f i CRenderer.obj
 0001:0000d3e0       __vfprintf_l               0040e3e0 f i CRenderer.obj
 0001:0000d450       __vsnprintf_l              0040e450 f i CRenderer.obj
 0001:0000d4f0       __vsprintf_l               0040e4f0 f i CRenderer.obj
 0001:0000d550       _printf                    0040e550 f i CRenderer.obj
 0001:0000d5d0       _sprintf                   0040e5d0 f i CRenderer.obj
 0001:0000d640       ??0CRenderer@@QAE@XZ       0040e640 f i main.obj
 0001:0000d660       ?Display@@YAXXZ            0040e660 f   main.obj
 0001:0000db80       ?GetReflID@CRenderer@@QAEIXZ 0040eb80 f i main.obj
 0001:0000dbb0       ?Idle@@YAXXZ               0040ebb0 f   main.obj
 0001:0000dbf0       ?Keyboard@@YAXHHH@Z        0040ebf0 f   main.obj
 0001:0000dee0       ?KeyboardA@@YAXEHH@Z       0040eee0 f   main.obj
 0001:0000e0f0       ?Reshape@@YAXHH@Z          0040f0f0 f   main.obj
 0001:0000e270       _main                      0040f270 f   main.obj
 0001:0000e371       _cgCreateContext           0040f371 f   cg:cg.dll
 0001:0000e377       _cgGetLastListing          0040f377 f   cg:cg.dll
 0001:0000e37d       _cgCreateProgramFromFile   0040f37d f   cg:cg.dll
 0001:0000e383       _cgGetNamedParameter       0040f383 f   cg:cg.dll
 0001:0000e389       _cgGetError                0040f389 f   cg:cg.dll
 0001:0000e38f       _cgGetErrorString          0040f38f f   cg:cg.dll
 0001:0000e395       _cgGLEnableProfile         0040f395 f   cgGL:cgGL.dll
 0001:0000e39b       _cgGLDisableProfile        0040f39b f   cgGL:cgGL.dll
 0001:0000e3a1       _cgGLLoadProgram           0040f3a1 f   cgGL:cgGL.dll
 0001:0000e3a7       _cgGLBindProgram           0040f3a7 f   cgGL:cgGL.dll
 0001:0000e3ad       _cgGLSetParameter4f        0040f3ad f   cgGL:cgGL.dll
 0001:0000e3b3       _cgGLSetTextureParameter   0040f3b3 f   cgGL:cgGL.dll
 0001:0000e3b9       _cgGLEnableTextureParameter 0040f3b9 f   cgGL:cgGL.dll
 0001:0000e3bf       _cgGLDisableTextureParameter 0040f3bf f   cgGL:cgGL.dll
 0001:0000e3c5       _glutGet@4                 0040f3c5 f   glut32:glut32.dll
 0001:0000e3cb       _glutSolidSphere@16        0040f3cb f   glut32:glut32.dll
 0001:0000e3d1       _glutInitDisplayMode@4     0040f3d1 f   glut32:glut32.dll
 0001:0000e3d7       _glutInitWindowSize@8      0040f3d7 f   glut32:glut32.dll
 0001:0000e3dd       _glutMainLoop@0            0040f3dd f   glut32:glut32.dll
 0001:0000e3e3       ___glutCreateWindowWithExit@8 0040f3e3 f   glut32:glut32.dll
 0001:0000e3e9       _glutPostRedisplay@0       0040f3e9 f   glut32:glut32.dll
 0001:0000e3ef       _glutSwapBuffers@0         0040f3ef f   glut32:glut32.dll
 0001:0000e3f5       _glutDisplayFunc@4         0040f3f5 f   glut32:glut32.dll
 0001:0000e3fb       _glutReshapeFunc@4         0040f3fb f   glut32:glut32.dll
 0001:0000e401       _glutKeyboardFunc@4        0040f401 f   glut32:glut32.dll
 0001:0000e407       _glutIdleFunc@4            0040f407 f   glut32:glut32.dll
 0001:0000e40d       _glutSpecialFunc@4         0040f40d f   glut32:glut32.dll
 0001:0000e413       _glBegin@4                 0040f413 f   opengl32:OPENGL32.dll
 0001:0000e419       _glBindTexture@8           0040f419 f   opengl32:OPENGL32.dll
 0001:0000e41f       _glBlendFunc@8             0040f41f f   opengl32:OPENGL32.dll
 0001:0000e425       _glColor3f@12              0040f425 f   opengl32:OPENGL32.dll
 0001:0000e42b       _glDisable@4               0040f42b f   opengl32:OPENGL32.dll
 0001:0000e431       _glDisableClientState@4    0040f431 f   opengl32:OPENGL32.dll
 0001:0000e437       _glDrawElements@16         0040f437 f   opengl32:OPENGL32.dll
 0001:0000e43d       _glEnable@4                0040f43d f   opengl32:OPENGL32.dll
 0001:0000e443       _glEnableClientState@4     0040f443 f   opengl32:OPENGL32.dll
 0001:0000e449       _glEnd@0                   0040f449 f   opengl32:OPENGL32.dll
 0001:0000e44f       _glGenTextures@8           0040f44f f   opengl32:OPENGL32.dll
 0001:0000e455       _glGetFloatv@8             0040f455 f   opengl32:OPENGL32.dll
 0001:0000e45b       _glGetIntegerv@8           0040f45b f   opengl32:OPENGL32.dll
 0001:0000e461       _glLoadIdentity@0          0040f461 f   opengl32:OPENGL32.dll
 0001:0000e467       _glLoadMatrixf@4           0040f467 f   opengl32:OPENGL32.dll
 0001:0000e46d       _glMatrixMode@4            0040f46d f   opengl32:OPENGL32.dll
 0001:0000e473       _glMultMatrixf@4           0040f473 f   opengl32:OPENGL32.dll
 0001:0000e479       _glPopMatrix@0             0040f479 f   opengl32:OPENGL32.dll
 0001:0000e47f       _glPushMatrix@0            0040f47f f   opengl32:OPENGL32.dll
 0001:0000e485       _glRotatef@16              0040f485 f   opengl32:OPENGL32.dll
 0001:0000e48b       _glTexEnvi@12              0040f48b f   opengl32:OPENGL32.dll
 0001:0000e491       _glTexGenfv@12             0040f491 f   opengl32:OPENGL32.dll
 0001:0000e497       _glTexGeni@12              0040f497 f   opengl32:OPENGL32.dll
 0001:0000e49d       _glTexImage2D@36           0040f49d f   opengl32:OPENGL32.dll
 0001:0000e4a3       _glTexParameteri@12        0040f4a3 f   opengl32:OPENGL32.dll
 0001:0000e4a9       _glTranslatef@12           0040f4a9 f   opengl32:OPENGL32.dll
 0001:0000e4af       _glVertex3f@12             0040f4af f   opengl32:OPENGL32.dll
 0001:0000e4b5       _glVertexPointer@16        0040f4b5 f   opengl32:OPENGL32.dll
 0001:0000e4bb       _wglGetProcAddress@4       0040f4bb f   opengl32:OPENGL32.dll
 0001:0000e4c1       _glClear@4                 0040f4c1 f   opengl32:OPENGL32.dll
 0001:0000e4c7       _glClearColor@16           0040f4c7 f   opengl32:OPENGL32.dll
 0001:0000e4cd       _glCopyTexImage2D@32       0040f4cd f   opengl32:OPENGL32.dll
 0001:0000e4d3       _glCopyTexSubImage2D@32    0040f4d3 f   opengl32:OPENGL32.dll
 0001:0000e4d9       _glDepthFunc@4             0040f4d9 f   opengl32:OPENGL32.dll
 0001:0000e4df       _glPolygonMode@8           0040f4df f   opengl32:OPENGL32.dll
 0001:0000e4e5       _glScalef@12               0040f4e5 f   opengl32:OPENGL32.dll
 0001:0000e4eb       _glViewport@16             0040f4eb f   opengl32:OPENGL32.dll
 0001:0000e4f1       _gluPerspective@32         0040f4f1 f   glu32:GLU32.dll
 0001:0000e500       ??_U@YAPAXI@Z              0040f500 f   LIBCMTD:new_array.obj
 0001:0000e520       ??_V@YAXPAX@Z              0040f520 f   LIBCMTD:delete_array.obj
 0001:0000e540       @_RTC_AllocaHelper@12      0040f540 f   LIBCMTD:stack.obj
 0001:0000e580       @_RTC_CheckStackVars2@12   0040f580 f   LIBCMTD:stack.obj
 0001:0000e690       @_RTC_CheckStackVars@8     0040f690 f   LIBCMTD:stack.obj
 0001:0000e700       __RTC_CheckEsp             0040f700 f   LIBCMTD:stack.obj
 0001:0000e730       @__security_check_cookie@4 0040f730 f   LIBCMTD:secchk.obj
 0001:0000e750       __CRT_RTC_INIT             0040f750 f   LIBCMTD:init.obj
 0001:0000e760       __CRT_RTC_INITW            0040f760 f   LIBCMTD:init.obj
 0001:0000e770       __RTC_InitBase             0040f770 f   LIBCMTD:init.obj
 0001:0000e7b0       __RTC_Shutdown             0040f7b0 f   LIBCMTD:init.obj
 0001:0000eba0       ?configure_argv@__scrt_narrow_argv_policy@@SAHXZ 0040fba0 f i LIBCMTD:exe_main.obj
 0001:0000ebc0       ?initialize_environment@__scrt_narrow_environment_policy@@SAHXZ 0040fbc0 f i LIBCMTD:exe_main.obj
 0001:0000ec20       ?set_app_type@__scrt_main_policy@@SAXXZ 0040fc20 f i LIBCMTD:exe_main.obj
 0001:0000ec40       ?set_commode@__scrt_file_policy@@SAXXZ 0040fc40 f i LIBCMTD:exe_main.obj
 0001:0000ec60       ?set_fmode@__scrt_file_policy@@SAXXZ 0040fc60 f i LIBCMTD:exe_main.obj
 0001:0000ec80       _mainCRTStartup            0040fc80 f   LIBCMTD:exe_main.obj
 0001:0000ec90       ??2@YAPAXI@Z               0040fc90 f   LIBCMTD:new_scalar.obj
 0001:0000ecf0       ??3@YAXPAX@Z               0040fcf0 f   LIBCMTD:delete_scalar.obj
 0001:0000edc0       ?_RTC_AllocaFailure@@YAXPAXPAU_RTC_ALLOCA_NODE@@H@Z 0040fdc0 f   LIBCMTD:error.obj
 0001:0000eee0       ?_RTC_Failure@@YAXPAXH@Z   0040fee0 f   LIBCMTD:error.obj
 0001:0000ef50       ?_RTC_StackFailure@@YAXPAXPBD@Z 0040ff50 f   LIBCMTD:error.obj
 0001:0000f400       __RTC_UninitUse            00410400 f   LIBCMTD:error.obj
 0001:0000f4e0       __vsprintf_s_l             004104e0 f i LIBCMTD:error.obj
 0001:0000f520       _sprintf_s                 00410520 f i LIBCMTD:error.obj
 0001:0000f550       ___raise_securityfailure   00410550 f   LIBCMTD:gs_report.obj
 0001:0000f590       ___report_gsfailure        00410590 f   LIBCMTD:gs_report.obj
 0001:0000f6e0       ___report_rangecheckfailure 004106e0 f   LIBCMTD:gs_report.obj
 0001:0000f6f0       ___report_securityfailure  004106f0 f   LIBCMTD:gs_report.obj
 0001:0000f800       ___report_securityfailureEx 00410800 f   LIBCMTD:gs_report.obj
 0001:0000f970       ?_RTC_GetErrorFunc@@YAP6AHHPBDH00ZZPBX@Z 00410970 f   LIBCMTD:userapi.obj
 0001:0000f980       ?_RTC_GetErrorFuncW@@YAP6AHHPB_WH00ZZPBX@Z 00410980 f   LIBCMTD:userapi.obj
 0001:0000f990       __RTC_GetErrDesc           00410990 f   LIBCMTD:userapi.obj
 0001:0000f9b0       __RTC_NumErrors            004109b0 f   LIBCMTD:userapi.obj
 0001:0000f9c0       __RTC_SetErrorFunc         004109c0 f   LIBCMTD:userapi.obj
 0001:0000f9f0       __RTC_SetErrorFuncW        004109f0 f   LIBCMTD:userapi.obj
 0001:0000fa20       __RTC_SetErrorType         00410a20 f   LIBCMTD:userapi.obj
 0001:0000fb90       _NtCurrentTeb              00410b90 f i LIBCMTD:utility.obj
 0001:0000fba0       ___scrt_acquire_startup_lock 00410ba0 f   LIBCMTD:utility.obj
 0001:0000fc00       ___scrt_dllmain_after_initialize_c 00410c00 f   LIBCMTD:utility.obj
 0001:0000fc40       ___scrt_dllmain_before_initialize_c 00410c40 f   LIBCMTD:utility.obj
 0001:0000fc70       ___scrt_dllmain_crt_thread_attach 00410c70 f   LIBCMTD:utility.obj
 0001:0000fcb0       ___scrt_dllmain_crt_thread_detach 00410cb0 f   LIBCMTD:utility.obj
 0001:0000fcd0       ___scrt_dllmain_exception_filter 00410cd0 f   LIBCMTD:utility.obj
 0001:0000fd30       ___scrt_dllmain_uninitialize_c 00410d30 f   LIBCMTD:utility.obj
 0001:0000fd70       ___scrt_dllmain_uninitialize_critical 00410d70 f   LIBCMTD:utility.obj
 0001:0000fd90       ___scrt_initialize_crt     00410d90 f   LIBCMTD:utility.obj
 0001:0000fdf0       ___scrt_initialize_onexit_tables 00410df0 f   LIBCMTD:utility.obj
 0001:0000ff00       ___scrt_is_nonwritable_in_current_image 00410f00 f   LIBCMTD:utility.obj
 0001:00010080       ___scrt_release_startup_lock 00411080 f   LIBCMTD:utility.obj
 0001:000100b0       ___scrt_uninitialize_crt   004110b0 f   LIBCMTD:utility.obj
 0001:00010100       __onexit                   00411100 f   LIBCMTD:utility.obj
 0001:00010180       _at_quick_exit             00411180 f   LIBCMTD:utility.obj
 0001:000101d0       _atexit                    004111d0 f   LIBCMTD:utility.obj
 0001:000102a0       ___security_init_cookie    004112a0 f   LIBCMTD:gs_support.obj
 0001:00010340       __matherr                  00411340 f   LIBCMTD:matherr.obj
 0001:00010350       __get_startup_argv_mode    00411350 f   LIBCMTD:argv_mode.obj
 0001:00010360       __get_startup_commit_mode  00411360 f   LIBCMTD:commit_mode.obj
 0001:00010370       __get_startup_file_mode    00411370 f   LIBCMTD:file_mode.obj
 0001:00010380       __get_startup_new_mode     00411380 f   LIBCMTD:new_mode.obj
 0001:00010390       __get_startup_thread_locale_mode 00411390 f   LIBCMTD:thread_locale.obj
 0001:000103a0       ?__scrt_initialize_type_info@@YAXXZ 004113a0 f   LIBCMTD:tncleanup.obj
 0001:000103c0       ?__scrt_uninitialize_type_info@@YAXXZ 004113c0 f   LIBCMTD:tncleanup.obj
 0001:000103e0       __should_initialize_environment 004113e0 f   LIBCMTD:env_mode.obj
 0001:000103f0       __initialize_default_precision 004113f0 f   LIBCMTD:default_precision.obj
 0001:00010420       __initialize_invalid_parameter_handler 00411420 f   LIBCMTD:invalid_parameter_handler.obj
 0001:00010430       __initialize_denormal_control 00411430 f   LIBCMTD:denormal_control.obj
 0001:00010440       ___local_stdio_scanf_options 00411440 f i LIBCMTD:default_local_stdio_options.obj
 0001:00010450       ___scrt_initialize_default_local_stdio_options 00411450 f   LIBCMTD:default_local_stdio_options.obj
 0001:000104a0       ___scrt_is_user_matherr_present 004114a0 f   LIBCMTD:matherr_detection.obj
 0001:000104d0       ___scrt_get_dyn_tls_init_callback 004114d0 f   LIBCMTD:dyn_tls_init.obj
 0001:000104e0       ___scrt_get_dyn_tls_dtor_callback 004114e0 f   LIBCMTD:dyn_tls_dtor.obj
 0001:000104f0       ___scrt_fastfail           004114f0 f   LIBCMTD:utility_desktop.obj
 0001:00010680       ___scrt_get_show_window_mode 00411680 f   LIBCMTD:utility_desktop.obj
 0001:000106d0       ___scrt_initialize_mta     004116d0 f   LIBCMTD:utility_desktop.obj
 0001:000106e0       ___scrt_initialize_winrt   004116e0 f   LIBCMTD:utility_desktop.obj
 0001:000106f0       ___scrt_is_managed_app     004116f0 f   LIBCMTD:utility_desktop.obj
 0001:000107a0       ___scrt_set_unhandled_exception_filter 004117a0 f   LIBCMTD:utility_desktop.obj
 0001:000107c0       ___scrt_stub_for_initialize_mta 004117c0 f   LIBCMTD:utility_desktop.obj
 0001:000107c0       ___scrt_exe_initialize_mta 004117c0 f   LIBCMTD:utility_desktop.obj
 0001:000107d0       ___scrt_unhandled_exception_filter@4 004117d0 f   LIBCMTD:utility_desktop.obj
 0001:00010870       __crt_debugger_hook        00411870 f   LIBCMTD:utility_desktop.obj
 0001:00010890       __RTC_Initialize           00411890 f   LIBCMTD:initsect.obj
 0001:000108d0       __RTC_Terminate            004118d0 f   LIBCMTD:initsect.obj
 0001:00010910       @_guard_check_icall_nop@4  00411910 f i LIBCMTD:guard_support.obj
 0001:00010920       _ReadNoFence               00411920 f i LIBCMTD:guard_support.obj
 0001:00010940       _ReadPointerNoFence        00411940 f i LIBCMTD:guard_support.obj
 0001:00010960       ___castguard_check_failure_debugbreak 00411960 f i LIBCMTD:guard_support.obj
 0001:00010980       ___castguard_check_failure_fastfail 00411980 f i LIBCMTD:guard_support.obj
 0001:000109b0       ___castguard_check_failure_nop 004119b0 f i LIBCMTD:guard_support.obj
 0001:000109c0       ___castguard_check_failure_os_handled 004119c0 f i LIBCMTD:guard_support.obj
 0001:00010a60       ___castguard_slow_path_check_debugbreak 00411a60 f i LIBCMTD:guard_support.obj
 0001:00010aa0       ___castguard_slow_path_check_fastfail 00411aa0 f i LIBCMTD:guard_support.obj
 0001:00010af0       ___castguard_slow_path_check_nop 00411af0 f i LIBCMTD:guard_support.obj
 0001:00010b00       ___castguard_slow_path_check_os_handled 00411b00 f i LIBCMTD:guard_support.obj
 0001:00010bc0       __guard_icall_checks_enforced 00411bc0 f i LIBCMTD:guard_support.obj
 0001:00010c00       ??0bad_alloc@std@@AAE@QBD@Z 00411c00 f i LIBCMTD:throw_bad_alloc.obj
 0001:00010c30       ??0bad_alloc@std@@QAE@ABV01@@Z 00411c30 f i LIBCMTD:throw_bad_alloc.obj
 0001:00010c60       ??0bad_alloc@std@@QAE@XZ   00411c60 f i LIBCMTD:throw_bad_alloc.obj
 0001:00010c90       ??0bad_array_new_length@std@@QAE@ABV01@@Z 00411c90 f i LIBCMTD:throw_bad_alloc.obj
 0001:00010cc0       ??0bad_array_new_length@std@@QAE@XZ 00411cc0 f i LIBCMTD:throw_bad_alloc.obj
 0001:00010cf0       ??0exception@std@@QAE@ABV01@@Z 00411cf0 f i LIBCMTD:throw_bad_alloc.obj
 0001:00010d40       ??0exception@std@@QAE@QBDH@Z 00411d40 f i LIBCMTD:throw_bad_alloc.obj
 0001:00010d80       ??1bad_alloc@std@@UAE@XZ   00411d80 f i LIBCMTD:throw_bad_alloc.obj
 0001:00010da0       ??1bad_array_new_length@std@@UAE@XZ 00411da0 f i LIBCMTD:throw_bad_alloc.obj
 0001:00010dc0       ??1exception@std@@UAE@XZ   00411dc0 f i LIBCMTD:throw_bad_alloc.obj
 0001:00010df0       ??_Ebad_alloc@std@@UAEPAXI@Z 00411df0 f i LIBCMTD:throw_bad_alloc.obj
 0001:00010df0       ??_Gbad_alloc@std@@UAEPAXI@Z 00411df0 f i LIBCMTD:throw_bad_alloc.obj
 0001:00010e30       ??_Ebad_array_new_length@std@@UAEPAXI@Z 00411e30 f i LIBCMTD:throw_bad_alloc.obj
 0001:00010e30       ??_Gbad_array_new_length@std@@UAEPAXI@Z 00411e30 f i LIBCMTD:throw_bad_alloc.obj
 0001:00010e70       ??_Gexception@std@@UAEPAXI@Z 00411e70 f i LIBCMTD:throw_bad_alloc.obj
 0001:00010e70       ??_Eexception@std@@UAEPAXI@Z 00411e70 f i LIBCMTD:throw_bad_alloc.obj
 0001:00010eb0       ?__scrt_throw_std_bad_alloc@@YAXXZ 00411eb0 f   LIBCMTD:throw_bad_alloc.obj
 0001:00010ee0       ?__scrt_throw_std_bad_array_new_length@@YAXXZ 00411ee0 f   LIBCMTD:throw_bad_alloc.obj
 0001:00010f10       ?what@exception@std@@UBEPBDXZ 00411f10 f i LIBCMTD:throw_bad_alloc.obj
 0001:000114e0       ?_RTC_GetSrcLine@@YAHPAEPA_WKPAH1K@Z 004124e0 f   LIBCMTD:pdblkup.obj
 0001:00011940       __except_handler4_noexcept 00412940 f   LIBCMTD:chandler4_noexcept.obj
 0001:000119c0       ___isa_available_init      004129c0 f   LIBCMTD:cpu_disp.obj
 0001:00011dc0       ___scrt_is_ucrt_dll_in_use 00412dc0 f   LIBCMTD:ucrt_detection.obj
 0001:00011df0       ??3@YAXPAXI@Z              00412df0 f   LIBCMTD:delete_scalar_size.obj
 0001:00011e10       ??1type_info@@UAE@XZ       00412e10 f   LIBCMTD:std_type_info_static.obj
 0001:00011e30       ??_Etype_info@@UAEPAXI@Z   00412e30 f i LIBCMTD:std_type_info_static.obj
 0001:00011e30       ??_Gtype_info@@UAEPAXI@Z   00412e30 f i LIBCMTD:std_type_info_static.obj
 0001:00011e70       _memcpy                    00412e70 f   libvcruntimed:memcpy.obj
 0001:000125d0       __except_handler4          004135d0 f   libvcruntimed:chandler4.obj
 0001:00012830       ___vcrt_initialize         00413830 f   libvcruntimed:initialization.obj
 0001:00012870       ___vcrt_thread_attach      00413870 f   libvcruntimed:initialization.obj
 0001:00012890       ___vcrt_thread_detach      00413890 f   libvcruntimed:initialization.obj
 0001:000128b0       ___vcrt_uninitialize       004138b0 f   libvcruntimed:initialization.obj
 0001:000128d0       ___vcrt_uninitialize_critical 004138d0 f   libvcruntimed:initialization.obj
 0001:00012930       ??$?RD@__crt_internal_free_policy@@QBEXQBD@Z 00413930 f i libvcruntimed:std_type_info.obj
 0001:00012960       ??$?RX@__crt_internal_free_policy@@QBEXQBX@Z 00413960 f i libvcruntimed:std_type_info.obj
 0001:00012990       ??$__crt_interlocked_compare_exchange_pointer@$$CBDPAD$$T@@YAPBDPDSBDQAD$$T@Z 00413990 f i libvcruntimed:std_type_info.obj
 0001:000129b0       ??$__crt_interlocked_read_pointer@$$CBD@@YAPBDPDSBD@Z 004139b0 f i libvcruntimed:std_type_info.obj
 0001:000129d0       ??0?$__crt_unique_heap_ptr@DU__crt_internal_free_policy@@@@QAE@QAD@Z 004139d0 f i libvcruntimed:std_type_info.obj
 0001:000129f0       ??0?$__crt_unique_heap_ptr@XU__crt_internal_free_policy@@@@QAE@QAX@Z 004139f0 f i libvcruntimed:std_type_info.obj
 0001:00012a10       ??1?$__crt_unique_heap_ptr@DU__crt_internal_free_policy@@@@QAE@XZ 00413a10 f i libvcruntimed:std_type_info.obj
 0001:00012a30       ??1?$__crt_unique_heap_ptr@XU__crt_internal_free_policy@@@@QAE@XZ 00413a30 f i libvcruntimed:std_type_info.obj
 0001:00012a50       ??B?$__crt_unique_heap_ptr@DU__crt_internal_free_policy@@@@QBE_NXZ 00413a50 f i libvcruntimed:std_type_info.obj
 0001:00012a70       ??B?$__crt_unique_heap_ptr@XU__crt_internal_free_policy@@@@QBE_NXZ 00413a70 f i libvcruntimed:std_type_info.obj
 0001:00012b30       ?__crt_interlocked_read_32@@YAHPDH@Z 00413b30 f i libvcruntimed:std_type_info.obj
 0001:00012b50       ?detach@?$__crt_unique_heap_ptr@XU__crt_internal_free_policy@@@@QAEPAXXZ 00413b50 f i libvcruntimed:std_type_info.obj
 0001:00012b80       ?get@?$__crt_unique_heap_ptr@DU__crt_internal_free_policy@@@@QBEPADXZ 00413b80 f i libvcruntimed:std_type_info.obj
 0001:00012ba0       ?get@?$__crt_unique_heap_ptr@XU__crt_internal_free_policy@@@@QBEPAXXZ 00413ba0 f i libvcruntimed:std_type_info.obj
 0001:00012bc0       ?is_valid@?$__crt_unique_heap_ptr@DU__crt_internal_free_policy@@@@QBE_NXZ 00413bc0 f i libvcruntimed:std_type_info.obj
 0001:00012c00       ?is_valid@?$__crt_unique_heap_ptr@XU__crt_internal_free_policy@@@@QBE_NXZ 00413c00 f i libvcruntimed:std_type_info.obj
 0001:00012c40       ?release@?$__crt_unique_heap_ptr@DU__crt_internal_free_policy@@@@QAEXXZ 00413c40 f i libvcruntimed:std_type_info.obj
 0001:00012c70       ?release@?$__crt_unique_heap_ptr@XU__crt_internal_free_policy@@@@QAEXXZ 00413c70 f i libvcruntimed:std_type_info.obj
 0001:00012ca0       ___std_type_info_compare   00413ca0 f   libvcruntimed:std_type_info.obj
 0001:00012cd0       ___std_type_info_destroy_list 00413cd0 f   libvcruntimed:std_type_info.obj
 0001:00012d20       ___std_type_info_hash      00413d20 f   libvcruntimed:std_type_info.obj
 0001:00012d90       ___std_type_info_name      00413d90 f   libvcruntimed:std_type_info.obj
 0001:00012fe0       ___DestructExceptionObject 00413fe0 f   libvcruntimed:ehhelpers.obj
 0001:00013150       ?_CallMemberFunction0@@YGXQAX0@Z 00414150 f i libvcruntimed:ehhelpers.obj
 0001:00013220       ?raw_name@type_info@@QBEPBDXZ 00414220 f i libvcruntimed:ehhelpers.obj
 0001:00013240       __IsExceptionObjectToBeDestroyed 00414240 f   libvcruntimed:ehhelpers.obj
 0001:00013290       __SetWinRTOutOfMemoryExceptionCallback 00414290 f   libvcruntimed:ehhelpers.obj
 0001:000132a0       ___AdjustPointer           004142a0 f   libvcruntimed:ehhelpers.obj
 0001:00013300       ___FrameUnwindFilter       00414300 f   libvcruntimed:ehhelpers.obj
 0001:000133b0       ___GetPlatformExceptionInfo 004143b0 f   libvcruntimed:ehhelpers.obj
 0001:00013450       ___current_exception       00414450 f   libvcruntimed:ehhelpers.obj
 0001:00013460       ___current_exception_context 00414460 f   libvcruntimed:ehhelpers.obj
 0001:00013470       ___processing_throw        00414470 f   libvcruntimed:ehhelpers.obj
 0001:00013480       ___std_terminate           00414480 f   libvcruntimed:ehhelpers.obj
 0001:00013490       __is_exception_typeof      00414490 f   libvcruntimed:ehhelpers.obj
 0001:000135a0       _memset                    004145a0 f   libvcruntimed:memset.obj
 0001:00013750       ??$?RD@__crt_public_free_policy@@QBEXQBD@Z 00414750 f i libvcruntimed:std_exception.obj
 0001:00013770       ??0?$__crt_unique_heap_ptr@DU__crt_public_free_policy@@@@QAE@QAD@Z 00414770 f i libvcruntimed:std_exception.obj
 0001:00013790       ??1?$__crt_unique_heap_ptr@DU__crt_public_free_policy@@@@QAE@XZ 00414790 f i libvcruntimed:std_exception.obj
 0001:000137b0       ??B?$__crt_unique_heap_ptr@DU__crt_public_free_policy@@@@QBE_NXZ 004147b0 f i libvcruntimed:std_exception.obj
 0001:000137d0       ?detach@?$__crt_unique_heap_ptr@DU__crt_public_free_policy@@@@QAEPADXZ 004147d0 f i libvcruntimed:std_exception.obj
 0001:00013800       ?get@?$__crt_unique_heap_ptr@DU__crt_public_free_policy@@@@QBEPADXZ 00414800 f i libvcruntimed:std_exception.obj
 0001:00013820       ?is_valid@?$__crt_unique_heap_ptr@DU__crt_public_free_policy@@@@QBE_NXZ 00414820 f i libvcruntimed:std_exception.obj
 0001:00013860       ?release@?$__crt_unique_heap_ptr@DU__crt_public_free_policy@@@@QAEXXZ 00414860 f i libvcruntimed:std_exception.obj
 0001:00013890       ___std_exception_copy      00414890 f   libvcruntimed:std_exception.obj
 0001:000139c0       ___std_exception_destroy   004149c0 f   libvcruntimed:std_exception.obj
 0001:00013a00       __CxxThrowException@8      00414a00 f   libvcruntimed:throw.obj
 0001:00013ad0       ___vcrt_GetModuleFileNameW 00414ad0 f   libvcruntimed:winapi_thunks.obj
 0001:00013af0       ___vcrt_GetModuleHandleW   00414af0 f   libvcruntimed:winapi_thunks.obj
 0001:00013b10       ___vcrt_LoadLibraryExW     00414b10 f   libvcruntimed:winapi_thunks.obj
 0001:00013b30       __local_unwind4            00414b30 f   libvcruntimed:exsup4.obj
 0001:00013c60       __seh_longjmp_unwind4@4    00414c60 f   libvcruntimed:exsup4.obj
 0001:00013ca0       @_EH4_CallFilterFunc@8     00414ca0 f   libvcruntimed:exsup4.obj
 0001:00013cc0       @_EH4_TransferToHandler@8  00414cc0 f   libvcruntimed:exsup4.obj
 0001:00013ce0       @_EH4_GlobalUnwind2@8      00414ce0 f   libvcruntimed:exsup4.obj
 0001:00013d00       @_EH4_LocalUnwind@16       00414d00 f   libvcruntimed:exsup4.obj
 0001:00013d30       ___except_validate_context_record 00414d30 f   libvcruntimed:jbcxrval.obj
 0001:00013d90       ___except_validate_jump_buffer 00414d90 f   libvcruntimed:jbcxrval.obj
 0001:00013db0       ___except_validate_jump_buffer_common 00414db0 f i libvcruntimed:jbcxrval.obj
 0001:00013e20       ??$?RU__vcrt_ptd@@@__crt_internal_free_policy@@QBEXQBU__vcrt_ptd@@@Z 00414e20 f i libvcruntimed:per_thread_data.obj
 0001:00013e50       ??0?$__crt_unique_heap_ptr@U__vcrt_ptd@@U__crt_internal_free_policy@@@@QAE@QAU__vcrt_ptd@@@Z 00414e50 f i libvcruntimed:per_thread_data.obj
 0001:00013e90       ??1?$__crt_unique_heap_ptr@U__vcrt_ptd@@U__crt_internal_free_policy@@@@QAE@XZ 00414e90 f i libvcruntimed:per_thread_data.obj
 0001:00013ed0       ??B?$__crt_unique_heap_ptr@U__vcrt_ptd@@U__crt_internal_free_policy@@@@QBE_NXZ 00414ed0 f i libvcruntimed:per_thread_data.obj
 0001:00013ef0       ?detach@?$__crt_unique_heap_ptr@U__vcrt_ptd@@U__crt_internal_free_policy@@@@QAEPAU__vcrt_ptd@@XZ 00414ef0 f i libvcruntimed:per_thread_data.obj
 0001:00013f20       ?get@?$__crt_unique_heap_ptr@U__vcrt_ptd@@U__crt_internal_free_policy@@@@QBEPAU__vcrt_ptd@@XZ 00414f20 f i libvcruntimed:per_thread_data.obj
 0001:00013f40       ?is_valid@?$__crt_unique_heap_ptr@U__vcrt_ptd@@U__crt_internal_free_policy@@@@QBE_NXZ 00414f40 f i libvcruntimed:per_thread_data.obj
 0001:00013f80       ?release@?$__crt_unique_heap_ptr@U__vcrt_ptd@@U__crt_internal_free_policy@@@@QAEXXZ 00414f80 f i libvcruntimed:per_thread_data.obj
 0001:00013fe0       ___vcrt_freefls@4          00414fe0 f   libvcruntimed:per_thread_data.obj
 0001:00014010       ___vcrt_freeptd            00415010 f   libvcruntimed:per_thread_data.obj
 0001:00014080       ___vcrt_getptd             00415080 f   libvcruntimed:per_thread_data.obj
 0001:000140b0       ___vcrt_getptd_noexit      004150b0 f   libvcruntimed:per_thread_data.obj
 0001:00014260       ___vcrt_getptd_noinit      00415260 f   libvcruntimed:per_thread_data.obj
 0001:000142d0       ___vcrt_initialize_ptd     004152d0 f   libvcruntimed:per_thread_data.obj
 0001:00014330       ___vcrt_uninitialize_ptd   00415330 f   libvcruntimed:per_thread_data.obj
 0001:00014370       ___vcrt_initialize_locks   00415370 f   libvcruntimed:locks.obj
 0001:000143e0       ___vcrt_lock               004153e0 f   libvcruntimed:locks.obj
 0001:00014400       ___vcrt_uninitialize_locks 00415400 f   libvcruntimed:locks.obj
 0001:00014460       ___vcrt_unlock             00415460 f   libvcruntimed:locks.obj
 0001:00014480       ??$?0$00@DName@@QAE@PBDU?$StringLifeSelector@$00@@@Z 00415480 f i libvcruntimed:undname.obj
 0001:000144f0       ??$?0$00@pcharNode@@QAE@PBDHU?$StringLifeSelector@$00@@@Z 004154f0 f i libvcruntimed:undname.obj
 0001:00014530       ??$?0$01@DName@@QAE@PBDU?$StringLifeSelector@$01@@@Z 00415530 f i libvcruntimed:undname.obj
 0001:000145a0       ??$?0$01@pcharNode@@QAE@PBDHU?$StringLifeSelector@$01@@@Z 004155a0 f i libvcruntimed:undname.obj
 0001:00014640       ??$?0$0A@@DName@@QAE@PBDU?$StringLifeSelector@$0A@@@@Z 00415640 f i libvcruntimed:undname.obj
 0001:000146b0       ??$?0$0A@@pcharNode@@QAE@PBDHU?$StringLifeSelector@$0A@@@@Z 004156b0 f i libvcruntimed:undname.obj
 0001:00014750       ??$?0_K$0A@@?$optional@_K@std@@QAE@$$QA_K@Z 00415750 f i libvcruntimed:undname.obj
 0001:000147a0       ??$?0_K@?$_Optional_construct_base@_K@std@@QAE@Uin_place_t@1@$$QA_K@Z 004157a0 f i libvcruntimed:undname.obj
 0001:000147d0       ??$?0_K@?$_Optional_destruct_base@_K$00@std@@QAE@Uin_place_t@1@$$QA_K@Z 004157d0 f i libvcruntimed:undname.obj
 0001:00014810       ??$append@VDNameNode@@@DName@@AAEXPBVDNameNode@@@Z 00415810 f i libvcruntimed:undname.obj
 0001:000148c0       ??$append@VDNameStatusNode@@@DName@@AAEXPBVDNameStatusNode@@@Z 004158c0 f i libvcruntimed:undname.obj
 0001:00014970       ??$append@VcharNode@@@DName@@AAEXPBVcharNode@@@Z 00415970 f i libvcruntimed:undname.obj
 0001:00014a20       ??$append@VpDNameNode@@@DName@@AAEXPBVpDNameNode@@@Z 00415a20 f i libvcruntimed:undname.obj
 0001:00014ad0       ??$append@VpcharNode@@@DName@@AAEXPBVpcharNode@@@Z 00415ad0 f i libvcruntimed:undname.obj
 0001:00014b80       ??$doPchar@$00@DName@@AAEXPBDH@Z 00415b80 f i libvcruntimed:undname.obj
 0001:00014cd0       ??$doPchar@$01@DName@@AAEXPBDH@Z 00415cd0 f i libvcruntimed:undname.obj
 0001:00014e20       ??$doPchar@$0A@@DName@@AAEXPBDH@Z 00415e20 f i libvcruntimed:undname.obj
 0001:00014f70       ??$forward@_K@std@@YA$$QA_KAA_K@Z 00415f70 f i libvcruntimed:undname.obj
 0001:00014f80       ??$size@D$04@std@@YAIAAY04$$CBD@Z 00415f80 f i libvcruntimed:undname.obj
 0001:00014f90       ??$size@D$0EB@@std@@YAIAAY0EB@$$CBD@Z 00415f90 f i libvcruntimed:undname.obj
 0001:00014fa0       ??0?$_Optional_construct_base@_K@std@@QAE@XZ 00415fa0 f i libvcruntimed:undname.obj
 0001:00014fc0       ??0?$_Optional_destruct_base@_K$00@std@@QAE@XZ 00415fc0 f i libvcruntimed:undname.obj
 0001:00014ff0       ??0?$optional@_K@std@@QAE@XZ 00415ff0 f i libvcruntimed:undname.obj
 0001:00015010       ??0Block@_HeapManager@@QAE@XZ 00416010 f i libvcruntimed:undname.obj
 0001:00015030       ??0DName@@QAE@AAPBDD@Z     00416030 f   libvcruntimed:undname.obj
 0001:00015200       ??0DName@@QAE@ABUStringLiteral@@@Z 00416200 f   libvcruntimed:undname.obj
 0001:00015260       ??0DName@@QAE@ABV0@@Z      00416260 f i libvcruntimed:undname.obj
 0001:00015290       ??0DName@@QAE@D@Z          00416290 f   libvcruntimed:undname.obj
 0001:000152d0       ??0DName@@QAE@PAV0@@Z      004162d0 f   libvcruntimed:undname.obj
 0001:000153b0       ??0DName@@QAE@W4DNameStatus@@@Z 004163b0 f   libvcruntimed:undname.obj
 0001:00015470       ??0DName@@QAE@XZ           00416470 f i libvcruntimed:undname.obj
 0001:000154a0       ??0DName@@QAE@_J@Z         004164a0 f   libvcruntimed:undname.obj
 0001:000155c0       ??0DName@@QAE@_K@Z         004165c0 f   libvcruntimed:undname.obj
 0001:00015690       ??0DNameNode@@IAE@XZ       00416690 f i libvcruntimed:undname.obj
 0001:000156b0       ??0Replicator@@QAE@XZ      004166b0 f i libvcruntimed:undname.obj
 0001:00015700       ??0UnDecorator@@QAE@PBDP6APADJ@ZK@Z 00416700 f i libvcruntimed:undname.obj
 0001:000157a0       ??0_Nontrivial_dummy_type@std@@QAE@XZ 004167a0 f i libvcruntimed:undname.obj
 0001:000157c0       ??0charNode@@QAE@D@Z       004167c0 f i libvcruntimed:undname.obj
 0001:00015800       ??0pDNameNode@@QAE@PAVDName@@@Z 00416800 f   libvcruntimed:undname.obj
 0001:00015880       ??0pairNode@@QAE@PBVDNameNode@@0@Z 00416880 f i libvcruntimed:undname.obj
 0001:000158f0       ??2@YAPAXIAAV_HeapManager@@H@Z 004168f0 f   libvcruntimed:undname.obj
 0001:00015940       ??4DName@@QAEAAV0@ABUStringLiteral@@@Z 00416940 f   libvcruntimed:undname.obj
 0001:00015990       ??4DName@@QAEAAV0@ABV0@@Z  00416990 f   libvcruntimed:undname.obj
 0001:000159c0       ??4DName@@QAEAAV0@D@Z      004169c0 f i libvcruntimed:undname.obj
 0001:00015a00       ??4DName@@QAEAAV0@PAV0@@Z  00416a00 f   libvcruntimed:undname.obj
 0001:00015ac0       ??4DName@@QAEAAV0@W4DNameStatus@@@Z 00416ac0 f   libvcruntimed:undname.obj
 0001:00015b60       ??AReplicator@@QBE?AVDName@@H@Z 00416b60 f   libvcruntimed:undname.obj
 0001:00015be0       ??B?$optional@_K@std@@QBE_NXZ 00416be0 f i libvcruntimed:undname.obj
 0001:00015c00       ??D?$optional@_K@std@@QGAEAA_KXZ 00416c00 f i libvcruntimed:undname.obj
 0001:00015c80       ??H@YA?AVDName@@ABUStringLiteral@@ABV0@@Z 00416c80 f i libvcruntimed:undname.obj
 0001:00015cc0       ??H@YA?AVDName@@DABV0@@Z   00416cc0 f i libvcruntimed:undname.obj
 0001:00015d00       ??H@YA?AVDName@@W4DNameStatus@@ABV0@@Z 00416d00 f i libvcruntimed:undname.obj
 0001:00015d40       ??HDName@@QBE?AV0@ABUStringLiteral@@@Z 00416d40 f   libvcruntimed:undname.obj
 0001:00015d90       ??HDName@@QBE?AV0@ABV0@@Z  00416d90 f   libvcruntimed:undname.obj
 0001:00015de0       ??HDName@@QBE?AV0@D@Z      00416de0 f   libvcruntimed:undname.obj
 0001:00015e30       ??HDName@@QBE?AV0@PAV0@@Z  00416e30 f   libvcruntimed:undname.obj
 0001:00015e80       ??HDName@@QBE?AV0@W4DNameStatus@@@Z 00416e80 f   libvcruntimed:undname.obj
 0001:00015ed0       ??HStringLiteral@@QBE?AU0@H@Z 00416ed0 f i libvcruntimed:undname.obj
 0001:00015f10       ??YDName@@QAEAAV0@ABUStringLiteral@@@Z 00416f10 f   libvcruntimed:undname.obj
 0001:00015fd0       ??YDName@@QAEAAV0@ABV0@@Z  00416fd0 f   libvcruntimed:undname.obj
 0001:00016090       ??YDName@@QAEAAV0@D@Z      00417090 f   libvcruntimed:undname.obj
 0001:00016130       ??YDName@@QAEAAV0@PAV0@@Z  00417130 f   libvcruntimed:undname.obj
 0001:00016210       ??YDName@@QAEAAV0@W4DNameStatus@@@Z 00417210 f   libvcruntimed:undname.obj
 0001:00016290       ??YReplicator@@QAEAAV0@ABVDName@@@Z 00417290 f   libvcruntimed:undname.obj
 0001:00016340       ??_5DName@@QAEAAV0@ABV0@@Z 00417340 f   libvcruntimed:undname.obj
 0001:000163b0       ??__K_l@@YA?AUStringLiteral@@PBDI@Z 004173b0 f i libvcruntimed:undname.obj
 0001:000163e0       ?Constructor@_HeapManager@@QAEXP6APAXI@ZP6AXPAX@Z@Z 004173e0 f i libvcruntimed:undname.obj
 0001:00016430       ?Destructor@_HeapManager@@QAEXXZ 00417430 f i libvcruntimed:undname.obj
 0001:000164d0       ?UScore@UnDecorator@@SA?AUStringLiteral@@W4Tokens@@@Z 004174d0 f   libvcruntimed:undname.obj
 0001:00016530       ?composeDeclaration@UnDecorator@@CA?AVDName@@ABV2@@Z 00417530 f i libvcruntimed:undname.obj
 0001:00018c80       ?dbGetString@DName@@QBEPADXZ 00419c80 f   libvcruntimed:undname.obj
 0001:00018cb0       ?doAccessSpecifiers@UnDecorator@@SAHXZ 00419cb0 f i libvcruntimed:undname.obj
 0001:00018ce0       ?doAllocationLanguage@UnDecorator@@SAHXZ 00419ce0 f i libvcruntimed:undname.obj
 0001:00018d10       ?doAllocationModel@UnDecorator@@SAHXZ 00419d10 f i libvcruntimed:undname.obj
 0001:00018d40       ?doEcsu@UnDecorator@@SAHXZ 00419d40 f i libvcruntimed:undname.obj
 0001:00018d70       ?doEllipsis@UnDecorator@@SAHXZ 00419d70 f i libvcruntimed:undname.obj
 0001:00018da0       ?doFunctionReturns@UnDecorator@@SAHXZ 00419da0 f i libvcruntimed:undname.obj
 0001:00018dd0       ?doMSKeywords@UnDecorator@@SAHXZ 00419dd0 f i libvcruntimed:undname.obj
 0001:00018e00       ?doMemberTypes@UnDecorator@@SAHXZ 00419e00 f i libvcruntimed:undname.obj
 0001:00018e30       ?doNameOnly@UnDecorator@@SAHXZ 00419e30 f i libvcruntimed:undname.obj
 0001:00018e50       ?doNoIdentCharCheck@UnDecorator@@SAHXZ 00419e50 f i libvcruntimed:undname.obj
 0001:00018e70       ?doPchar@DName@@AAEXD@Z    00419e70 f   libvcruntimed:undname.obj
 0001:00018f00       ?doPtr64@UnDecorator@@SAHXZ 00419f00 f i libvcruntimed:undname.obj
 0001:00018f30       ?doRestrictionSpec@UnDecorator@@SAHXZ 00419f30 f i libvcruntimed:undname.obj
 0001:00018f60       ?doThisTypes@UnDecorator@@SAHXZ 00419f60 f i libvcruntimed:undname.obj
 0001:00018fa0       ?doThrowTypes@UnDecorator@@SAHXZ 00419fa0 f i libvcruntimed:undname.obj
 0001:00018fd0       ?doTypeOnly@UnDecorator@@SAHXZ 00419fd0 f i libvcruntimed:undname.obj
 0001:00018ff0       ?doUnderScore@UnDecorator@@SAHXZ 00419ff0 f i libvcruntimed:undname.obj
 0001:00019020       ?getAddressOf@UnDecorator@@CA?AVDName@@XZ 0041a020 f   libvcruntimed:undname.obj
 0001:000190c0       ?getArgumentList@UnDecorator@@CA?AVDName@@XZ 0041a0c0 f   libvcruntimed:undname.obj
 0001:00019260       ?getArgumentTypes@UnDecorator@@CA?AVDName@@XZ 0041a260 f   libvcruntimed:undname.obj
 0001:000194f0       ?getArrayAccess@UnDecorator@@CA?AVDName@@XZ 0041a4f0 f   libvcruntimed:undname.obj
 0001:000195b0       ?getArrayObject@UnDecorator@@CA?AVDName@@XZ 0041a5b0 f   libvcruntimed:undname.obj
 0001:000196d0       ?getArrayType@UnDecorator@@CA?AVDName@@ABV2@@Z 0041a6d0 f i libvcruntimed:undname.obj
 0001:00019a10       ?getBasedType@UnDecorator@@CA?AVDName@@XZ 0041aa10 f   libvcruntimed:undname.obj
 0001:00019b40       ?getBasicDataType@UnDecorator@@CA?AVDName@@ABV2@@Z 0041ab40 f   libvcruntimed:undname.obj
 0001:0001a710       ?getCHPEName@UnDecorator@@QAEPADPADH@Z 0041b710 f i libvcruntimed:undname.obj
 0001:0001a8d0       ?getCallIndex@UnDecorator@@CA?AVDName@@XZ 0041b8d0 f i libvcruntimed:undname.obj
 0001:0001a8f0       ?getCallingConvention@UnDecorator@@CA?AVDName@@XZ 0041b8f0 f   libvcruntimed:undname.obj
 0001:0001abb0       ?getDataIndirectType@UnDecorator@@CA?AVDName@@ABV2@W4IndirectionKind@@0H@Z 0041bbb0 f   libvcruntimed:undname.obj
 0001:0001b710       ?getDataIndirectType@UnDecorator@@CA?AVDName@@XZ 0041c710 f i libvcruntimed:undname.obj
 0001:0001b760       ?getDataType@UnDecorator@@CA?AVDName@@PAV2@@Z 0041c760 f   libvcruntimed:undname.obj
 0001:0001b8f0       ?getDecoratedName@UnDecorator@@CA?AVDName@@XZ 0041c8f0 f   libvcruntimed:undname.obj
 0001:0001be30       ?getDimension@UnDecorator@@CA?AVDName@@_N@Z 0041ce30 f   libvcruntimed:undname.obj
 0001:0001c130       ?getDispatchTarget@UnDecorator@@CA?AVDName@@XZ 0041d130 f   libvcruntimed:undname.obj
 0001:0001c200       ?getDisplacement@UnDecorator@@CA?AVDName@@XZ 0041d200 f i libvcruntimed:undname.obj
 0001:0001c220       ?getECSUDataType@UnDecorator@@CA?AVDName@@XZ 0041d220 f   libvcruntimed:undname.obj
 0001:0001c510       ?getECSUName@UnDecorator@@CA?AVDName@@XZ 0041d510 f i libvcruntimed:undname.obj
 0001:0001c530       ?getEnumType@UnDecorator@@CA?AVDName@@XZ 0041d530 f i libvcruntimed:undname.obj
 0001:0001c760       ?getExtendedDataIndirectType@UnDecorator@@CA?AVDName@@AAW4IndirectionKind@@AA_NH@Z 0041d760 f   libvcruntimed:undname.obj
 0001:0001ca40       ?getExternalDataType@UnDecorator@@CA?AVDName@@ABV2@@Z 0041da40 f i libvcruntimed:undname.obj
 0001:0001cb00       ?getFloatingPoint@UnDecorator@@CA?AVDName@@H@Z 0041db00 f   libvcruntimed:undname.obj
 0001:0001cd30       ?getFunctionIndirectType@UnDecorator@@CA?AVDName@@ABV2@@Z 0041dd30 f   libvcruntimed:undname.obj
 0001:0001d350       ?getGuardNumber@UnDecorator@@CA?AVDName@@XZ 0041e350 f i libvcruntimed:undname.obj
 0001:0001d370       ?getLastChar@DName@@QBEDXZ 0041e370 f i libvcruntimed:undname.obj
 0001:0001d3c0       ?getLastChar@DNameStatusNode@@UBEDXZ 0041e3c0 f i libvcruntimed:undname.obj
 0001:0001d400       ?getLastChar@charNode@@UBEDXZ 0041e400 f i libvcruntimed:undname.obj
 0001:0001d420       ?getLastChar@pDNameNode@@UBEDXZ 0041e420 f i libvcruntimed:undname.obj
 0001:0001d460       ?getLastChar@pairNode@@UBEDXZ 0041e460 f i libvcruntimed:undname.obj
 0001:0001d4e0       ?getLastChar@pcharNode@@UBEDXZ 0041e4e0 f i libvcruntimed:undname.obj
 0001:0001d520       ?getLexicalFrame@UnDecorator@@CA?AVDName@@XZ 0041e520 f i libvcruntimed:undname.obj
 0001:0001d570       ?getMemberAccess@UnDecorator@@CA?AVDName@@XZ 0041e570 f   libvcruntimed:undname.obj
 0001:0001d620       ?getMemoryWithBuffer@_HeapManager@@QAEPAXI@Z 0041e620 f   libvcruntimed:undname.obj
 0001:0001d740       ?getMemoryWithoutBuffer@_HeapManager@@QAEPAXI@Z 0041e740 f   libvcruntimed:undname.obj
 0001:0001d790       ?getNoexcept@UnDecorator@@CA?AVDName@@XZ 0041e790 f   libvcruntimed:undname.obj
 0001:0001d830       ?getNumberOfDimensions@UnDecorator@@CAHXZ 0041e830 f   libvcruntimed:undname.obj
 0001:0001d970       ?getOperatorName@UnDecorator@@CA?AVDName@@_NPA_N@Z 0041e970 f i libvcruntimed:undname.obj
 0001:0001e730       ?getPointerToMember@UnDecorator@@CA?AVDName@@XZ 0041f730 f   libvcruntimed:undname.obj
 0001:0001e860       ?getPointerType@UnDecorator@@CA?AVDName@@ABV2@0@Z 0041f860 f i libvcruntimed:undname.obj
 0001:0001e890       ?getPointerTypeArray@UnDecorator@@CA?AVDName@@ABV2@0@Z 0041f890 f i libvcruntimed:undname.obj
 0001:0001e8c0       ?getPrimaryDataType@UnDecorator@@CA?AVDName@@ABV2@@Z 0041f8c0 f   libvcruntimed:undname.obj
 0001:0001ee70       ?getPtrRefDataType@UnDecorator@@CA?AVDName@@ABV2@H@Z 0041fe70 f   libvcruntimed:undname.obj
 0001:0001f1c0       ?getPtrRefType@UnDecorator@@CA?AVDName@@ABV2@0W4IndirectionKind@@@Z 004201c0 f   libvcruntimed:undname.obj
 0001:0001f3a0       ?getReferenceType@UnDecorator@@CA?AVDName@@ABV2@0W4IndirectionKind@@@Z 004203a0 f i libvcruntimed:undname.obj
 0001:0001f3d0       ?getRestrictionSpec@UnDecorator@@CA?AVDName@@XZ 004203d0 f   libvcruntimed:undname.obj
 0001:0001f600       ?getReturnType@UnDecorator@@CA?AVDName@@PAV2@@Z 00420600 f   libvcruntimed:undname.obj
 0001:0001f660       ?getScope@UnDecorator@@CA?AVDName@@XZ 00420660 f   libvcruntimed:undname.obj
 0001:0001fd50       ?getScopedName@UnDecorator@@CA?AVDName@@XZ 00420d50 f   libvcruntimed:undname.obj
 0001:0001fef0       ?getSignedDimension@UnDecorator@@CA?AVDName@@XZ 00420ef0 f   libvcruntimed:undname.obj
 0001:0001ff90       ?getStorageConvention@UnDecorator@@CA?AVDName@@XZ 00420f90 f i libvcruntimed:undname.obj
 0001:0001ffb0       ?getString@DName@@QBEPADPAD0@Z 00420fb0 f i libvcruntimed:undname.obj
 0001:00020020       ?getString@DName@@QBEPADPADH@Z 00421020 f i libvcruntimed:undname.obj
 0001:000200d0       ?getString@DNameStatusNode@@UBEPADPAD0@Z 004210d0 f i libvcruntimed:undname.obj
 0001:00020110       ?getString@charNode@@UBEPADPAD0@Z 00421110 f i libvcruntimed:undname.obj
 0001:00020150       ?getString@pDNameNode@@UBEPADPAD0@Z 00421150 f i libvcruntimed:undname.obj
 0001:000201a0       ?getString@pairNode@@UBEPADPAD0@Z 004211a0 f i libvcruntimed:undname.obj
 0001:00020250       ?getString@pcharNode@@UBEPADPAD0@Z 00421250 f i libvcruntimed:undname.obj
 0001:00020290       ?getStringEncoding@UnDecorator@@CA?AVDName@@W4PrefixKind@@H@Z 00421290 f   libvcruntimed:undname.obj
 0001:000203e0       ?getStringHelper@@YAPADPADPBD1H@Z 004213e0 f i libvcruntimed:undname.obj
 0001:00020430       ?getStringObject@UnDecorator@@CA?AVDName@@XZ 00421430 f   libvcruntimed:undname.obj
 0001:00020500       ?getSymbolName@UnDecorator@@CA?AVDName@@XZ 00421500 f i libvcruntimed:undname.obj
 0001:000205b0       ?getTemplateArgumentList@UnDecorator@@CA?AVDName@@XZ 004215b0 f   libvcruntimed:undname.obj
 0001:00020950       ?getTemplateName@UnDecorator@@CA?AVDName@@_N@Z 00421950 f   libvcruntimed:undname.obj
 0001:00020b80       ?getTemplateNonTypeArgument@UnDecorator@@CA?AVDName@@XZ 00421b80 f   libvcruntimed:undname.obj
 0001:00021300       ?getTemplateTypeArgument@UnDecorator@@CA?AVDName@@XZ 00422300 f   libvcruntimed:undname.obj
 0001:00021510       ?getThisType@UnDecorator@@CA?AVDName@@XZ 00422510 f i libvcruntimed:undname.obj
 0001:00021560       ?getThrowTypes@UnDecorator@@CA?AVDName@@XZ 00422560 f   libvcruntimed:undname.obj
 0001:000215b0       ?getTypeEncoding@UnDecorator@@CAHXZ 004225b0 f i libvcruntimed:undname.obj
 0001:00022320       ?getUndecoratedName@UnDecorator@@QAEPADPADH@Z 00423320 f i libvcruntimed:undname.obj
 0001:000224d0       ?getUnionObject@UnDecorator@@CA?AVDName@@XZ 004234d0 f   libvcruntimed:undname.obj
 0001:000225e0       ?getVCallThunkType@UnDecorator@@CA?AVDName@@XZ 004235e0 f i libvcruntimed:undname.obj
 0001:00022670       ?getValue@UnDecorator@@CA?AV?$optional@_K@std@@XZ 00423670 f   libvcruntimed:undname.obj
 0001:00022760       ?getValueObject@UnDecorator@@CA?AVDName@@XZ 00423760 f   libvcruntimed:undname.obj
 0001:000229b0       ?getVbTableType@UnDecorator@@CA?AVDName@@ABV2@@Z 004239b0 f i libvcruntimed:undname.obj
 0001:000229d0       ?getVdispMapType@UnDecorator@@CA?AVDName@@ABV2@@Z 004239d0 f i libvcruntimed:undname.obj
 0001:00022a80       ?getVfTableType@UnDecorator@@CA?AVDName@@ABV2@@Z 00423a80 f i libvcruntimed:undname.obj
 0001:00022d00       ?getZName@UnDecorator@@CA?AVDName@@_N0@Z 00423d00 f   libvcruntimed:undname.obj
 0001:00023110       ?haveTemplateParameters@UnDecorator@@SAHXZ 00424110 f i libvcruntimed:undname.obj
 0001:00023130       ?isArray@DName@@QBEHXZ     00424130 f i libvcruntimed:undname.obj
 0001:00023150       ?isComArray@DName@@QBEHXZ  00424150 f i libvcruntimed:undname.obj
 0001:00023170       ?isEmpty@DName@@QBEHXZ     00424170 f i libvcruntimed:undname.obj
 0001:000231b0       ?isFull@Replicator@@QBEHXZ 004241b0 f i libvcruntimed:undname.obj
 0001:000231f0       ?isNoTE@DName@@QBEHXZ      004241f0 f i libvcruntimed:undname.obj
 0001:00023210       ?isPinPtr@DName@@QBEHXZ    00424210 f i libvcruntimed:undname.obj
 0001:00023230       ?isPtrRef@DName@@QBEHXZ    00424230 f i libvcruntimed:undname.obj
 0001:00023250       ?isUDC@DName@@QBEHXZ       00424250 f i libvcruntimed:undname.obj
 0001:000232a0       ?isUDTThunk@DName@@QBEHXZ  004242a0 f i libvcruntimed:undname.obj
 0001:000232f0       ?isVCallThunk@DName@@QBEHXZ 004242f0 f i libvcruntimed:undname.obj
 0001:00023310       ?isValid@DName@@QBEHXZ     00424310 f i libvcruntimed:undname.obj
 0001:00023350       ?length@DName@@QBEHXZ      00424350 f i libvcruntimed:undname.obj
 0001:000233a0       ?length@DNameStatusNode@@UBEHXZ 004243a0 f i libvcruntimed:undname.obj
 0001:000233c0       ?length@charNode@@UBEHXZ   004243c0 f i libvcruntimed:undname.obj
 0001:000233e0       ?length@pDNameNode@@UBEHXZ 004243e0 f i libvcruntimed:undname.obj
 0001:00023420       ?length@pairNode@@UBEHXZ   00424420 f i libvcruntimed:undname.obj
 0001:000234b0       ?length@pcharNode@@UBEHXZ  004244b0 f i libvcruntimed:undname.obj
 0001:000234d0       ?make@DNameStatusNode@@SAPBV1@W4DNameStatus@@@Z 004244d0 f i libvcruntimed:undname.obj
 0001:00023510       ?parseDecoratedName@UnDecorator@@CA?AVDName@@XZ 00424510 f   libvcruntimed:undname.obj
 0001:00023700       ?raw_length@DNameStatusNode@@UBEHXZ 00424700 f i libvcruntimed:undname.obj
 0001:00023720       ?raw_length@charNode@@UBEHXZ 00424720 f i libvcruntimed:undname.obj
 0001:00023740       ?raw_length@pDNameNode@@UBEHXZ 00424740 f i libvcruntimed:undname.obj
 0001:00023760       ?raw_length@pairNode@@UBEHXZ 00424760 f i libvcruntimed:undname.obj
 0001:00023780       ?raw_length@pcharNode@@UBEHXZ 00424780 f i libvcruntimed:undname.obj
 0001:000237a0       ?setIsArray@DName@@QAEXXZ  004247a0 f i libvcruntimed:undname.obj
 0001:000237d0       ?setIsComArray@DName@@QAEXXZ 004247d0 f i libvcruntimed:undname.obj
 0001:00023800       ?setIsNoTE@DName@@QAEXXZ   00424800 f i libvcruntimed:undname.obj
 0001:00023830       ?setIsPinPtr@DName@@QAEXXZ 00424830 f i libvcruntimed:undname.obj
 0001:00023860       ?setIsUDC@DName@@QAEXXZ    00424860 f i libvcruntimed:undname.obj
 0001:000238a0       ?setIsVCallThunk@DName@@QAEXXZ 004248a0 f i libvcruntimed:undname.obj
 0001:000238d0       ?setPtrRef@DName@@QAEAAV1@XZ 004248d0 f i libvcruntimed:undname.obj
 0001:00023900       ?status@DName@@QBE?AW4DNameStatus@@XZ 00424900 f i libvcruntimed:undname.obj
 0001:00023a20       ___unDName                 00424a20 f   libvcruntimed:undname.obj
 0001:00023a60       ___unDNameEx               00424a60 f   libvcruntimed:undname.obj
 0001:00023b60       _unDNameGenerateCHPE       00424b60 f   libvcruntimed:undname.obj
 0001:00023be0       __global_unwind2           00424be0 f   libvcruntimed:exsup.obj
 0001:00023c70       __local_unwind2            00424c70 f   libvcruntimed:exsup.obj
 0001:00023d30       __abnormal_termination     00424d30 f   libvcruntimed:exsup.obj
 0001:00023d70       __NLG_Notify1              00424d70 f   libvcruntimed:exsup.obj
 0001:00023d80       __NLG_Notify               00424d80 f   libvcruntimed:exsup.obj
 0001:00023d97       __NLG_Dispatch2            00424d97     libvcruntimed:exsup.obj
 0001:00023d97       __NLG_Dispatch             00424d97     libvcruntimed:exsup.obj
 0001:00023db0       __NLG_Call                 00424db0 f   libvcruntimed:exsup.obj
 0001:00023db2       __NLG_Return2              00424db2     libvcruntimed:exsup.obj
 0001:00023dc0       ??$__crt_interlocked_exchange_pointer@UHINSTANCE__@@PAU1@@@YAPAUHINSTANCE__@@PDSAU0@QAU0@@Z 00424dc0 f i libvcruntimed:winapi_downlevel.obj
 0001:00023dd0       ??$__crt_interlocked_exchange_pointer@UHINSTANCE__@@PAX@@YAPAUHINSTANCE__@@PDSAU0@QAX@Z 00424dd0 f i libvcruntimed:winapi_downlevel.obj
 0001:00023de0       ??$__crt_interlocked_exchange_pointer@XPAX@@YAPAXPDSAXQAX@Z 00424de0 f i libvcruntimed:winapi_downlevel.obj
 0001:00023df0       ??$__crt_interlocked_read_pointer@UHINSTANCE__@@@@YAPAUHINSTANCE__@@PDSAU0@@Z 00424df0 f i libvcruntimed:winapi_downlevel.obj
 0001:00023e10       ??$__crt_interlocked_read_pointer@X@@YAPAXPDSAX@Z 00424e10 f i libvcruntimed:winapi_downlevel.obj
 0001:000242e0       ___vcrt_FlsAlloc           004252e0 f   libvcruntimed:winapi_downlevel.obj
 0001:00024330       ___vcrt_FlsFree            00425330 f   libvcruntimed:winapi_downlevel.obj
 0001:00024380       ___vcrt_FlsGetValue        00425380 f   libvcruntimed:winapi_downlevel.obj
 0001:000243d0       ___vcrt_FlsSetValue        004253d0 f   libvcruntimed:winapi_downlevel.obj
 0001:00024430       ___vcrt_InitializeCriticalSectionEx 00425430 f   libvcruntimed:winapi_downlevel.obj
 0001:00024490       ??$__crt_interlocked_exchange_pointer@$$A6AXXZP6AXXZ@@YAP6AXXZPDS6AXXZQ6AXXZ@Z 00425490 f i libvcruntimed:purevirt.obj
 0001:000244a0       ??$__crt_interlocked_read_pointer@$$A6AXXZ@@YAP6AXXZPDS6AXXZ@Z 004254a0 f i libvcruntimed:purevirt.obj
 0001:000244c0       __get_purecall_handler     004254c0 f   libvcruntimed:purevirt.obj
 0001:000244e0       __purecall                 004254e0 f   libvcruntimed:purevirt.obj
 0001:00024520       __set_purecall_handler     00425520 f   libvcruntimed:purevirt.obj
 0001:00024540       ??$?0AAViterator@TryBlockMap@__FrameHandler3@@AAV012@$0A@@?$pair@Viterator@TryBlockMap@__FrameHandler3@@V123@@std@@QAE@AAViterator@TryBlockMap@__FrameHandler3@@0@Z 00425540 f i libvcruntimed:trnsctrl.obj
 0001:000245a0       ??$forward@AAViterator@TryBlockMap@__FrameHandler3@@@std@@YAAAViterator@TryBlockMap@__FrameHandler3@@AAV123@@Z 004255a0 f i libvcruntimed:trnsctrl.obj
 0001:000245b0       ??0iterator@TryBlockMap@__FrameHandler3@@QAE@AAV12@I@Z 004255b0 f i libvcruntimed:trnsctrl.obj
 0001:000245e0       ?GetRangeOfTrysToCheck@__FrameHandler3@@SA?AU?$pair@Viterator@TryBlockMap@__FrameHandler3@@V123@@std@@AAVTryBlockMap@1@HPAXPBU_s_FuncInfo@@H@Z 004255e0 f   libvcruntimed:trnsctrl.obj
 0001:00024700       ?_CallCatchBlock2@@YAPAXPAUEHRegistrationNode@@PBU_s_FuncInfo@@PAXHK@Z 00425700 f   libvcruntimed:trnsctrl.obj
 0001:00024790       ?_CallSETranslator@@YAHPAUEHExceptionRecord@@PAUEHRegistrationNode@@PAX2PBU_s_FuncInfo@@H1@Z 00425790 f   libvcruntimed:trnsctrl.obj
 0001:000248f0       ?_JumpToContinuation@@YGXPAXPAUEHRegistrationNode@@@Z 004258f0 f   libvcruntimed:trnsctrl.obj
 0001:00024930       ?_UnwindNestedFrames@@YGXPAUEHRegistrationNode@@PAUEHExceptionRecord@@@Z 00425930 f   libvcruntimed:trnsctrl.obj
 0001:000249a0       __CatchGuardHandler        004259a0 f   libvcruntimed:trnsctrl.obj
 0001:00024a00       __CreateFrameInfo          00425a00 f   libvcruntimed:trnsctrl.obj
 0001:00024a40       __FindAndUnlinkFrame       00425a40 f   libvcruntimed:trnsctrl.obj
 0001:00024ad0       __TranslatorGuardHandler   00425ad0 f   libvcruntimed:trnsctrl.obj
 0001:00024bb0       ___CxxFrameHandler         00425bb0 f   libvcruntimed:trnsctrl.obj
 0001:00024c00       ___CxxFrameHandler2        00425c00 f   libvcruntimed:trnsctrl.obj
 0001:00024c50       ___CxxFrameHandler3        00425c50 f   libvcruntimed:trnsctrl.obj
 0001:00024ca0       ___CxxLongjmpUnwind@4      00425ca0 f   libvcruntimed:trnsctrl.obj
 0001:00025b10       ??$TypeMatchHelper@V__FrameHandler3@@@@YAHPBU_s_HandlerType@@PBU_s_CatchableType@@PBU_s_ThrowInfo@@@Z 00426b10 f i libvcruntimed:frame.obj
 0001:00025c20       ??$__InternalCxxFrameHandler@V__FrameHandler3@@@@YA?AW4_EXCEPTION_DISPOSITION@@PAUEHExceptionRecord@@PAUEHRegistrationNode@@PAU_CONTEXT@@PAXPBU_s_FuncInfo@@H1E@Z 00426c20 f i libvcruntimed:frame.obj
 0001:00025e50       ??0HandlerMap@__FrameHandler3@@QAE@PBU_s_TryBlockMapEntry@@II@Z 00426e50 f i libvcruntimed:frame.obj
 0001:00025e80       ??0TryBlockMap@__FrameHandler3@@QAE@PBU_s_FuncInfo@@I@Z 00426e80 f i libvcruntimed:frame.obj
 0001:00025eb0       ??0bad_exception@std@@QAE@ABV01@@Z 00426eb0 f i libvcruntimed:frame.obj
 0001:00025ee0       ??0bad_exception@std@@QAE@XZ 00426ee0 f i libvcruntimed:frame.obj
 0001:00025f10       ??0iterator@HandlerMap@__FrameHandler3@@QAE@AAV12@I@Z 00426f10 f i libvcruntimed:frame.obj
 0001:00025f40       ??1bad_exception@std@@UAE@XZ 00426f40 f i libvcruntimed:frame.obj
 0001:00025f60       ??8iterator@HandlerMap@__FrameHandler3@@QBE_NABV012@@Z 00426f60 f i libvcruntimed:frame.obj
 0001:00025fa0       ??8type_info@@QBE_NABV0@@Z 00426fa0 f i libvcruntimed:frame.obj
 0001:00025ff0       ??9iterator@HandlerMap@__FrameHandler3@@QBE_NABV012@@Z 00426ff0 f i libvcruntimed:frame.obj
 0001:00026040       ??Diterator@HandlerMap@__FrameHandler3@@QAE?BU_s_HandlerType@@XZ 00427040 f i libvcruntimed:frame.obj
 0001:00026090       ??Diterator@TryBlockMap@__FrameHandler3@@QAE?BU_s_TryBlockMapEntry@@XZ 00427090 f i libvcruntimed:frame.obj
 0001:000260f0       ??Eiterator@HandlerMap@__FrameHandler3@@QAEAAV012@XZ 004270f0 f i libvcruntimed:frame.obj
 0001:00026120       ??Eiterator@TryBlockMap@__FrameHandler3@@QAEAAV012@XZ 00427120 f i libvcruntimed:frame.obj
 0001:00026150       ??Miterator@TryBlockMap@__FrameHandler3@@QBE_NABV012@@Z 00427150 f i libvcruntimed:frame.obj
 0001:00026190       ??_Ebad_exception@std@@UAEPAXI@Z 00427190 f i libvcruntimed:frame.obj
 0001:00026190       ??_Gbad_exception@std@@UAEPAXI@Z 00427190 f i libvcruntimed:frame.obj
 0001:000261d0       ?BuildCatchObject@__FrameHandler3@@SAXPAUEHExceptionRecord@@PAXPBU_s_HandlerType@@PBU_s_CatchableType@@@Z 004271d0 f   libvcruntimed:frame.obj
 0001:00026200       ?BuildCatchObjectHelper@__FrameHandler3@@SAHPAUEHExceptionRecord@@PAXPBU_s_HandlerType@@PBU_s_CatchableType@@@Z 00427200 f   libvcruntimed:frame.obj
 0001:00026680       ?FrameUnwindToEmptyState@__FrameHandler3@@SAXPAUEHRegistrationNode@@PAXPBU_s_FuncInfo@@@Z 00427680 f   libvcruntimed:frame.obj
 0001:000266b0       ?FrameUnwindToState@__FrameHandler3@@SAXPAUEHRegistrationNode@@PAXPBU_s_FuncInfo@@H@Z 004276b0 f   libvcruntimed:frame.obj
 0001:00026890       ?GetMaxState@__FrameHandler3@@SAHPAXPBU_s_FuncInfo@@@Z 00427890 f i libvcruntimed:frame.obj
 0001:000269e0       ?TypeMatch@__FrameHandler3@@SAHPBU_s_HandlerType@@PBU_s_CatchableType@@PBU_s_ThrowInfo@@@Z 004279e0 f   libvcruntimed:frame.obj
 0001:00026a00       ?_CallMemberFunction1@@YGXQAX00@Z 00427a00 f i libvcruntimed:frame.obj
 0001:00026a30       ?_CallMemberFunction2@@YGXQAX00H@Z 00427a30 f i libvcruntimed:frame.obj
 0001:00026a60       ?begin@HandlerMap@__FrameHandler3@@QAE?AViterator@12@XZ 00427a60 f i libvcruntimed:frame.obj
 0001:00026a90       ?end@HandlerMap@__FrameHandler3@@QAE?AViterator@12@XZ 00427a90 f i libvcruntimed:frame.obj
 0001:00026ac0       ?getESTypes@__FrameHandler3@@SAPBU_s_ESTypeList@@PBU_s_FuncInfo@@@Z 00427ac0 f i libvcruntimed:frame.obj
 0001:00026ad0       ?getLastEntry@HandlerMap@__FrameHandler3@@QAEPBU_s_HandlerType@@XZ 00427ad0 f i libvcruntimed:frame.obj
 0001:00026b00       ?getMagicNum@__FrameHandler3@@SAIPBU_s_FuncInfo@@@Z 00427b00 f i libvcruntimed:frame.obj
 0001:00026b20       ?getNumTryBlocks@TryBlockMap@__FrameHandler3@@QAEIXZ 00427b20 f i libvcruntimed:frame.obj
 0001:00026b40       ?isEHs@__FrameHandler3@@SA_NPBU_s_FuncInfo@@@Z 00427b40 f i libvcruntimed:frame.obj
 0001:00026b70       ?isNoExcept@__FrameHandler3@@SA_NPBU_s_FuncInfo@@@Z 00427b70 f i libvcruntimed:frame.obj
 0001:00026ba0       ___BuildCatchObject        00427ba0 f   libvcruntimed:frame.obj
 0001:00026bd0       ___BuildCatchObjectHelper  00427bd0 f   libvcruntimed:frame.obj
 0001:00026c00       ___TypeMatch               00427c00 f   libvcruntimed:frame.obj
 0001:00026c20       ___vcrt_EncodePointer      00427c20 f i libvcruntimed:frame.obj
 0001:00026c40       __CallSettingFrame@12      00427c40 f   libvcruntimed:lowhelpr.obj
 0001:00026c67       __NLG_Return               00427c67     libvcruntimed:lowhelpr.obj
 0001:00026cd0       __get_unexpected           00427cd0 f   libvcruntimed:unexpected.obj
 0001:00026cf0       _set_unexpected            00427cf0 f   libvcruntimed:unexpected.obj
 0001:00026d30       _unexpected                00427d30 f   libvcruntimed:unexpected.obj
 0001:00026d70       _memmove                   00427d70 f   libvcruntimed:memmove.obj
 0001:00027450       ?GetCurrentState@__FrameHandler3@@SAHPAUEHRegistrationNode@@PAXPBU_s_FuncInfo@@@Z 00428450 f   libvcruntimed:ehstate.obj
 0001:00027490       ?SetState@__FrameHandler3@@SAXPAUEHRegistrationNode@@PBU_s_FuncInfo@@H@Z 00428490 f   libvcruntimed:ehstate.obj
 0001:000274b0       __abs64                    004284b0 f   libucrtd:abs.obj
 0001:00027510       _abs                       00428510 f   libucrtd:abs.obj
 0001:00027540       ??$?RPAU__crt_stdio_stream_data@@@__crt_internal_free_policy@@QBEXQBQAU__crt_stdio_stream_data@@@Z 00428540 f i libucrtd:_file.obj
 0001:00027570       ??0?$__crt_unique_heap_ptr@PAU__crt_stdio_stream_data@@U__crt_internal_free_policy@@@@QAE@QAPAU__crt_stdio_stream_data@@@Z 00428570 f i libucrtd:_file.obj
 0001:00027590       ??0__crt_stdio_stream@@QAE@QAU_iobuf@@@Z 00428590 f i libucrtd:_file.obj
 0001:000275b0       ??1?$__crt_unique_heap_ptr@PAU__crt_stdio_stream_data@@U__crt_internal_free_policy@@@@QAE@XZ 004285b0 f i libucrtd:_file.obj
 0001:000275d0       ??C__crt_stdio_stream@@QBEPAU__crt_stdio_stream_data@@XZ 004285d0 f i libucrtd:_file.obj
 0001:000275f0       ?detach@?$__crt_unique_heap_ptr@PAU__crt_stdio_stream_data@@U__crt_internal_free_policy@@@@QAEPAPAU__crt_stdio_stream_data@@XZ 004285f0 f i libucrtd:_file.obj
 0001:00027620       ?release@?$__crt_unique_heap_ptr@PAU__crt_stdio_stream_data@@U__crt_internal_free_policy@@@@QAEXXZ 00428620 f i libucrtd:_file.obj
 0001:00027650       ___acrt_initialize_stdio   00428650 f   libucrtd:_file.obj
 0001:00027820       ___acrt_iob_func           00428820 f   libucrtd:_file.obj
 0001:00027840       ___acrt_uninitialize_stdio 00428840 f   libucrtd:_file.obj
 0001:000278e0       __get_stream_buffer_pointers 004288e0 f   libucrtd:_file.obj
 0001:000279f0       __lock_file                004289f0 f   libucrtd:_file.obj
 0001:00027a20       __unlock_file              00428a20 f   libucrtd:_file.obj
 0001:00027a50       ??$__crt_interlocked_read@J@@YAJPDJ@Z 00428a50 f i libucrtd:fclose.obj
 0001:00027a70       ?get_flags@__crt_stdio_stream@@QBEJXZ 00428a70 f i libucrtd:fclose.obj
 0001:00027aa0       ?is_in_use@__crt_stdio_stream@@QBE_NXZ 00428aa0 f i libucrtd:fclose.obj
 0001:00027ae0       ?is_string_backed@__crt_stdio_stream@@QBE_NXZ 00428ae0 f i libucrtd:fclose.obj
 0001:00027b20       ?public_stream@__crt_stdio_stream@@QBEPAU_iobuf@@XZ 00428b20 f i libucrtd:fclose.obj
 0001:00027b40       ?valid@__crt_stdio_stream@@QBE_NXZ 00428b40 f i libucrtd:fclose.obj
 0001:00027b80       __fclose_nolock            00428b80 f   libucrtd:fclose.obj
 0001:00027d10       _fclose                    00428d10 f   libucrtd:fclose.obj
 0001:00028650       ??$open_file@ABQBDABQBDABHPAU_iobuf@@@?$__crt_char_traits@D@@SAPAU_iobuf@@ABQBD0ABH$$QAPAU1@@Z 00429650 f i libucrtd:fopen.obj
 0001:00028680       ??$open_file@ABQB_WABQB_WABHPAU_iobuf@@@?$__crt_char_traits@_W@@SAPAU_iobuf@@ABQB_W0ABH$$QAPAU1@@Z 00429680 f i libucrtd:fopen.obj
 0001:000286b0       ?unlock@__crt_stdio_stream@@QBEXXZ 004296b0 f i libucrtd:fopen.obj
 0001:000286e0       __fsopen                   004296e0 f   libucrtd:fopen.obj
 0001:00028710       __wfopen                   00429710 f   libucrtd:fopen.obj
 0001:00028730       __wfopen_s                 00429730 f   libucrtd:fopen.obj
 0001:00028760       __wfsopen                  00429760 f   libucrtd:fopen.obj
 0001:00028790       _fopen                     00429790 f   libucrtd:fopen.obj
 0001:000287b0       _fopen_s                   004297b0 f   libucrtd:fopen.obj
 0001:000287e0       ?__acrt_stdio_reset_buffer@@YAXV__crt_stdio_stream@@@Z 004297e0 f i libucrtd:fread.obj
 0001:00028820       ?has_any_buffer@__crt_stdio_stream@@QBE_NXZ 00429820 f i libucrtd:fread.obj
 0001:00028840       ?has_any_of@__crt_stdio_stream@@QBE_NJ@Z 00429840 f i libucrtd:fread.obj
 0001:00028880       ?set_flags@__crt_stdio_stream@@QBE_NJ@Z 00429880 f i libucrtd:fread.obj
 0001:000288e0       __fread_nolock             004298e0 f   libucrtd:fread.obj
 0001:00028910       __fread_nolock_s           00429910 f   libucrtd:fread.obj
 0001:00029130       _fread                     0042a130 f   libucrtd:fread.obj
 0001:00029160       _fread_s                   0042a160 f   libucrtd:fread.obj
 0001:00029450       ??$?0ABV?$stream_output_adapter@D@__crt_stdio_output@@AB_KABQBDABQAU__crt_locale_pointers@@ABQAD@?$format_validation_base@DV?$stream_output_adapter@D@__crt_stdio_output@@@__crt_stdio_output@@IAE@ABV?$stream_output_adapter@D@1@AB_KABQBDABQAU__crt_locale_pointers@@ABQAD@Z 0042a450 f i libucrtd:output.obj
 0001:00029490       ??$?0ABV?$stream_output_adapter@D@__crt_stdio_output@@AB_KABQBDABQAU__crt_locale_pointers@@ABQAD@?$positional_parameter_base@DV?$stream_output_adapter@D@__crt_stdio_output@@@__crt_stdio_output@@IAE@ABV?$stream_output_adapter@D@1@AB_KABQBDABQAU__crt_locale_pointers@@ABQAD@Z 0042a490 f i libucrtd:output.obj
 0001:00029520       ??$?0ABV?$stream_output_adapter@D@__crt_stdio_output@@AB_KABQBDABQAU__crt_locale_pointers@@ABQAD@?$standard_base@DV?$stream_output_adapter@D@__crt_stdio_output@@@__crt_stdio_output@@IAE@ABV?$stream_output_adapter@D@1@AB_KABQBDABQAU__crt_locale_pointers@@ABQAD@Z 0042a520 f i libucrtd:output.obj
 0001:00029580       ??$?0ABV?$stream_output_adapter@_W@__crt_stdio_output@@AB_KABQB_WABQAU__crt_locale_pointers@@ABQAD@?$format_validation_base@_WV?$stream_output_adapter@_W@__crt_stdio_output@@@__crt_stdio_output@@IAE@ABV?$stream_output_adapter@_W@1@AB_KABQB_WABQAU__crt_locale_pointers@@ABQAD@Z 0042a580 f i libucrtd:output.obj
 0001:000295c0       ??$?0ABV?$stream_output_adapter@_W@__crt_stdio_output@@AB_KABQB_WABQAU__crt_locale_pointers@@ABQAD@?$positional_parameter_base@_WV?$stream_output_adapter@_W@__crt_stdio_output@@@__crt_stdio_output@@IAE@ABV?$stream_output_adapter@_W@1@AB_KABQB_WABQAU__crt_locale_pointers@@ABQAD@Z 0042a5c0 f i libucrtd:output.obj
 0001:00029650       ??$?0ABV?$stream_output_adapter@_W@__crt_stdio_output@@AB_KABQB_WABQAU__crt_locale_pointers@@ABQAD@?$standard_base@_WV?$stream_output_adapter@_W@__crt_stdio_output@@@__crt_stdio_output@@IAE@ABV?$stream_output_adapter@_W@1@AB_KABQB_WABQAU__crt_locale_pointers@@ABQAD@Z 0042a650 f i libucrtd:output.obj
 0001:000296b0       ??$?0ABV?$string_output_adapter@D@__crt_stdio_output@@AB_KABQBDABQAU__crt_locale_pointers@@ABQAD@?$format_validation_base@DV?$string_output_adapter@D@__crt_stdio_output@@@__crt_stdio_output@@IAE@ABV?$string_output_adapter@D@1@AB_KABQBDABQAU__crt_locale_pointers@@ABQAD@Z 0042a6b0 f i libucrtd:output.obj
 0001:000296f0       ??$?0ABV?$string_output_adapter@D@__crt_stdio_output@@AB_KABQBDABQAU__crt_locale_pointers@@ABQAD@?$positional_parameter_base@DV?$string_output_adapter@D@__crt_stdio_output@@@__crt_stdio_output@@IAE@ABV?$string_output_adapter@D@1@AB_KABQBDABQAU__crt_locale_pointers@@ABQAD@Z 0042a6f0 f i libucrtd:output.obj
 0001:00029780       ??$?0ABV?$string_output_adapter@D@__crt_stdio_output@@AB_KABQBDABQAU__crt_locale_pointers@@ABQAD@?$standard_base@DV?$string_output_adapter@D@__crt_stdio_output@@@__crt_stdio_output@@IAE@ABV?$string_output_adapter@D@1@AB_KABQBDABQAU__crt_locale_pointers@@ABQAD@Z 0042a780 f i libucrtd:output.obj
 0001:000297e0       ??$?0ABV?$string_output_adapter@_W@__crt_stdio_output@@AB_KABQB_WABQAU__crt_locale_pointers@@ABQAD@?$format_validation_base@_WV?$string_output_adapter@_W@__crt_stdio_output@@@__crt_stdio_output@@IAE@ABV?$string_output_adapter@_W@1@AB_KABQB_WABQAU__crt_locale_pointers@@ABQAD@Z 0042a7e0 f i libucrtd:output.obj
 0001:00029820       ??$?0ABV?$string_output_adapter@_W@__crt_stdio_output@@AB_KABQB_WABQAU__crt_locale_pointers@@ABQAD@?$positional_parameter_base@_WV?$string_output_adapter@_W@__crt_stdio_output@@@__crt_stdio_output@@IAE@ABV?$string_output_adapter@_W@1@AB_KABQB_WABQAU__crt_locale_pointers@@ABQAD@Z 0042a820 f i libucrtd:output.obj
 0001:000298b0       ??$?0ABV?$string_output_adapter@_W@__crt_stdio_output@@AB_KABQB_WABQAU__crt_locale_pointers@@ABQAD@?$standard_base@_WV?$string_output_adapter@_W@__crt_stdio_output@@@__crt_stdio_output@@IAE@ABV?$string_output_adapter@_W@1@AB_KABQB_WABQAU__crt_locale_pointers@@ABQAD@Z 0042a8b0 f i libucrtd:output.obj
 0001:0002d730       ??$count@D@formatting_buffer@__crt_stdio_output@@QBEIXZ 0042e730 f i libucrtd:output.obj
 0001:0002d780       ??$count@_W@formatting_buffer@__crt_stdio_output@@QBEIXZ 0042e780 f i libucrtd:output.obj
 0001:0002d7d0       ??$data@D@formatting_buffer@__crt_stdio_output@@QAEPADXZ 0042e7d0 f i libucrtd:output.obj
 0001:0002d820       ??$data@_W@formatting_buffer@__crt_stdio_output@@QAEPA_WXZ 0042e820 f i libucrtd:output.obj
 0001:0002d870       ??$ensure_buffer_is_big_enough@D@formatting_buffer@__crt_stdio_output@@QAE_NI@Z 0042e870 f i libucrtd:output.obj
 0001:0002d990       ??$ensure_buffer_is_big_enough@_W@formatting_buffer@__crt_stdio_output@@QAE_NI@Z 0042e990 f i libucrtd:output.obj
 0001:0002dab0       ??$extract_argument_from_va_list@C_J@?$positional_parameter_base@DV?$stream_output_adapter@D@__crt_stdio_output@@@__crt_stdio_output@@IAE_NAA_J@Z 0042eab0 f i libucrtd:output.obj
 0001:0002dc30       ??$extract_argument_from_va_list@C_J@?$positional_parameter_base@DV?$string_output_adapter@D@__crt_stdio_output@@@__crt_stdio_output@@IAE_NAA_J@Z 0042ec30 f i libucrtd:output.obj
 0001:0002ddb0       ??$extract_argument_from_va_list@C_J@?$positional_parameter_base@_WV?$stream_output_adapter@_W@__crt_stdio_output@@@__crt_stdio_output@@IAE_NAA_J@Z 0042edb0 f i libucrtd:output.obj
 0001:0002df30       ??$extract_argument_from_va_list@C_J@?$positional_parameter_base@_WV?$string_output_adapter@_W@__crt_stdio_output@@@__crt_stdio_output@@IAE_NAA_J@Z 0042ef30 f i libucrtd:output.obj
 0001:0002e0b0       ??$extract_argument_from_va_list@C_J@?$standard_base@DV?$stream_output_adapter@D@__crt_stdio_output@@@__crt_stdio_output@@IAE_NAA_J@Z 0042f0b0 f i libucrtd:output.obj
 0001:0002e0f0       ??$extract_argument_from_va_list@C_J@?$standard_base@DV?$string_output_adapter@D@__crt_stdio_output@@@__crt_stdio_output@@IAE_NAA_J@Z 0042f0f0 f i libucrtd:output.obj
 0001:0002e130       ??$extract_argument_from_va_list@C_J@?$standard_base@_WV?$stream_output_adapter@_W@__crt_stdio_output@@@__crt_stdio_output@@IAE_NAA_J@Z 0042f130 f i libucrtd:output.obj
 0001:0002e170       ??$extract_argument_from_va_list@C_J@?$standard_base@_WV?$string_output_adapter@_W@__crt_stdio_output@@@__crt_stdio_output@@IAE_NAA_J@Z 0042f170 f i libucrtd:output.obj
 0001:0002e1b0       ??$extract_argument_from_va_list@E_J@?$positional_parameter_base@DV?$stream_output_adapter@D@__crt_stdio_output@@@__crt_stdio_output@@IAE_NAA_J@Z 0042f1b0 f i libucrtd:output.obj
 0001:0002e330       ??$extract_argument_from_va_list@E_J@?$positional_parameter_base@DV?$string_output_adapter@D@__crt_stdio_output@@@__crt_stdio_output@@IAE_NAA_J@Z 0042f330 f i libucrtd:output.obj
 0001:0002e4b0       ??$extract_argument_from_va_list@E_J@?$positional_parameter_base@_WV?$stream_output_adapter@_W@__crt_stdio_output@@@__crt_stdio_output@@IAE_NAA_J@Z 0042f4b0 f i libucrtd:output.obj
 0001:0002e630       ??$extract_argument_from_va_list@E_J@?$positional_parameter_base@_WV?$string_output_adapter@_W@__crt_stdio_output@@@__crt_stdio_output@@IAE_NAA_J@Z 0042f630 f i libucrtd:output.obj
 0001:0002e7b0       ??$extract_argument_from_va_list@E_J@?$standard_base@DV?$stream_output_adapter@D@__crt_stdio_output@@@__crt_stdio_output@@IAE_NAA_J@Z 0042f7b0 f i libucrtd:output.obj
 0001:0002e7f0       ??$extract_argument_from_va_list@E_J@?$standard_base@DV?$string_output_adapter@D@__crt_stdio_output@@@__crt_stdio_output@@IAE_NAA_J@Z 0042f7f0 f i libucrtd:output.obj
 0001:0002e830       ??$extract_argument_from_va_list@E_J@?$standard_base@_WV?$stream_output_adapter@_W@__crt_stdio_output@@@__crt_stdio_output@@IAE_NAA_J@Z 0042f830 f i libucrtd:output.obj
 0001:0002e870       ??$extract_argument_from_va_list@E_J@?$standard_base@_WV?$string_output_adapter@_W@__crt_stdio_output@@@__crt_stdio_output@@IAE_NAA_J@Z 0042f870 f i libucrtd:output.obj
 0001:0002e8b0       ??$extract_argument_from_va_list@F_J@?$positional_parameter_base@DV?$stream_output_adapter@D@__crt_stdio_output@@@__crt_stdio_output@@IAE_NAA_J@Z 0042f8b0 f i libucrtd:output.obj
 0001:0002ea30       ??$extract_argument_from_va_list@F_J@?$positional_parameter_base@DV?$string_output_adapter@D@__crt_stdio_output@@@__crt_stdio_output@@IAE_NAA_J@Z 0042fa30 f i libucrtd:output.obj
 0001:0002ebb0       ??$extract_argument_from_va_list@F_J@?$positional_parameter_base@_WV?$stream_output_adapter@_W@__crt_stdio_output@@@__crt_stdio_output@@IAE_NAA_J@Z 0042fbb0 f i libucrtd:output.obj
 0001:0002ed30       ??$extract_argument_from_va_list@F_J@?$positional_parameter_base@_WV?$string_output_adapter@_W@__crt_stdio_output@@@__crt_stdio_output@@IAE_NAA_J@Z 0042fd30 f i libucrtd:output.obj
 0001:0002eeb0       ??$extract_argument_from_va_list@F_J@?$standard_base@DV?$stream_output_adapter@D@__crt_stdio_output@@@__crt_stdio_output@@IAE_NAA_J@Z 0042feb0 f i libucrtd:output.obj
 0001:0002eef0       ??$extract_argument_from_va_list@F_J@?$standard_base@DV?$string_output_adapter@D@__crt_stdio_output@@@__crt_stdio_output@@IAE_NAA_J@Z 0042fef0 f i libucrtd:output.obj
 0001:0002ef30       ??$extract_argument_from_va_list@F_J@?$standard_base@_WV?$stream_output_adapter@_W@__crt_stdio_output@@@__crt_stdio_output@@IAE_NAA_J@Z 0042ff30 f i libucrtd:output.obj
 0001:0002ef70       ??$extract_argument_from_va_list@F_J@?$standard_base@_WV?$string_output_adapter@_W@__crt_stdio_output@@@__crt_stdio_output@@IAE_NAA_J@Z 0042ff70 f i libucrtd:output.obj
 0001:0002efb0       ??$extract_argument_from_va_list@GD@?$positional_parameter_base@DV?$stream_output_adapter@D@__crt_stdio_output@@@__crt_stdio_output@@IAE_NAAD@Z 0042ffb0 f i libucrtd:output.obj
 0001:0002f130       ??$extract_argument_from_va_list@GD@?$positional_parameter_base@DV?$string_output_adapter@D@__crt_stdio_output@@@__crt_stdio_output@@IAE_NAAD@Z 00430130 f i libucrtd:output.obj
 0001:0002f2b0       ??$extract_argument_from_va_list@GD@?$standard_base@DV?$stream_output_adapter@D@__crt_stdio_output@@@__crt_stdio_output@@IAE_NAAD@Z 004302b0 f i libucrtd:output.obj
 0001:0002f2e0       ??$extract_argument_from_va_list@GD@?$standard_base@DV?$string_output_adapter@D@__crt_stdio_output@@@__crt_stdio_output@@IAE_NAAD@Z 004302e0 f i libucrtd:output.obj
 0001:0002f310       ??$extract_argument_from_va_list@G_J@?$positional_parameter_base@DV?$stream_output_adapter@D@__crt_stdio_output@@@__crt_stdio_output@@IAE_NAA_J@Z 00430310 f i libucrtd:output.obj
 0001:0002f490       ??$extract_argument_from_va_list@G_J@?$positional_parameter_base@DV?$string_output_adapter@D@__crt_stdio_output@@@__crt_stdio_output@@IAE_NAA_J@Z 00430490 f i libucrtd:output.obj
 0001:0002f610       ??$extract_argument_from_va_list@G_J@?$positional_parameter_base@_WV?$stream_output_adapter@_W@__crt_stdio_output@@@__crt_stdio_output@@IAE_NAA_J@Z 00430610 f i libucrtd:output.obj
 0001:0002f790       ??$extract_argument_from_va_list@G_J@?$positional_parameter_base@_WV?$string_output_adapter@_W@__crt_stdio_output@@@__crt_stdio_output@@IAE_NAA_J@Z 00430790 f i libucrtd:output.obj
 0001:0002f910       ??$extract_argument_from_va_list@G_J@?$standard_base@DV?$stream_output_adapter@D@__crt_stdio_output@@@__crt_stdio_output@@IAE_NAA_J@Z 00430910 f i libucrtd:output.obj
 0001:0002f950       ??$extract_argument_from_va_list@G_J@?$standard_base@DV?$string_output_adapter@D@__crt_stdio_output@@@__crt_stdio_output@@IAE_NAA_J@Z 00430950 f i libucrtd:output.obj
 0001:0002f990       ??$extract_argument_from_va_list@G_J@?$standard_base@_WV?$stream_output_adapter@_W@__crt_stdio_output@@@__crt_stdio_output@@IAE_NAA_J@Z 00430990 f i libucrtd:output.obj
 0001:0002f9d0       ??$extract_argument_from_va_list@G_J@?$standard_base@_WV?$string_output_adapter@_W@__crt_stdio_output@@@__crt_stdio_output@@IAE_NAA_J@Z 004309d0 f i libucrtd:output.obj
 0001:0002fa10       ??$extract_argument_from_va_list@H_J@?$positional_parameter_base@DV?$stream_output_adapter@D@__crt_stdio_output@@@__crt_stdio_output@@IAE_NAA_J@Z 00430a10 f i libucrtd:output.obj
 0001:0002fb90       ??$extract_argument_from_va_list@H_J@?$positional_parameter_base@DV?$string_output_adapter@D@__crt_stdio_output@@@__crt_stdio_output@@IAE_NAA_J@Z 00430b90 f i libucrtd:output.obj
 0001:0002fd10       ??$extract_argument_from_va_list@H_J@?$positional_parameter_base@_WV?$stream_output_adapter@_W@__crt_stdio_output@@@__crt_stdio_output@@IAE_NAA_J@Z 00430d10 f i libucrtd:output.obj
 0001:0002fe90       ??$extract_argument_from_va_list@H_J@?$positional_parameter_base@_WV?$string_output_adapter@_W@__crt_stdio_output@@@__crt_stdio_output@@IAE_NAA_J@Z 00430e90 f i libucrtd:output.obj
 0001:00030010       ??$extract_argument_from_va_list@H_J@?$standard_base@DV?$stream_output_adapter@D@__crt_stdio_output@@@__crt_stdio_output@@IAE_NAA_J@Z 00431010 f i libucrtd:output.obj
 0001:00030050       ??$extract_argument_from_va_list@H_J@?$standard_base@DV?$string_output_adapter@D@__crt_stdio_output@@@__crt_stdio_output@@IAE_NAA_J@Z 00431050 f i libucrtd:output.obj
 0001:00030090       ??$extract_argument_from_va_list@H_J@?$standard_base@_WV?$stream_output_adapter@_W@__crt_stdio_output@@@__crt_stdio_output@@IAE_NAA_J@Z 00431090 f i libucrtd:output.obj
 0001:000300d0       ??$extract_argument_from_va_list@H_J@?$standard_base@_WV?$string_output_adapter@_W@__crt_stdio_output@@@__crt_stdio_output@@IAE_NAA_J@Z 004310d0 f i libucrtd:output.obj
 0001:00030110       ??$extract_argument_from_va_list@I_J@?$positional_parameter_base@DV?$stream_output_adapter@D@__crt_stdio_output@@@__crt_stdio_output@@IAE_NAA_J@Z 00431110 f i libucrtd:output.obj
 0001:00030290       ??$extract_argument_from_va_list@I_J@?$positional_parameter_base@DV?$string_output_adapter@D@__crt_stdio_output@@@__crt_stdio_output@@IAE_NAA_J@Z 00431290 f i libucrtd:output.obj
 0001:00030410       ??$extract_argument_from_va_list@I_J@?$positional_parameter_base@_WV?$stream_output_adapter@_W@__crt_stdio_output@@@__crt_stdio_output@@IAE_NAA_J@Z 00431410 f i libucrtd:output.obj
 0001:00030590       ??$extract_argument_from_va_list@I_J@?$positional_parameter_base@_WV?$string_output_adapter@_W@__crt_stdio_output@@@__crt_stdio_output@@IAE_NAA_J@Z 00431590 f i libucrtd:output.obj
 0001:00030710       ??$extract_argument_from_va_list@I_J@?$standard_base@DV?$stream_output_adapter@D@__crt_stdio_output@@@__crt_stdio_output@@IAE_NAA_J@Z 00431710 f i libucrtd:output.obj
 0001:00030750       ??$extract_argument_from_va_list@I_J@?$standard_base@DV?$string_output_adapter@D@__crt_stdio_output@@@__crt_stdio_output@@IAE_NAA_J@Z 00431750 f i libucrtd:output.obj
 0001:00030790       ??$extract_argument_from_va_list@I_J@?$standard_base@_WV?$stream_output_adapter@_W@__crt_stdio_output@@@__crt_stdio_output@@IAE_NAA_J@Z 00431790 f i libucrtd:output.obj
 0001:000307d0       ??$extract_argument_from_va_list@I_J@?$standard_base@_WV?$string_output_adapter@_W@__crt_stdio_output@@@__crt_stdio_output@@IAE_NAA_J@Z 004317d0 f i libucrtd:output.obj
 0001:00030810       ??$extract_argument_from_va_list@PADPAD@?$positional_parameter_base@DV?$stream_output_adapter@D@__crt_stdio_output@@@__crt_stdio_output@@IAE_NAAPAD@Z 00431810 f i libucrtd:output.obj
 0001:00030990       ??$extract_argument_from_va_list@PADPAD@?$positional_parameter_base@DV?$string_output_adapter@D@__crt_stdio_output@@@__crt_stdio_output@@IAE_NAAPAD@Z 00431990 f i libucrtd:output.obj
 0001:00030b10       ??$extract_argument_from_va_list@PADPAD@?$positional_parameter_base@_WV?$stream_output_adapter@_W@__crt_stdio_output@@@__crt_stdio_output@@IAE_NAAPAD@Z 00431b10 f i libucrtd:output.obj
 0001:00030c90       ??$extract_argument_from_va_list@PADPAD@?$positional_parameter_base@_WV?$string_output_adapter@_W@__crt_stdio_output@@@__crt_stdio_output@@IAE_NAAPAD@Z 00431c90 f i libucrtd:output.obj
 0001:00030e10       ??$extract_argument_from_va_list@PADPAD@?$standard_base@DV?$stream_output_adapter@D@__crt_stdio_output@@@__crt_stdio_output@@IAE_NAAPAD@Z 00431e10 f i libucrtd:output.obj
 0001:00030e40       ??$extract_argument_from_va_list@PADPAD@?$standard_base@DV?$string_output_adapter@D@__crt_stdio_output@@@__crt_stdio_output@@IAE_NAAPAD@Z 00431e40 f i libucrtd:output.obj
 0001:00030e70       ??$extract_argument_from_va_list@PADPAD@?$standard_base@_WV?$stream_output_adapter@_W@__crt_stdio_output@@@__crt_stdio_output@@IAE_NAAPAD@Z 00431e70 f i libucrtd:output.obj
 0001:00030ea0       ??$extract_argument_from_va_list@PADPAD@?$standard_base@_WV?$string_output_adapter@_W@__crt_stdio_output@@@__crt_stdio_output@@IAE_NAAPAD@Z 00431ea0 f i libucrtd:output.obj
 0001:00030ed0       ??$extract_argument_from_va_list@PAUansi_string@?1??type_case_Z@?$output_processor@DV?$stream_output_adapter@D@__crt_stdio_output@@V?$format_validation_base@DV?$stream_output_adapter@D@__crt_stdio_output@@@2@@__crt_stdio_output@@AAE_NXZ@PAU1?1??234@AAE_NXZ@@?$standard_base@DV?$stream_output_adapter@D@__crt_stdio_output@@@__crt_stdio_output@@IAE_NAAPAUansi_string@?1??type_case_Z@?$output_processor@DV?$stream_output_adapter@D@__crt_stdio_output@@V?$format_validation_base@DV?$stream_output_adapter@D@__crt_stdio_output@@@2@@1@AAE_NXZ@@Z 00431ed0 f i libucrtd:output.obj
 0001:00030f00       ??$extract_argument_from_va_list@PAUansi_string@?1??type_case_Z@?$output_processor@DV?$stream_output_adapter@D@__crt_stdio_output@@V?$positional_parameter_base@DV?$stream_output_adapter@D@__crt_stdio_output@@@2@@__crt_stdio_output@@AAE_NXZ@PAU1?1??234@AAE_NXZ@@?$positional_parameter_base@DV?$stream_output_adapter@D@__crt_stdio_output@@@__crt_stdio_output@@IAE_NAAPAUansi_string@?1??type_case_Z@?$output_processor@DV?$stream_output_adapter@D@__crt_stdio_output@@V?$positional_parameter_base@DV?$stream_output_adapter@D@__crt_stdio_output@@@2@@1@AAE_NXZ@@Z 00431f00 f i libucrtd:output.obj
 0001:00031080       ??$extract_argument_from_va_list@PAUansi_string@?1??type_case_Z@?$output_processor@DV?$stream_output_adapter@D@__crt_stdio_output@@V?$positional_parameter_base@DV?$stream_output_adapter@D@__crt_stdio_output@@@2@@__crt_stdio_output@@AAE_NXZ@PAU1?1??234@AAE_NXZ@@?$standard_base@DV?$stream_output_adapter@D@__crt_stdio_output@@@__crt_stdio_output@@IAE_NAAPAUansi_string@?1??type_case_Z@?$output_processor@DV?$stream_output_adapter@D@__crt_stdio_output@@V?$positional_parameter_base@DV?$stream_output_adapter@D@__crt_stdio_output@@@2@@1@AAE_NXZ@@Z 00432080 f i libucrtd:output.obj
 0001:000310b0       ??$extract_argument_from_va_list@PAUansi_string@?1??type_case_Z@?$output_processor@DV?$stream_output_adapter@D@__crt_stdio_output@@V?$standard_base@DV?$stream_output_adapter@D@__crt_stdio_output@@@2@@__crt_stdio_output@@AAE_NXZ@PAU1?1??234@AAE_NXZ@@?$standard_base@DV?$stream_output_adapter@D@__crt_stdio_output@@@__crt_stdio_output@@IAE_NAAPAUansi_string@?1??type_case_Z@?$output_processor@DV?$stream_output_adapter@D@__crt_stdio_output@@V?$standard_base@DV?$stream_output_adapter@D@__crt_stdio_output@@@2@@1@AAE_NXZ@@Z 004320b0 f i libucrtd:output.obj
 0001:000310e0       ??$extract_argument_from_va_list@PAUansi_string@?1??type_case_Z@?$output_processor@DV?$string_output_adapter@D@__crt_stdio_output@@V?$format_validation_base@DV?$string_output_adapter@D@__crt_stdio_output@@@2@@__crt_stdio_output@@AAE_NXZ@PAU1?1??234@AAE_NXZ@@?$standard_base@DV?$string_output_adapter@D@__crt_stdio_output@@@__crt_stdio_output@@IAE_NAAPAUansi_string@?1??type_case_Z@?$output_processor@DV?$string_output_adapter@D@__crt_stdio_output@@V?$format_validation_base@DV?$string_output_adapter@D@__crt_stdio_output@@@2@@1@AAE_NXZ@@Z 004320e0 f i libucrtd:output.obj
 0001:00031110       ??$extract_argument_from_va_list@PAUansi_string@?1??type_case_Z@?$output_processor@DV?$string_output_adapter@D@__crt_stdio_output@@V?$positional_parameter_base@DV?$string_output_adapter@D@__crt_stdio_output@@@2@@__crt_stdio_output@@AAE_NXZ@PAU1?1??234@AAE_NXZ@@?$positional_parameter_base@DV?$string_output_adapter@D@__crt_stdio_output@@@__crt_stdio_output@@IAE_NAAPAUansi_string@?1??type_case_Z@?$output_processor@DV?$string_output_adapter@D@__crt_stdio_output@@V?$positional_parameter_base@DV?$string_output_adapter@D@__crt_stdio_output@@@2@@1@AAE_NXZ@@Z 00432110 f i libucrtd:output.obj
 0001:00031290       ??$extract_argument_from_va_list@PAUansi_string@?1??type_case_Z@?$output_processor@DV?$string_output_adapter@D@__crt_stdio_output@@V?$positional_parameter_base@DV?$string_output_adapter@D@__crt_stdio_output@@@2@@__crt_stdio_output@@AAE_NXZ@PAU1?1??234@AAE_NXZ@@?$standard_base@DV?$string_output_adapter@D@__crt_stdio_output@@@__crt_stdio_output@@IAE_NAAPAUansi_string@?1??type_case_Z@?$output_processor@DV?$string_output_adapter@D@__crt_stdio_output@@V?$positional_parameter_base@DV?$string_output_adapter@D@__crt_stdio_output@@@2@@1@AAE_NXZ@@Z 00432290 f i libucrtd:output.obj
 0001:000312c0       ??$extract_argument_from_va_list@PAUansi_string@?1??type_case_Z@?$output_processor@DV?$string_output_adapter@D@__crt_stdio_output@@V?$standard_base@DV?$string_output_adapter@D@__crt_stdio_output@@@2@@__crt_stdio_output@@AAE_NXZ@PAU1?1??234@AAE_NXZ@@?$standard_base@DV?$string_output_adapter@D@__crt_stdio_output@@@__crt_stdio_output@@IAE_NAAPAUansi_string@?1??type_case_Z@?$output_processor@DV?$string_output_adapter@D@__crt_stdio_output@@V?$standard_base@DV?$string_output_adapter@D@__crt_stdio_output@@@2@@1@AAE_NXZ@@Z 004322c0 f i libucrtd:output.obj
 0001:000312f0       ??$extract_argument_from_va_list@PAUansi_string@?1??type_case_Z@?$output_processor@_WV?$stream_output_adapter@_W@__crt_stdio_output@@V?$format_validation_base@_WV?$stream_output_adapter@_W@__crt_stdio_output@@@2@@__crt_stdio_output@@AAE_NXZ@PAU1?1??234@AAE_NXZ@@?$standard_base@_WV?$stream_output_adapter@_W@__crt_stdio_output@@@__crt_stdio_output@@IAE_NAAPAUansi_string@?1??type_case_Z@?$output_processor@_WV?$stream_output_adapter@_W@__crt_stdio_output@@V?$format_validation_base@_WV?$stream_output_adapter@_W@__crt_stdio_output@@@2@@1@AAE_NXZ@@Z 004322f0 f i libucrtd:output.obj
 0001:00031320       ??$extract_argument_from_va_list@PAUansi_string@?1??type_case_Z@?$output_processor@_WV?$stream_output_adapter@_W@__crt_stdio_output@@V?$positional_parameter_base@_WV?$stream_output_adapter@_W@__crt_stdio_output@@@2@@__crt_stdio_output@@AAE_NXZ@PAU1?1??234@AAE_NXZ@@?$positional_parameter_base@_WV?$stream_output_adapter@_W@__crt_stdio_output@@@__crt_stdio_output@@IAE_NAAPAUansi_string@?1??type_case_Z@?$output_processor@_WV?$stream_output_adapter@_W@__crt_stdio_output@@V?$positional_parameter_base@_WV?$stream_output_adapter@_W@__crt_stdio_output@@@2@@1@AAE_NXZ@@Z 00432320 f i libucrtd:output.obj
 0001:000314a0       ??$extract_argument_from_va_list@PAUansi_string@?1??type_case_Z@?$output_processor@_WV?$stream_output_adapter@_W@__crt_stdio_output@@V?$positional_parameter_base@_WV?$stream_output_adapter@_W@__crt_stdio_output@@@2@@__crt_stdio_output@@AAE_NXZ@PAU1?1??234@AAE_NXZ@@?$standard_base@_WV?$stream_output_adapter@_W@__crt_stdio_output@@@__crt_stdio_output@@IAE_NAAPAUansi_string@?1??type_case_Z@?$output_processor@_WV?$stream_output_adapter@_W@__crt_stdio_output@@V?$positional_parameter_base@_WV?$stream_output_adapter@_W@__crt_stdio_output@@@2@@1@AAE_NXZ@@Z 004324a0 f i libucrtd:output.obj
 0001:000314d0       ??$extract_argument_from_va_list@PAUansi_string@?1??type_case_Z@?$output_processor@_WV?$stream_output_adapter@_W@__crt_stdio_output@@V?$standard_base@_WV?$stream_output_adapter@_W@__crt_stdio_output@@@2@@__crt_stdio_output@@AAE_NXZ@PAU1?1??234@AAE_NXZ@@?$standard_base@_WV?$stream_output_adapter@_W@__crt_stdio_output@@@__crt_stdio_output@@IAE_NAAPAUansi_string@?1??type_case_Z@?$output_processor@_WV?$stream_output_adapter@_W@__crt_stdio_output@@V?$standard_base@_WV?$stream_output_adapter@_W@__crt_stdio_output@@@2@@1@AAE_NXZ@@Z 004324d0 f i libucrtd:output.obj
 0001:00031500       ??$extract_argument_from_va_list@PAUansi_string@?1??type_case_Z@?$output_processor@_WV?$string_output_adapter@_W@__crt_stdio_output@@V?$format_validation_base@_WV?$string_output_adapter@_W@__crt_stdio_output@@@2@@__crt_stdio_output@@AAE_NXZ@PAU1?1??234@AAE_NXZ@@?$standard_base@_WV?$string_output_adapter@_W@__crt_stdio_output@@@__crt_stdio_output@@IAE_NAAPAUansi_string@?1??type_case_Z@?$output_processor@_WV?$string_output_adapter@_W@__crt_stdio_output@@V?$format_validation_base@_WV?$string_output_adapter@_W@__crt_stdio_output@@@2@@1@AAE_NXZ@@Z 00432500 f i libucrtd:output.obj
 0001:00031530       ??$extract_argument_from_va_list@PAUansi_string@?1??type_case_Z@?$output_processor@_WV?$string_output_adapter@_W@__crt_stdio_output@@V?$positional_parameter_base@_WV?$string_output_adapter@_W@__crt_stdio_output@@@2@@__crt_stdio_output@@AAE_NXZ@PAU1?1??234@AAE_NXZ@@?$positional_parameter_base@_WV?$string_output_adapter@_W@__crt_stdio_output@@@__crt_stdio_output@@IAE_NAAPAUansi_string@?1??type_case_Z@?$output_processor@_WV?$string_output_adapter@_W@__crt_stdio_output@@V?$positional_parameter_base@_WV?$string_output_adapter@_W@__crt_stdio_output@@@2@@1@AAE_NXZ@@Z 00432530 f i libucrtd:output.obj
 0001:000316b0       ??$extract_argument_from_va_list@PAUansi_string@?1??type_case_Z@?$output_processor@_WV?$string_output_adapter@_W@__crt_stdio_output@@V?$positional_parameter_base@_WV?$string_output_adapter@_W@__crt_stdio_output@@@2@@__crt_stdio_output@@AAE_NXZ@PAU1?1??234@AAE_NXZ@@?$standard_base@_WV?$string_output_adapter@_W@__crt_stdio_output@@@__crt_stdio_output@@IAE_NAAPAUansi_string@?1??type_case_Z@?$output_processor@_WV?$string_output_adapter@_W@__crt_stdio_output@@V?$positional_parameter_base@_WV?$string_output_adapter@_W@__crt_stdio_output@@@2@@1@AAE_NXZ@@Z 004326b0 f i libucrtd:output.obj
 0001:000316e0       ??$extract_argument_from_va_list@PAUansi_string@?1??type_case_Z@?$output_processor@_WV?$string_output_adapter@_W@__crt_stdio_output@@V?$standard_base@_WV?$string_output_adapter@_W@__crt_stdio_output@@@2@@__crt_stdio_output@@AAE_NXZ@PAU1?1??234@AAE_NXZ@@?$standard_base@_WV?$string_output_adapter@_W@__crt_stdio_output@@@__crt_stdio_output@@IAE_NAAPAUansi_string@?1??type_case_Z@?$output_processor@_WV?$string_output_adapter@_W@__crt_stdio_output@@V?$standard_base@_WV?$string_output_adapter@_W@__crt_stdio_output@@@2@@1@AAE_NXZ@@Z 004326e0 f i libucrtd:output.obj
 0001:00031710       ??$extract_argument_from_va_list@PAXPAX@?$positional_parameter_base@DV?$stream_output_adapter@D@__crt_stdio_output@@@__crt_stdio_output@@IAE_NAAPAX@Z 00432710 f i libucrtd:output.obj
 0001:00031890       ??$extract_argument_from_va_list@PAXPAX@?$positional_parameter_base@DV?$string_output_adapter@D@__crt_stdio_output@@@__crt_stdio_output@@IAE_NAAPAX@Z 00432890 f i libucrtd:output.obj
 0001:00031a10       ??$extract_argument_from_va_list@PAXPAX@?$positional_parameter_base@_WV?$stream_output_adapter@_W@__crt_stdio_output@@@__crt_stdio_output@@IAE_NAAPAX@Z 00432a10 f i libucrtd:output.obj
 0001:00031b90       ??$extract_argument_from_va_list@PAXPAX@?$positional_parameter_base@_WV?$string_output_adapter@_W@__crt_stdio_output@@@__crt_stdio_output@@IAE_NAAPAX@Z 00432b90 f i libucrtd:output.obj
 0001:00031d10       ??$extract_argument_from_va_list@PAXPAX@?$standard_base@DV?$stream_output_adapter@D@__crt_stdio_output@@@__crt_stdio_output@@IAE_NAAPAX@Z 00432d10 f i libucrtd:output.obj
 0001:00031d40       ??$extract_argument_from_va_list@PAXPAX@?$standard_base@DV?$string_output_adapter@D@__crt_stdio_output@@@__crt_stdio_output@@IAE_NAAPAX@Z 00432d40 f i libucrtd:output.obj
 0001:00031d70       ??$extract_argument_from_va_list@PAXPAX@?$standard_base@_WV?$stream_output_adapter@_W@__crt_stdio_output@@@__crt_stdio_output@@IAE_NAAPAX@Z 00432d70 f i libucrtd:output.obj
 0001:00031da0       ??$extract_argument_from_va_list@PAXPAX@?$standard_base@_WV?$string_output_adapter@_W@__crt_stdio_output@@@__crt_stdio_output@@IAE_NAAPAX@Z 00432da0 f i libucrtd:output.obj
 0001:00031dd0       ??$extract_argument_from_va_list@U_CRT_DOUBLE@@U1@@?$positional_parameter_base@DV?$stream_output_adapter@D@__crt_stdio_output@@@__crt_stdio_output@@IAE_NAAU_CRT_DOUBLE@@@Z 00432dd0 f i libucrtd:output.obj
 0001:00031f80       ??$extract_argument_from_va_list@U_CRT_DOUBLE@@U1@@?$positional_parameter_base@DV?$string_output_adapter@D@__crt_stdio_output@@@__crt_stdio_output@@IAE_NAAU_CRT_DOUBLE@@@Z 00432f80 f i libucrtd:output.obj
 0001:00032130       ??$extract_argument_from_va_list@U_CRT_DOUBLE@@U1@@?$positional_parameter_base@_WV?$stream_output_adapter@_W@__crt_stdio_output@@@__crt_stdio_output@@IAE_NAAU_CRT_DOUBLE@@@Z 00433130 f i libucrtd:output.obj
 0001:000322e0       ??$extract_argument_from_va_list@U_CRT_DOUBLE@@U1@@?$positional_parameter_base@_WV?$string_output_adapter@_W@__crt_stdio_output@@@__crt_stdio_output@@IAE_NAAU_CRT_DOUBLE@@@Z 004332e0 f i libucrtd:output.obj
 0001:00032490       ??$extract_argument_from_va_list@U_CRT_DOUBLE@@U1@@?$standard_base@DV?$stream_output_adapter@D@__crt_stdio_output@@@__crt_stdio_output@@IAE_NAAU_CRT_DOUBLE@@@Z 00433490 f i libucrtd:output.obj
 0001:000324f0       ??$extract_argument_from_va_list@U_CRT_DOUBLE@@U1@@?$standard_base@DV?$string_output_adapter@D@__crt_stdio_output@@@__crt_stdio_output@@IAE_NAAU_CRT_DOUBLE@@@Z 004334f0 f i libucrtd:output.obj
 0001:00032550       ??$extract_argument_from_va_list@U_CRT_DOUBLE@@U1@@?$standard_base@_WV?$stream_output_adapter@_W@__crt_stdio_output@@@__crt_stdio_output@@IAE_NAAU_CRT_DOUBLE@@@Z 00433550 f i libucrtd:output.obj
 0001:000325b0       ??$extract_argument_from_va_list@U_CRT_DOUBLE@@U1@@?$standard_base@_WV?$string_output_adapter@_W@__crt_stdio_output@@@__crt_stdio_output@@IAE_NAAU_CRT_DOUBLE@@@Z 004335b0 f i libucrtd:output.obj
 0001:00032610       ??$extract_argument_from_va_list@_J_J@?$positional_parameter_base@DV?$stream_output_adapter@D@__crt_stdio_output@@@__crt_stdio_output@@IAE_NAA_J@Z 00433610 f i libucrtd:output.obj
 0001:00032790       ??$extract_argument_from_va_list@_J_J@?$positional_parameter_base@DV?$string_output_adapter@D@__crt_stdio_output@@@__crt_stdio_output@@IAE_NAA_J@Z 00433790 f i libucrtd:output.obj
 0001:00032910       ??$extract_argument_from_va_list@_J_J@?$positional_parameter_base@_WV?$stream_output_adapter@_W@__crt_stdio_output@@@__crt_stdio_output@@IAE_NAA_J@Z 00433910 f i libucrtd:output.obj
 0001:00032a90       ??$extract_argument_from_va_list@_J_J@?$positional_parameter_base@_WV?$string_output_adapter@_W@__crt_stdio_output@@@__crt_stdio_output@@IAE_NAA_J@Z 00433a90 f i libucrtd:output.obj
 0001:00032c10       ??$extract_argument_from_va_list@_J_J@?$standard_base@DV?$stream_output_adapter@D@__crt_stdio_output@@@__crt_stdio_output@@IAE_NAA_J@Z 00433c10 f i libucrtd:output.obj
 0001:00032c50       ??$extract_argument_from_va_list@_J_J@?$standard_base@DV?$string_output_adapter@D@__crt_stdio_output@@@__crt_stdio_output@@IAE_NAA_J@Z 00433c50 f i libucrtd:output.obj
 0001:00032c90       ??$extract_argument_from_va_list@_J_J@?$standard_base@_WV?$stream_output_adapter@_W@__crt_stdio_output@@@__crt_stdio_output@@IAE_NAA_J@Z 00433c90 f i libucrtd:output.obj
 0001:00032cd0       ??$extract_argument_from_va_list@_J_J@?$standard_base@_WV?$string_output_adapter@_W@__crt_stdio_output@@@__crt_stdio_output@@IAE_NAA_J@Z 00433cd0 f i libucrtd:output.obj
 0001:00032d10       ??$extract_argument_from_va_list@_K_J@?$positional_parameter_base@DV?$stream_output_adapter@D@__crt_stdio_output@@@__crt_stdio_output@@IAE_NAA_J@Z 00433d10 f i libucrtd:output.obj
 0001:00032e90       ??$extract_argument_from_va_list@_K_J@?$positional_parameter_base@DV?$string_output_adapter@D@__crt_stdio_output@@@__crt_stdio_output@@IAE_NAA_J@Z 00433e90 f i libucrtd:output.obj
 0001:00033010       ??$extract_argument_from_va_list@_K_J@?$positional_parameter_base@_WV?$stream_output_adapter@_W@__crt_stdio_output@@@__crt_stdio_output@@IAE_NAA_J@Z 00434010 f i libucrtd:output.obj
 0001:00033190       ??$extract_argument_from_va_list@_K_J@?$positional_parameter_base@_WV?$string_output_adapter@_W@__crt_stdio_output@@@__crt_stdio_output@@IAE_NAA_J@Z 00434190 f i libucrtd:output.obj
 0001:00033310       ??$extract_argument_from_va_list@_K_J@?$standard_base@DV?$stream_output_adapter@D@__crt_stdio_output@@@__crt_stdio_output@@IAE_NAA_J@Z 00434310 f i libucrtd:output.obj
 0001:00033350       ??$extract_argument_from_va_list@_K_J@?$standard_base@DV?$string_output_adapter@D@__crt_stdio_output@@@__crt_stdio_output@@IAE_NAA_J@Z 00434350 f i libucrtd:output.obj
 0001:00033390       ??$extract_argument_from_va_list@_K_J@?$standard_base@_WV?$stream_output_adapter@_W@__crt_stdio_output@@@__crt_stdio_output@@IAE_NAA_J@Z 00434390 f i libucrtd:output.obj
 0001:000333d0       ??$extract_argument_from_va_list@_K_J@?$standard_base@_WV?$string_output_adapter@_W@__crt_stdio_output@@@__crt_stdio_output@@IAE_NAA_J@Z 004343d0 f i libucrtd:output.obj
 0001:00033410       ??$extract_argument_from_va_list@_W_W@?$positional_parameter_base@DV?$stream_output_adapter@D@__crt_stdio_output@@@__crt_stdio_output@@IAE_NAA_W@Z 00434410 f i libucrtd:output.obj
 0001:00033590       ??$extract_argument_from_va_list@_W_W@?$positional_parameter_base@DV?$string_output_adapter@D@__crt_stdio_output@@@__crt_stdio_output@@IAE_NAA_W@Z 00434590 f i libucrtd:output.obj
 0001:00033710       ??$extract_argument_from_va_list@_W_W@?$positional_parameter_base@_WV?$stream_output_adapter@_W@__crt_stdio_output@@@__crt_stdio_output@@IAE_NAA_W@Z 00434710 f i libucrtd:output.obj
 0001:00033890       ??$extract_argument_from_va_list@_W_W@?$positional_parameter_base@_WV?$string_output_adapter@_W@__crt_stdio_output@@@__crt_stdio_output@@IAE_NAA_W@Z 00434890 f i libucrtd:output.obj
 0001:00033a10       ??$extract_argument_from_va_list@_W_W@?$standard_base@DV?$stream_output_adapter@D@__crt_stdio_output@@@__crt_stdio_output@@IAE_NAA_W@Z 00434a10 f i libucrtd:output.obj
 0001:00033a40       ??$extract_argument_from_va_list@_W_W@?$standard_base@DV?$string_output_adapter@D@__crt_stdio_output@@@__crt_stdio_output@@IAE_NAA_W@Z 00434a40 f i libucrtd:output.obj
 0001:00033a70       ??$extract_argument_from_va_list@_W_W@?$standard_base@_WV?$stream_output_adapter@_W@__crt_stdio_output@@@__crt_stdio_output@@IAE_NAA_W@Z 00434a70 f i libucrtd:output.obj
 0001:00033aa0       ??$extract_argument_from_va_list@_W_W@?$standard_base@_WV?$string_output_adapter@_W@__crt_stdio_output@@@__crt_stdio_output@@IAE_NAA_W@Z 00434aa0 f i libucrtd:output.obj
 0001:00033ad0       ??$get_parameter_type@D@?$positional_parameter_base@DV?$stream_output_adapter@D@__crt_stdio_output@@@__crt_stdio_output@@CA?AW4parameter_type@01@PAD@Z 00434ad0 f i libucrtd:output.obj
 0001:00033ae0       ??$get_parameter_type@D@?$positional_parameter_base@DV?$string_output_adapter@D@__crt_stdio_output@@@__crt_stdio_output@@CA?AW4parameter_type@01@PAD@Z 00434ae0 f i libucrtd:output.obj
 0001:00033af0       ??$get_parameter_type@D@?$positional_parameter_base@_WV?$stream_output_adapter@_W@__crt_stdio_output@@@__crt_stdio_output@@CA?AW4parameter_type@01@PAD@Z 00434af0 f i libucrtd:output.obj
 0001:00033b00       ??$get_parameter_type@D@?$positional_parameter_base@_WV?$string_output_adapter@_W@__crt_stdio_output@@@__crt_stdio_output@@CA?AW4parameter_type@01@PAD@Z 00434b00 f i libucrtd:output.obj
 0001:00033b10       ??$get_parameter_type@Uansi_string@?1??type_case_Z@?$output_processor@DV?$stream_output_adapter@D@__crt_stdio_output@@V?$positional_parameter_base@DV?$stream_output_adapter@D@__crt_stdio_output@@@2@@__crt_stdio_output@@AAE_NXZ@@?$positional_parameter_base@DV?$stream_output_adapter@D@__crt_stdio_output@@@__crt_stdio_output@@CA?AW4parameter_type@01@PAUansi_string@?1??type_case_Z@?$output_processor@DV?$stream_output_adapter@D@__crt_stdio_output@@V?$positional_parameter_base@DV?$stream_output_adapter@D@__crt_stdio_output@@@2@@1@AAE_NXZ@@Z 00434b10 f i libucrtd:output.obj
 0001:00033b20       ??$get_parameter_type@Uansi_string@?1??type_case_Z@?$output_processor@DV?$string_output_adapter@D@__crt_stdio_output@@V?$positional_parameter_base@DV?$string_output_adapter@D@__crt_stdio_output@@@2@@__crt_stdio_output@@AAE_NXZ@@?$positional_parameter_base@DV?$string_output_adapter@D@__crt_stdio_output@@@__crt_stdio_output@@CA?AW4parameter_type@01@PAUansi_string@?1??type_case_Z@?$output_processor@DV?$string_output_adapter@D@__crt_stdio_output@@V?$positional_parameter_base@DV?$string_output_adapter@D@__crt_stdio_output@@@2@@1@AAE_NXZ@@Z 00434b20 f i libucrtd:output.obj
 0001:00033b30       ??$get_parameter_type@Uansi_string@?1??type_case_Z@?$output_processor@_WV?$stream_output_adapter@_W@__crt_stdio_output@@V?$positional_parameter_base@_WV?$stream_output_adapter@_W@__crt_stdio_output@@@2@@__crt_stdio_output@@AAE_NXZ@@?$positional_parameter_base@_WV?$stream_output_adapter@_W@__crt_stdio_output@@@__crt_stdio_output@@CA?AW4parameter_type@01@PAUansi_string@?1??type_case_Z@?$output_processor@_WV?$stream_output_adapter@_W@__crt_stdio_output@@V?$positional_parameter_base@_WV?$stream_output_adapter@_W@__crt_stdio_output@@@2@@1@AAE_NXZ@@Z 00434b30 f i libucrtd:output.obj
 0001:00033b40       ??$get_parameter_type@Uansi_string@?1??type_case_Z@?$output_processor@_WV?$string_output_adapter@_W@__crt_stdio_output@@V?$positional_parameter_base@_WV?$string_output_adapter@_W@__crt_stdio_output@@@2@@__crt_stdio_output@@AAE_NXZ@@?$positional_parameter_base@_WV?$string_output_adapter@_W@__crt_stdio_output@@@__crt_stdio_output@@CA?AW4parameter_type@01@PAUansi_string@?1??type_case_Z@?$output_processor@_WV?$string_output_adapter@_W@__crt_stdio_output@@V?$positional_parameter_base@_WV?$string_output_adapter@_W@__crt_stdio_output@@@2@@1@AAE_NXZ@@Z 00434b40 f i libucrtd:output.obj
 0001:00033b50       ??$get_parameter_type@X@?$positional_parameter_base@DV?$stream_output_adapter@D@__crt_stdio_output@@@__crt_stdio_output@@CA?AW4parameter_type@01@PAX@Z 00434b50 f i libucrtd:output.obj
 0001:00033b60       ??$get_parameter_type@X@?$positional_parameter_base@DV?$string_output_adapter@D@__crt_stdio_output@@@__crt_stdio_output@@CA?AW4parameter_type@01@PAX@Z 00434b60 f i libucrtd:output.obj
 0001:00033b70       ??$get_parameter_type@X@?$positional_parameter_base@_WV?$stream_output_adapter@_W@__crt_stdio_output@@@__crt_stdio_output@@CA?AW4parameter_type@01@PAX@Z 00434b70 f i libucrtd:output.obj
 0001:00033b80       ??$get_parameter_type@X@?$positional_parameter_base@_WV?$string_output_adapter@_W@__crt_stdio_output@@@__crt_stdio_output@@CA?AW4parameter_type@01@PAX@Z 00434b80 f i libucrtd:output.obj
 0001:00033b90       ??$is_character_specifier@D@?$positional_parameter_base@DV?$stream_output_adapter@D@__crt_stdio_output@@@__crt_stdio_output@@CA_ND@Z 00434b90 f i libucrtd:output.obj
 0001:00033bd0       ??$is_character_specifier@D@?$positional_parameter_base@DV?$string_output_adapter@D@__crt_stdio_output@@@__crt_stdio_output@@CA_ND@Z 00434bd0 f i libucrtd:output.obj
 0001:00033c10       ??$is_character_specifier@_W@?$positional_parameter_base@_WV?$stream_output_adapter@_W@__crt_stdio_output@@@__crt_stdio_output@@CA_N_W@Z 00434c10 f i libucrtd:output.obj
 0001:00033c50       ??$is_character_specifier@_W@?$positional_parameter_base@_WV?$string_output_adapter@_W@__crt_stdio_output@@@__crt_stdio_output@@CA_N_W@Z 00434c50 f i libucrtd:output.obj
 0001:00033c90       ??$is_integral_specifier@D@?$positional_parameter_base@DV?$stream_output_adapter@D@__crt_stdio_output@@@__crt_stdio_output@@CA_ND@Z 00434c90 f i libucrtd:output.obj
 0001:00033d10       ??$is_integral_specifier@D@?$positional_parameter_base@DV?$string_output_adapter@D@__crt_stdio_output@@@__crt_stdio_output@@CA_ND@Z 00434d10 f i libucrtd:output.obj
 0001:00033d90       ??$is_integral_specifier@_W@?$positional_parameter_base@_WV?$stream_output_adapter@_W@__crt_stdio_output@@@__crt_stdio_output@@CA_N_W@Z 00434d90 f i libucrtd:output.obj
 0001:00033e10       ??$is_integral_specifier@_W@?$positional_parameter_base@_WV?$string_output_adapter@_W@__crt_stdio_output@@@__crt_stdio_output@@CA_N_W@Z 00434e10 f i libucrtd:output.obj
 0001:00033e90       ??$is_pointer_specifier@D@?$positional_parameter_base@DV?$stream_output_adapter@D@__crt_stdio_output@@@__crt_stdio_output@@CA_ND@Z 00434e90 f i libucrtd:output.obj
 0001:00033ec0       ??$is_pointer_specifier@D@?$positional_parameter_base@DV?$string_output_adapter@D@__crt_stdio_output@@@__crt_stdio_output@@CA_ND@Z 00434ec0 f i libucrtd:output.obj
 0001:00033ef0       ??$is_pointer_specifier@_W@?$positional_parameter_base@_WV?$stream_output_adapter@_W@__crt_stdio_output@@@__crt_stdio_output@@CA_N_W@Z 00434ef0 f i libucrtd:output.obj
 0001:00033f20       ??$is_pointer_specifier@_W@?$positional_parameter_base@_WV?$string_output_adapter@_W@__crt_stdio_output@@@__crt_stdio_output@@CA_N_W@Z 00434f20 f i libucrtd:output.obj
 0001:00033f50       ??$is_string_specifier@D@?$positional_parameter_base@DV?$stream_output_adapter@D@__crt_stdio_output@@@__crt_stdio_output@@CA_ND@Z 00434f50 f i libucrtd:output.obj
 0001:00033f90       ??$is_string_specifier@D@?$positional_parameter_base@DV?$string_output_adapter@D@__crt_stdio_output@@@__crt_stdio_output@@CA_ND@Z 00434f90 f i libucrtd:output.obj
 0001:00033fd0       ??$is_string_specifier@_W@?$positional_parameter_base@_WV?$stream_output_adapter@_W@__crt_stdio_output@@@__crt_stdio_output@@CA_N_W@Z 00434fd0 f i libucrtd:output.obj
 0001:00034010       ??$is_string_specifier@_W@?$positional_parameter_base@_WV?$string_output_adapter@_W@__crt_stdio_output@@@__crt_stdio_output@@CA_N_W@Z 00435010 f i libucrtd:output.obj
 0001:00034050       ??$is_wide_character_specifier@D@__crt_stdio_output@@YA_N_KDW4length_modifier@0@@Z 00435050 f i libucrtd:output.obj
 0001:000340f0       ??$is_wide_character_specifier@_W@__crt_stdio_output@@YA_N_K_WW4length_modifier@0@@Z 004350f0 f i libucrtd:output.obj
 0001:000341e0       ??$peek_va_arg@C@__crt_stdio_output@@YACPAD@Z 004351e0 f i libucrtd:output.obj
 0001:00034200       ??$peek_va_arg@E@__crt_stdio_output@@YAEPAD@Z 00435200 f i libucrtd:output.obj
 0001:00034220       ??$peek_va_arg@F@__crt_stdio_output@@YAFPAD@Z 00435220 f i libucrtd:output.obj
 0001:00034240       ??$peek_va_arg@G@__crt_stdio_output@@YAGPAD@Z 00435240 f i libucrtd:output.obj
 0001:00034260       ??$peek_va_arg@H@__crt_stdio_output@@YAHPAD@Z 00435260 f i libucrtd:output.obj
 0001:00034280       ??$peek_va_arg@I@__crt_stdio_output@@YAIPAD@Z 00435280 f i libucrtd:output.obj
 0001:000342a0       ??$peek_va_arg@PAD@__crt_stdio_output@@YAPADPAD@Z 004352a0 f i libucrtd:output.obj
 0001:000342c0       ??$peek_va_arg@PAUansi_string@?1??type_case_Z@?$output_processor@DV?$stream_output_adapter@D@__crt_stdio_output@@V?$positional_parameter_base@DV?$stream_output_adapter@D@__crt_stdio_output@@@2@@__crt_stdio_output@@AAE_NXZ@@__crt_stdio_output@@YAPAUansi_string@?1??type_case_Z@?$output_processor@DV?$stream_output_adapter@D@__crt_stdio_output@@V?$positional_parameter_base@DV?$stream_output_adapter@D@__crt_stdio_output@@@2@@0@AAE_NXZ@PAD@Z 004352c0 f i libucrtd:output.obj
 0001:000342e0       ??$peek_va_arg@PAUansi_string@?1??type_case_Z@?$output_processor@DV?$string_output_adapter@D@__crt_stdio_output@@V?$positional_parameter_base@DV?$string_output_adapter@D@__crt_stdio_output@@@2@@__crt_stdio_output@@AAE_NXZ@@__crt_stdio_output@@YAPAUansi_string@?1??type_case_Z@?$output_processor@DV?$string_output_adapter@D@__crt_stdio_output@@V?$positional_parameter_base@DV?$string_output_adapter@D@__crt_stdio_output@@@2@@0@AAE_NXZ@PAD@Z 004352e0 f i libucrtd:output.obj
 0001:00034300       ??$peek_va_arg@PAUansi_string@?1??type_case_Z@?$output_processor@_WV?$stream_output_adapter@_W@__crt_stdio_output@@V?$positional_parameter_base@_WV?$stream_output_adapter@_W@__crt_stdio_output@@@2@@__crt_stdio_output@@AAE_NXZ@@__crt_stdio_output@@YAPAUansi_string@?1??type_case_Z@?$output_processor@_WV?$stream_output_adapter@_W@__crt_stdio_output@@V?$positional_parameter_base@_WV?$stream_output_adapter@_W@__crt_stdio_output@@@2@@0@AAE_NXZ@PAD@Z 00435300 f i libucrtd:output.obj
 0001:00034320       ??$peek_va_arg@PAUansi_string@?1??type_case_Z@?$output_processor@_WV?$string_output_adapter@_W@__crt_stdio_output@@V?$positional_parameter_base@_WV?$string_output_adapter@_W@__crt_stdio_output@@@2@@__crt_stdio_output@@AAE_NXZ@@__crt_stdio_output@@YAPAUansi_string@?1??type_case_Z@?$output_processor@_WV?$string_output_adapter@_W@__crt_stdio_output@@V?$positional_parameter_base@_WV?$string_output_adapter@_W@__crt_stdio_output@@@2@@0@AAE_NXZ@PAD@Z 00435320 f i libucrtd:output.obj
 0001:00034340       ??$peek_va_arg@PAX@__crt_stdio_output@@YAPAXPAD@Z 00435340 f i libucrtd:output.obj
 0001:00034360       ??$peek_va_arg@U_CRT_DOUBLE@@@__crt_stdio_output@@YA?AU_CRT_DOUBLE@@PAD@Z 00435360 f i libucrtd:output.obj
 0001:00034380       ??$peek_va_arg@_J@__crt_stdio_output@@YA_JPAD@Z 00435380 f i libucrtd:output.obj
 0001:000343a0       ??$peek_va_arg@_K@__crt_stdio_output@@YA_KPAD@Z 004353a0 f i libucrtd:output.obj
 0001:000343c0       ??$peek_va_arg@_W@__crt_stdio_output@@YA_WPAD@Z 004353c0 f i libucrtd:output.obj
 0001:000343e0       ??$puttc_nolock@ABDPAU_iobuf@@@?$__crt_char_traits@D@@SAHABD$$QAPAU_iobuf@@@Z 004353e0 f i libucrtd:output.obj
 0001:00034410       ??$puttc_nolock@AB_WPAU_iobuf@@@?$__crt_char_traits@_W@@SAGAB_W$$QAPAU_iobuf@@@Z 00435410 f i libucrtd:output.obj
 0001:00034440       ??$read_va_arg@C@__crt_stdio_output@@YACAAPAD@Z 00435440 f i libucrtd:output.obj
 0001:00034470       ??$read_va_arg@E@__crt_stdio_output@@YAEAAPAD@Z 00435470 f i libucrtd:output.obj
 0001:000344a0       ??$read_va_arg@F@__crt_stdio_output@@YAFAAPAD@Z 004354a0 f i libucrtd:output.obj
 0001:000344d0       ??$read_va_arg@G@__crt_stdio_output@@YAGAAPAD@Z 004354d0 f i libucrtd:output.obj
 0001:00034500       ??$read_va_arg@H@__crt_stdio_output@@YAHAAPAD@Z 00435500 f i libucrtd:output.obj
 0001:00034530       ??$read_va_arg@I@__crt_stdio_output@@YAIAAPAD@Z 00435530 f i libucrtd:output.obj
 0001:00034560       ??$read_va_arg@PAD@__crt_stdio_output@@YAPADAAPAD@Z 00435560 f i libucrtd:output.obj
 0001:00034590       ??$read_va_arg@PAUansi_string@?1??type_case_Z@?$output_processor@DV?$stream_output_adapter@D@__crt_stdio_output@@V?$format_validation_base@DV?$stream_output_adapter@D@__crt_stdio_output@@@2@@__crt_stdio_output@@AAE_NXZ@@__crt_stdio_output@@YAPAUansi_string@?1??type_case_Z@?$output_processor@DV?$stream_output_adapter@D@__crt_stdio_output@@V?$format_validation_base@DV?$stream_output_adapter@D@__crt_stdio_output@@@2@@0@AAE_NXZ@AAPAD@Z 00435590 f i libucrtd:output.obj
 0001:000345c0       ??$read_va_arg@PAUansi_string@?1??type_case_Z@?$output_processor@DV?$stream_output_adapter@D@__crt_stdio_output@@V?$positional_parameter_base@DV?$stream_output_adapter@D@__crt_stdio_output@@@2@@__crt_stdio_output@@AAE_NXZ@@__crt_stdio_output@@YAPAUansi_string@?1??type_case_Z@?$output_processor@DV?$stream_output_adapter@D@__crt_stdio_output@@V?$positional_parameter_base@DV?$stream_output_adapter@D@__crt_stdio_output@@@2@@0@AAE_NXZ@AAPAD@Z 004355c0 f i libucrtd:output.obj
 0001:000345f0       ??$read_va_arg@PAUansi_string@?1??type_case_Z@?$output_processor@DV?$stream_output_adapter@D@__crt_stdio_output@@V?$standard_base@DV?$stream_output_adapter@D@__crt_stdio_output@@@2@@__crt_stdio_output@@AAE_NXZ@@__crt_stdio_output@@YAPAUansi_string@?1??type_case_Z@?$output_processor@DV?$stream_output_adapter@D@__crt_stdio_output@@V?$standard_base@DV?$stream_output_adapter@D@__crt_stdio_output@@@2@@0@AAE_NXZ@AAPAD@Z 004355f0 f i libucrtd:output.obj
 0001:00034620       ??$read_va_arg@PAUansi_string@?1??type_case_Z@?$output_processor@DV?$string_output_adapter@D@__crt_stdio_output@@V?$format_validation_base@DV?$string_output_adapter@D@__crt_stdio_output@@@2@@__crt_stdio_output@@AAE_NXZ@@__crt_stdio_output@@YAPAUansi_string@?1??type_case_Z@?$output_processor@DV?$string_output_adapter@D@__crt_stdio_output@@V?$format_validation_base@DV?$string_output_adapter@D@__crt_stdio_output@@@2@@0@AAE_NXZ@AAPAD@Z 00435620 f i libucrtd:output.obj
 0001:00034650       ??$read_va_arg@PAUansi_string@?1??type_case_Z@?$output_processor@DV?$string_output_adapter@D@__crt_stdio_output@@V?$positional_parameter_base@DV?$string_output_adapter@D@__crt_stdio_output@@@2@@__crt_stdio_output@@AAE_NXZ@@__crt_stdio_output@@YAPAUansi_string@?1??type_case_Z@?$output_processor@DV?$string_output_adapter@D@__crt_stdio_output@@V?$positional_parameter_base@DV?$string_output_adapter@D@__crt_stdio_output@@@2@@0@AAE_NXZ@AAPAD@Z 00435650 f i libucrtd:output.obj
 0001:00034680       ??$read_va_arg@PAUansi_string@?1??type_case_Z@?$output_processor@DV?$string_output_adapter@D@__crt_stdio_output@@V?$standard_base@DV?$string_output_adapter@D@__crt_stdio_output@@@2@@__crt_stdio_output@@AAE_NXZ@@__crt_stdio_output@@YAPAUansi_string@?1??type_case_Z@?$output_processor@DV?$string_output_adapter@D@__crt_stdio_output@@V?$standard_base@DV?$string_output_adapter@D@__crt_stdio_output@@@2@@0@AAE_NXZ@AAPAD@Z 00435680 f i libucrtd:output.obj
 0001:000346b0       ??$read_va_arg@PAUansi_string@?1??type_case_Z@?$output_processor@_WV?$stream_output_adapter@_W@__crt_stdio_output@@V?$format_validation_base@_WV?$stream_output_adapter@_W@__crt_stdio_output@@@2@@__crt_stdio_output@@AAE_NXZ@@__crt_stdio_output@@YAPAUansi_string@?1??type_case_Z@?$output_processor@_WV?$stream_output_adapter@_W@__crt_stdio_output@@V?$format_validation_base@_WV?$stream_output_adapter@_W@__crt_stdio_output@@@2@@0@AAE_NXZ@AAPAD@Z 004356b0 f i libucrtd:output.obj
 0001:000346e0       ??$read_va_arg@PAUansi_string@?1??type_case_Z@?$output_processor@_WV?$stream_output_adapter@_W@__crt_stdio_output@@V?$positional_parameter_base@_WV?$stream_output_adapter@_W@__crt_stdio_output@@@2@@__crt_stdio_output@@AAE_NXZ@@__crt_stdio_output@@YAPAUansi_string@?1??type_case_Z@?$output_processor@_WV?$stream_output_adapter@_W@__crt_stdio_output@@V?$positional_parameter_base@_WV?$stream_output_adapter@_W@__crt_stdio_output@@@2@@0@AAE_NXZ@AAPAD@Z 004356e0 f i libucrtd:output.obj
 0001:00034710       ??$read_va_arg@PAUansi_string@?1??type_case_Z@?$output_processor@_WV?$stream_output_adapter@_W@__crt_stdio_output@@V?$standard_base@_WV?$stream_output_adapter@_W@__crt_stdio_output@@@2@@__crt_stdio_output@@AAE_NXZ@@__crt_stdio_output@@YAPAUansi_string@?1??type_case_Z@?$output_processor@_WV?$stream_output_adapter@_W@__crt_stdio_output@@V?$standard_base@_WV?$stream_output_adapter@_W@__crt_stdio_output@@@2@@0@AAE_NXZ@AAPAD@Z 00435710 f i libucrtd:output.obj
 0001:00034740       ??$read_va_arg@PAUansi_string@?1??type_case_Z@?$output_processor@_WV?$string_output_adapter@_W@__crt_stdio_output@@V?$format_validation_base@_WV?$string_output_adapter@_W@__crt_stdio_output@@@2@@__crt_stdio_output@@AAE_NXZ@@__crt_stdio_output@@YAPAUansi_string@?1??type_case_Z@?$output_processor@_WV?$string_output_adapter@_W@__crt_stdio_output@@V?$format_validation_base@_WV?$string_output_adapter@_W@__crt_stdio_output@@@2@@0@AAE_NXZ@AAPAD@Z 00435740 f i libucrtd:output.obj
 0001:00034770       ??$read_va_arg@PAUansi_string@?1??type_case_Z@?$output_processor@_WV?$string_output_adapter@_W@__crt_stdio_output@@V?$positional_parameter_base@_WV?$string_output_adapter@_W@__crt_stdio_output@@@2@@__crt_stdio_output@@AAE_NXZ@@__crt_stdio_output@@YAPAUansi_string@?1??type_case_Z@?$output_processor@_WV?$string_output_adapter@_W@__crt_stdio_output@@V?$positional_parameter_base@_WV?$string_output_adapter@_W@__crt_stdio_output@@@2@@0@AAE_NXZ@AAPAD@Z 00435770 f i libucrtd:output.obj
 0001:000347a0       ??$read_va_arg@PAUansi_string@?1??type_case_Z@?$output_processor@_WV?$string_output_adapter@_W@__crt_stdio_output@@V?$standard_base@_WV?$string_output_adapter@_W@__crt_stdio_output@@@2@@__crt_stdio_output@@AAE_NXZ@@__crt_stdio_output@@YAPAUansi_string@?1??type_case_Z@?$output_processor@_WV?$string_output_adapter@_W@__crt_stdio_output@@V?$standard_base@_WV?$string_output_adapter@_W@__crt_stdio_output@@@2@@0@AAE_NXZ@AAPAD@Z 004357a0 f i libucrtd:output.obj
 0001:000347d0       ??$read_va_arg@PAX@__crt_stdio_output@@YAPAXAAPAD@Z 004357d0 f i libucrtd:output.obj
 0001:00034800       ??$read_va_arg@U_CRT_DOUBLE@@@__crt_stdio_output@@YA?AU_CRT_DOUBLE@@AAPAD@Z 00435800 f i libucrtd:output.obj
 0001:00034830       ??$read_va_arg@_J@__crt_stdio_output@@YA_JAAPAD@Z 00435830 f i libucrtd:output.obj
 0001:00034860       ??$read_va_arg@_K@__crt_stdio_output@@YA_KAAPAD@Z 00435860 f i libucrtd:output.obj
 0001:00034890       ??$read_va_arg@_W@__crt_stdio_output@@YA_WAAPAD@Z 00435890 f i libucrtd:output.obj
 0001:000348c0       ??$scratch_count@D@formatting_buffer@__crt_stdio_output@@QBEIXZ 004358c0 f i libucrtd:output.obj
 0001:000348e0       ??$scratch_data@D@formatting_buffer@__crt_stdio_output@@QAEPADXZ 004358e0 f i libucrtd:output.obj
 0001:00034940       ??$tcstol@AAPBDPAPADH@?$__crt_char_traits@D@@SAJAAPBD$$QAPAPAD$$QAH@Z 00435940 f i libucrtd:output.obj
 0001:00034970       ??$tcstol@AAPB_WPAPA_WH@?$__crt_char_traits@_W@@SAJAAPB_W$$QAPAPA_W$$QAH@Z 00435970 f i libucrtd:output.obj
 0001:000349a0       ??$tcstol@PBDPAPADH@?$__crt_char_traits@D@@SAJ$$QAPBD$$QAPAPAD$$QAH@Z 004359a0 f i libucrtd:output.obj
 0001:000349d0       ??$tcstol@PB_WPAPA_WH@?$__crt_char_traits@_W@@SAJ$$QAPB_W$$QAPAPA_W$$QAH@Z 004359d0 f i libucrtd:output.obj
 0001:00034a00       ??$type_case_integer_parse_into_buffer@I@?$output_processor@DV?$stream_output_adapter@D@__crt_stdio_output@@V?$format_validation_base@DV?$stream_output_adapter@D@__crt_stdio_output@@@2@@__crt_stdio_output@@AAEXII_N@Z 00435a00 f i libucrtd:output.obj
 0001:00034b10       ??$type_case_integer_parse_into_buffer@I@?$output_processor@DV?$stream_output_adapter@D@__crt_stdio_output@@V?$positional_parameter_base@DV?$stream_output_adapter@D@__crt_stdio_output@@@2@@__crt_stdio_output@@AAEXII_N@Z 00435b10 f i libucrtd:output.obj
 0001:00034c20       ??$type_case_integer_parse_into_buffer@I@?$output_processor@DV?$stream_output_adapter@D@__crt_stdio_output@@V?$standard_base@DV?$stream_output_adapter@D@__crt_stdio_output@@@2@@__crt_stdio_output@@AAEXII_N@Z 00435c20 f i libucrtd:output.obj
 0001:00034d30       ??$type_case_integer_parse_into_buffer@I@?$output_processor@DV?$string_output_adapter@D@__crt_stdio_output@@V?$format_validation_base@DV?$string_output_adapter@D@__crt_stdio_output@@@2@@__crt_stdio_output@@AAEXII_N@Z 00435d30 f i libucrtd:output.obj
 0001:00034e40       ??$type_case_integer_parse_into_buffer@I@?$output_processor@DV?$string_output_adapter@D@__crt_stdio_output@@V?$positional_parameter_base@DV?$string_output_adapter@D@__crt_stdio_output@@@2@@__crt_stdio_output@@AAEXII_N@Z 00435e40 f i libucrtd:output.obj
 0001:00034f50       ??$type_case_integer_parse_into_buffer@I@?$output_processor@DV?$string_output_adapter@D@__crt_stdio_output@@V?$standard_base@DV?$string_output_adapter@D@__crt_stdio_output@@@2@@__crt_stdio_output@@AAEXII_N@Z 00435f50 f i libucrtd:output.obj
 0001:00035060       ??$type_case_integer_parse_into_buffer@I@?$output_processor@_WV?$stream_output_adapter@_W@__crt_stdio_output@@V?$format_validation_base@_WV?$stream_output_adapter@_W@__crt_stdio_output@@@2@@__crt_stdio_output@@AAEXII_N@Z 00436060 f i libucrtd:output.obj
 0001:00035170       ??$type_case_integer_parse_into_buffer@I@?$output_processor@_WV?$stream_output_adapter@_W@__crt_stdio_output@@V?$positional_parameter_base@_WV?$stream_output_adapter@_W@__crt_stdio_output@@@2@@__crt_stdio_output@@AAEXII_N@Z 00436170 f i libucrtd:output.obj
 0001:00035280       ??$type_case_integer_parse_into_buffer@I@?$output_processor@_WV?$stream_output_adapter@_W@__crt_stdio_output@@V?$standard_base@_WV?$stream_output_adapter@_W@__crt_stdio_output@@@2@@__crt_stdio_output@@AAEXII_N@Z 00436280 f i libucrtd:output.obj
 0001:00035390       ??$type_case_integer_parse_into_buffer@I@?$output_processor@_WV?$string_output_adapter@_W@__crt_stdio_output@@V?$format_validation_base@_WV?$string_output_adapter@_W@__crt_stdio_output@@@2@@__crt_stdio_output@@AAEXII_N@Z 00436390 f i libucrtd:output.obj
 0001:000354a0       ??$type_case_integer_parse_into_buffer@I@?$output_processor@_WV?$string_output_adapter@_W@__crt_stdio_output@@V?$positional_parameter_base@_WV?$string_output_adapter@_W@__crt_stdio_output@@@2@@__crt_stdio_output@@AAEXII_N@Z 004364a0 f i libucrtd:output.obj
 0001:000355b0       ??$type_case_integer_parse_into_buffer@I@?$output_processor@_WV?$string_output_adapter@_W@__crt_stdio_output@@V?$standard_base@_WV?$string_output_adapter@_W@__crt_stdio_output@@@2@@__crt_stdio_output@@AAEXII_N@Z 004365b0 f i libucrtd:output.obj
 0001:000356c0       ??$type_case_integer_parse_into_buffer@_K@?$output_processor@DV?$stream_output_adapter@D@__crt_stdio_output@@V?$format_validation_base@DV?$stream_output_adapter@D@__crt_stdio_output@@@2@@__crt_stdio_output@@AAEX_KI_N@Z 004366c0 f i libucrtd:output.obj
 0001:000357f0       ??$type_case_integer_parse_into_buffer@_K@?$output_processor@DV?$stream_output_adapter@D@__crt_stdio_output@@V?$positional_parameter_base@DV?$stream_output_adapter@D@__crt_stdio_output@@@2@@__crt_stdio_output@@AAEX_KI_N@Z 004367f0 f i libucrtd:output.obj
 0001:00035920       ??$type_case_integer_parse_into_buffer@_K@?$output_processor@DV?$stream_output_adapter@D@__crt_stdio_output@@V?$standard_base@DV?$stream_output_adapter@D@__crt_stdio_output@@@2@@__crt_stdio_output@@AAEX_KI_N@Z 00436920 f i libucrtd:output.obj
 0001:00035a50       ??$type_case_integer_parse_into_buffer@_K@?$output_processor@DV?$string_output_adapter@D@__crt_stdio_output@@V?$format_validation_base@DV?$string_output_adapter@D@__crt_stdio_output@@@2@@__crt_stdio_output@@AAEX_KI_N@Z 00436a50 f i libucrtd:output.obj
 0001:00035b80       ??$type_case_integer_parse_into_buffer@_K@?$output_processor@DV?$string_output_adapter@D@__crt_stdio_output@@V?$positional_parameter_base@DV?$string_output_adapter@D@__crt_stdio_output@@@2@@__crt_stdio_output@@AAEX_KI_N@Z 00436b80 f i libucrtd:output.obj
 0001:00035cb0       ??$type_case_integer_parse_into_buffer@_K@?$output_processor@DV?$string_output_adapter@D@__crt_stdio_output@@V?$standard_base@DV?$string_output_adapter@D@__crt_stdio_output@@@2@@__crt_stdio_output@@AAEX_KI_N@Z 00436cb0 f i libucrtd:output.obj
 0001:00035de0       ??$type_case_integer_parse_into_buffer@_K@?$output_processor@_WV?$stream_output_adapter@_W@__crt_stdio_output@@V?$format_validation_base@_WV?$stream_output_adapter@_W@__crt_stdio_output@@@2@@__crt_stdio_output@@AAEX_KI_N@Z 00436de0 f i libucrtd:output.obj
 0001:00035f20       ??$type_case_integer_parse_into_buffer@_K@?$output_processor@_WV?$stream_output_adapter@_W@__crt_stdio_output@@V?$positional_parameter_base@_WV?$stream_output_adapter@_W@__crt_stdio_output@@@2@@__crt_stdio_output@@AAEX_KI_N@Z 00436f20 f i libucrtd:output.obj
 0001:00036060       ??$type_case_integer_parse_into_buffer@_K@?$output_processor@_WV?$stream_output_adapter@_W@__crt_stdio_output@@V?$standard_base@_WV?$stream_output_adapter@_W@__crt_stdio_output@@@2@@__crt_stdio_output@@AAEX_KI_N@Z 00437060 f i libucrtd:output.obj
 0001:000361a0       ??$type_case_integer_parse_into_buffer@_K@?$output_processor@_WV?$string_output_adapter@_W@__crt_stdio_output@@V?$format_validation_base@_WV?$string_output_adapter@_W@__crt_stdio_output@@@2@@__crt_stdio_output@@AAEX_KI_N@Z 004371a0 f i libucrtd:output.obj
 0001:000362e0       ??$type_case_integer_parse_into_buffer@_K@?$output_processor@_WV?$string_output_adapter@_W@__crt_stdio_output@@V?$positional_parameter_base@_WV?$string_output_adapter@_W@__crt_stdio_output@@@2@@__crt_stdio_output@@AAEX_KI_N@Z 004372e0 f i libucrtd:output.obj
 0001:00036420       ??$type_case_integer_parse_into_buffer@_K@?$output_processor@_WV?$string_output_adapter@_W@__crt_stdio_output@@V?$standard_base@_WV?$string_output_adapter@_W@__crt_stdio_output@@@2@@__crt_stdio_output@@AAEX_KI_N@Z 00437420 f i libucrtd:output.obj
 0001:00036560       ??$write_multiple_characters@V?$stream_output_adapter@D@__crt_stdio_output@@D@__crt_stdio_output@@YAXABV?$stream_output_adapter@D@0@DHQAH@Z 00437560 f i libucrtd:output.obj
 0001:000365c0       ??$write_multiple_characters@V?$stream_output_adapter@_W@__crt_stdio_output@@D@__crt_stdio_output@@YAXABV?$stream_output_adapter@_W@0@DHQAH@Z 004375c0 f i libucrtd:output.obj
 0001:00036620       ??$write_multiple_characters@V?$string_output_adapter@D@__crt_stdio_output@@D@__crt_stdio_output@@YAXABV?$string_output_adapter@D@0@DHQAH@Z 00437620 f i libucrtd:output.obj
 0001:00036680       ??$write_multiple_characters@V?$string_output_adapter@_W@__crt_stdio_output@@D@__crt_stdio_output@@YAXABV?$string_output_adapter@_W@0@DHQAH@Z 00437680 f i libucrtd:output.obj
 0001:00036b00       ??0?$common_data@D@__crt_stdio_output@@IAE@XZ 00437b00 f i libucrtd:output.obj
 0001:00036bd0       ??0?$common_data@_W@__crt_stdio_output@@IAE@XZ 00437bd0 f i libucrtd:output.obj
 0001:00036ca0       ??0?$output_adapter_data@DV?$stream_output_adapter@D@__crt_stdio_output@@@__crt_stdio_output@@IAE@ABV?$stream_output_adapter@D@1@_KQBDQAU__crt_locale_pointers@@QAD@Z 00437ca0 f i libucrtd:output.obj
 0001:00036d10       ??0?$output_adapter_data@DV?$string_output_adapter@D@__crt_stdio_output@@@__crt_stdio_output@@IAE@ABV?$string_output_adapter@D@1@_KQBDQAU__crt_locale_pointers@@QAD@Z 00437d10 f i libucrtd:output.obj
 0001:00036d80       ??0?$output_adapter_data@_WV?$stream_output_adapter@_W@__crt_stdio_output@@@__crt_stdio_output@@IAE@ABV?$stream_output_adapter@_W@1@_KQB_WQAU__crt_locale_pointers@@QAD@Z 00437d80 f i libucrtd:output.obj
 0001:00036df0       ??0?$output_adapter_data@_WV?$string_output_adapter@_W@__crt_stdio_output@@@__crt_stdio_output@@IAE@ABV?$string_output_adapter@_W@1@_KQB_WQAU__crt_locale_pointers@@QAD@Z 00437df0 f i libucrtd:output.obj
 0001:00036e60       ??0?$output_processor@DV?$stream_output_adapter@D@__crt_stdio_output@@V?$format_validation_base@DV?$stream_output_adapter@D@__crt_stdio_output@@@2@@__crt_stdio_output@@QAE@ABV?$stream_output_adapter@D@1@_KQBDQAU__crt_locale_pointers@@QAD@Z 00437e60 f i libucrtd:output.obj
 0001:00036ea0       ??0?$output_processor@DV?$stream_output_adapter@D@__crt_stdio_output@@V?$positional_parameter_base@DV?$stream_output_adapter@D@__crt_stdio_output@@@2@@__crt_stdio_output@@QAE@ABV?$stream_output_adapter@D@1@_KQBDQAU__crt_locale_pointers@@QAD@Z 00437ea0 f i libucrtd:output.obj
 0001:00036ee0       ??0?$output_processor@DV?$stream_output_adapter@D@__crt_stdio_output@@V?$standard_base@DV?$stream_output_adapter@D@__crt_stdio_output@@@2@@__crt_stdio_output@@QAE@ABV?$stream_output_adapter@D@1@_KQBDQAU__crt_locale_pointers@@QAD@Z 00437ee0 f i libucrtd:output.obj
 0001:00036f20       ??0?$output_processor@DV?$string_output_adapter@D@__crt_stdio_output@@V?$format_validation_base@DV?$string_output_adapter@D@__crt_stdio_output@@@2@@__crt_stdio_output@@QAE@ABV?$string_output_adapter@D@1@_KQBDQAU__crt_locale_pointers@@QAD@Z 00437f20 f i libucrtd:output.obj
 0001:00036f60       ??0?$output_processor@DV?$string_output_adapter@D@__crt_stdio_output@@V?$positional_parameter_base@DV?$string_output_adapter@D@__crt_stdio_output@@@2@@__crt_stdio_output@@QAE@ABV?$string_output_adapter@D@1@_KQBDQAU__crt_locale_pointers@@QAD@Z 00437f60 f i libucrtd:output.obj
 0001:00036fa0       ??0?$output_processor@DV?$string_output_adapter@D@__crt_stdio_output@@V?$standard_base@DV?$string_output_adapter@D@__crt_stdio_output@@@2@@__crt_stdio_output@@QAE@ABV?$string_output_adapter@D@1@_KQBDQAU__crt_locale_pointers@@QAD@Z 00437fa0 f i libucrtd:output.obj
 0001:00036fe0       ??0?$output_processor@_WV?$stream_output_adapter@_W@__crt_stdio_output@@V?$format_validation_base@_WV?$stream_output_adapter@_W@__crt_stdio_output@@@2@@__crt_stdio_output@@QAE@ABV?$stream_output_adapter@_W@1@_KQB_WQAU__crt_locale_pointers@@QAD@Z 00437fe0 f i libucrtd:output.obj
 0001:00037020       ??0?$output_processor@_WV?$stream_output_adapter@_W@__crt_stdio_output@@V?$positional_parameter_base@_WV?$stream_output_adapter@_W@__crt_stdio_output@@@2@@__crt_stdio_output@@QAE@ABV?$stream_output_adapter@_W@1@_KQB_WQAU__crt_locale_pointers@@QAD@Z 00438020 f i libucrtd:output.obj
 0001:00037060       ??0?$output_processor@_WV?$stream_output_adapter@_W@__crt_stdio_output@@V?$standard_base@_WV?$stream_output_adapter@_W@__crt_stdio_output@@@2@@__crt_stdio_output@@QAE@ABV?$stream_output_adapter@_W@1@_KQB_WQAU__crt_locale_pointers@@QAD@Z 00438060 f i libucrtd:output.obj
 0001:000370a0       ??0?$output_processor@_WV?$string_output_adapter@_W@__crt_stdio_output@@V?$format_validation_base@_WV?$string_output_adapter@_W@__crt_stdio_output@@@2@@__crt_stdio_output@@QAE@ABV?$string_output_adapter@_W@1@_KQB_WQAU__crt_locale_pointers@@QAD@Z 004380a0 f i libucrtd:output.obj
 0001:000370e0       ??0?$output_processor@_WV?$string_output_adapter@_W@__crt_stdio_output@@V?$positional_parameter_base@_WV?$string_output_adapter@_W@__crt_stdio_output@@@2@@__crt_stdio_output@@QAE@ABV?$string_output_adapter@_W@1@_KQB_WQAU__crt_locale_pointers@@QAD@Z 004380e0 f i libucrtd:output.obj
 0001:00037120       ??0?$output_processor@_WV?$string_output_adapter@_W@__crt_stdio_output@@V?$standard_base@_WV?$string_output_adapter@_W@__crt_stdio_output@@@2@@__crt_stdio_output@@QAE@ABV?$string_output_adapter@_W@1@_KQB_WQAU__crt_locale_pointers@@QAD@Z 00438120 f i libucrtd:output.obj
 0001:00037160       ??0?$stream_output_adapter@D@__crt_stdio_output@@QAE@QAU_iobuf@@@Z 00438160 f i libucrtd:output.obj
 0001:00037190       ??0?$stream_output_adapter@_W@__crt_stdio_output@@QAE@QAU_iobuf@@@Z 00438190 f i libucrtd:output.obj
 0001:000371c0       ??0?$string_output_adapter@D@__crt_stdio_output@@QAE@QAU?$string_output_adapter_context@D@1@@Z 004381c0 f i libucrtd:output.obj
 0001:000371e0       ??0?$string_output_adapter@_W@__crt_stdio_output@@QAE@QAU?$string_output_adapter_context@_W@1@@Z 004381e0 f i libucrtd:output.obj
 0001:00037200       ??0_LocaleUpdate@@QAE@QAU__crt_locale_pointers@@@Z 00438200 f i libucrtd:output.obj
 0001:00037310       ??0__acrt_stdio_temporary_buffering_guard@@QAE@QAU_iobuf@@@Z 00438310 f i libucrtd:output.obj
 0001:00037350       ??0__crt_deferred_errno_cache@@QAE@XZ 00438350 f i libucrtd:output.obj
 0001:00037370       ??0__crt_errno_guard@@QAE@QAH@Z 00438370 f i libucrtd:output.obj
 0001:000373b0       ??0formatting_buffer@__crt_stdio_output@@QAE@XZ 004383b0 f i libucrtd:output.obj
 0001:000373f0       ??1?$common_data@D@__crt_stdio_output@@QAE@XZ 004383f0 f i libucrtd:output.obj
 0001:00037410       ??1?$common_data@_W@__crt_stdio_output@@QAE@XZ 00438410 f i libucrtd:output.obj
 0001:00037430       ??1?$format_validation_base@DV?$stream_output_adapter@D@__crt_stdio_output@@@__crt_stdio_output@@QAE@XZ 00438430 f i libucrtd:output.obj
 0001:00037450       ??1?$format_validation_base@DV?$string_output_adapter@D@__crt_stdio_output@@@__crt_stdio_output@@QAE@XZ 00438450 f i libucrtd:output.obj
 0001:00037470       ??1?$format_validation_base@_WV?$stream_output_adapter@_W@__crt_stdio_output@@@__crt_stdio_output@@QAE@XZ 00438470 f i libucrtd:output.obj
 0001:00037490       ??1?$format_validation_base@_WV?$string_output_adapter@_W@__crt_stdio_output@@@__crt_stdio_output@@QAE@XZ 00438490 f i libucrtd:output.obj
 0001:000374b0       ??1?$output_adapter_data@DV?$stream_output_adapter@D@__crt_stdio_output@@@__crt_stdio_output@@QAE@XZ 004384b0 f i libucrtd:output.obj
 0001:000374d0       ??1?$output_adapter_data@DV?$string_output_adapter@D@__crt_stdio_output@@@__crt_stdio_output@@QAE@XZ 004384d0 f i libucrtd:output.obj
 0001:000374f0       ??1?$output_adapter_data@_WV?$stream_output_adapter@_W@__crt_stdio_output@@@__crt_stdio_output@@QAE@XZ 004384f0 f i libucrtd:output.obj
 0001:00037510       ??1?$output_adapter_data@_WV?$string_output_adapter@_W@__crt_stdio_output@@@__crt_stdio_output@@QAE@XZ 00438510 f i libucrtd:output.obj
 0001:00037530       ??1?$output_processor@DV?$stream_output_adapter@D@__crt_stdio_output@@V?$format_validation_base@DV?$stream_output_adapter@D@__crt_stdio_output@@@2@@__crt_stdio_output@@QAE@XZ 00438530 f i libucrtd:output.obj
 0001:00037550       ??1?$output_processor@DV?$stream_output_adapter@D@__crt_stdio_output@@V?$positional_parameter_base@DV?$stream_output_adapter@D@__crt_stdio_output@@@2@@__crt_stdio_output@@QAE@XZ 00438550 f i libucrtd:output.obj
 0001:00037570       ??1?$output_processor@DV?$stream_output_adapter@D@__crt_stdio_output@@V?$standard_base@DV?$stream_output_adapter@D@__crt_stdio_output@@@2@@__crt_stdio_output@@QAE@XZ 00438570 f i libucrtd:output.obj
 0001:00037590       ??1?$output_processor@DV?$string_output_adapter@D@__crt_stdio_output@@V?$format_validation_base@DV?$string_output_adapter@D@__crt_stdio_output@@@2@@__crt_stdio_output@@QAE@XZ 00438590 f i libucrtd:output.obj
 0001:000375b0       ??1?$output_processor@DV?$string_output_adapter@D@__crt_stdio_output@@V?$positional_parameter_base@DV?$string_output_adapter@D@__crt_stdio_output@@@2@@__crt_stdio_output@@QAE@XZ 004385b0 f i libucrtd:output.obj
 0001:000375d0       ??1?$output_processor@DV?$string_output_adapter@D@__crt_stdio_output@@V?$standard_base@DV?$string_output_adapter@D@__crt_stdio_output@@@2@@__crt_stdio_output@@QAE@XZ 004385d0 f i libucrtd:output.obj
 0001:000375f0       ??1?$output_processor@_WV?$stream_output_adapter@_W@__crt_stdio_output@@V?$format_validation_base@_WV?$stream_output_adapter@_W@__crt_stdio_output@@@2@@__crt_stdio_output@@QAE@XZ 004385f0 f i libucrtd:output.obj
 0001:00037610       ??1?$output_processor@_WV?$stream_output_adapter@_W@__crt_stdio_output@@V?$positional_parameter_base@_WV?$stream_output_adapter@_W@__crt_stdio_output@@@2@@__crt_stdio_output@@QAE@XZ 00438610 f i libucrtd:output.obj
 0001:00037630       ??1?$output_processor@_WV?$stream_output_adapter@_W@__crt_stdio_output@@V?$standard_base@_WV?$stream_output_adapter@_W@__crt_stdio_output@@@2@@__crt_stdio_output@@QAE@XZ 00438630 f i libucrtd:output.obj
 0001:00037650       ??1?$output_processor@_WV?$string_output_adapter@_W@__crt_stdio_output@@V?$format_validation_base@_WV?$string_output_adapter@_W@__crt_stdio_output@@@2@@__crt_stdio_output@@QAE@XZ 00438650 f i libucrtd:output.obj
 0001:00037670       ??1?$output_processor@_WV?$string_output_adapter@_W@__crt_stdio_output@@V?$positional_parameter_base@_WV?$string_output_adapter@_W@__crt_stdio_output@@@2@@__crt_stdio_output@@QAE@XZ 00438670 f i libucrtd:output.obj
 0001:00037690       ??1?$output_processor@_WV?$string_output_adapter@_W@__crt_stdio_output@@V?$standard_base@_WV?$string_output_adapter@_W@__crt_stdio_output@@@2@@__crt_stdio_output@@QAE@XZ 00438690 f i libucrtd:output.obj
 0001:000376b0       ??1?$positional_parameter_base@DV?$stream_output_adapter@D@__crt_stdio_output@@@__crt_stdio_output@@QAE@XZ 004386b0 f i libucrtd:output.obj
 0001:000376d0       ??1?$positional_parameter_base@DV?$string_output_adapter@D@__crt_stdio_output@@@__crt_stdio_output@@QAE@XZ 004386d0 f i libucrtd:output.obj
 0001:000376f0       ??1?$positional_parameter_base@_WV?$stream_output_adapter@_W@__crt_stdio_output@@@__crt_stdio_output@@QAE@XZ 004386f0 f i libucrtd:output.obj
 0001:00037710       ??1?$positional_parameter_base@_WV?$string_output_adapter@_W@__crt_stdio_output@@@__crt_stdio_output@@QAE@XZ 00438710 f i libucrtd:output.obj
 0001:00037730       ??1?$standard_base@DV?$stream_output_adapter@D@__crt_stdio_output@@@__crt_stdio_output@@QAE@XZ 00438730 f i libucrtd:output.obj
 0001:00037750       ??1?$standard_base@DV?$string_output_adapter@D@__crt_stdio_output@@@__crt_stdio_output@@QAE@XZ 00438750 f i libucrtd:output.obj
 0001:00037770       ??1?$standard_base@_WV?$stream_output_adapter@_W@__crt_stdio_output@@@__crt_stdio_output@@QAE@XZ 00438770 f i libucrtd:output.obj
 0001:00037790       ??1?$standard_base@_WV?$string_output_adapter@_W@__crt_stdio_output@@@__crt_stdio_output@@QAE@XZ 00438790 f i libucrtd:output.obj
 0001:000377b0       ??1_LocaleUpdate@@QAE@XZ   004387b0 f i libucrtd:output.obj
 0001:000377f0       ??1__acrt_stdio_temporary_buffering_guard@@QAE@XZ 004387f0 f i libucrtd:output.obj
 0001:00037820       ??1__crt_errno_guard@@QAE@XZ 00438820 f i libucrtd:output.obj
 0001:00037860       ??1formatting_buffer@__crt_stdio_output@@QAE@XZ 00438860 f i libucrtd:output.obj
 0001:00037890       ??4?$__crt_unique_heap_ptr@DU__crt_internal_free_policy@@@@QAEAAV0@$$QAV0@@Z 00438890 f i libucrtd:output.obj
 0001:000378d0       ??A?$spectre_mitigated_lookup_table@Ustate_transition_pair@__crt_stdio_output@@$0IA@@__crt_stdio_output@@QBEABUstate_transition_pair@1@I@Z 004388d0 f i libucrtd:output.obj
 0001:00038200       ?GetLocaleT@_LocaleUpdate@@QAEPAU__crt_locale_pointers@@XZ 00439200 f i libucrtd:output.obj
 0001:00038220       ?adjust_hexit@?$output_processor@DV?$stream_output_adapter@D@__crt_stdio_output@@V?$format_validation_base@DV?$stream_output_adapter@D@__crt_stdio_output@@@2@@__crt_stdio_output@@CADH_N@Z 00439220 f i libucrtd:output.obj
 0001:00038270       ?adjust_hexit@?$output_processor@DV?$stream_output_adapter@D@__crt_stdio_output@@V?$positional_parameter_base@DV?$stream_output_adapter@D@__crt_stdio_output@@@2@@__crt_stdio_output@@CADH_N@Z 00439270 f i libucrtd:output.obj
 0001:000382c0       ?adjust_hexit@?$output_processor@DV?$stream_output_adapter@D@__crt_stdio_output@@V?$standard_base@DV?$stream_output_adapter@D@__crt_stdio_output@@@2@@__crt_stdio_output@@CADH_N@Z 004392c0 f i libucrtd:output.obj
 0001:00038310       ?adjust_hexit@?$output_processor@DV?$string_output_adapter@D@__crt_stdio_output@@V?$format_validation_base@DV?$string_output_adapter@D@__crt_stdio_output@@@2@@__crt_stdio_output@@CADH_N@Z 00439310 f i libucrtd:output.obj
 0001:00038360       ?adjust_hexit@?$output_processor@DV?$string_output_adapter@D@__crt_stdio_output@@V?$positional_parameter_base@DV?$string_output_adapter@D@__crt_stdio_output@@@2@@__crt_stdio_output@@CADH_N@Z 00439360 f i libucrtd:output.obj
 0001:000383b0       ?adjust_hexit@?$output_processor@DV?$string_output_adapter@D@__crt_stdio_output@@V?$standard_base@DV?$string_output_adapter@D@__crt_stdio_output@@@2@@__crt_stdio_output@@CADH_N@Z 004393b0 f i libucrtd:output.obj
 0001:00038400       ?adjust_hexit@?$output_processor@_WV?$stream_output_adapter@_W@__crt_stdio_output@@V?$format_validation_base@_WV?$stream_output_adapter@_W@__crt_stdio_output@@@2@@__crt_stdio_output@@CADH_N@Z 00439400 f i libucrtd:output.obj
 0001:00038450       ?adjust_hexit@?$output_processor@_WV?$stream_output_adapter@_W@__crt_stdio_output@@V?$positional_parameter_base@_WV?$stream_output_adapter@_W@__crt_stdio_output@@@2@@__crt_stdio_output@@CADH_N@Z 00439450 f i libucrtd:output.obj
 0001:000384a0       ?adjust_hexit@?$output_processor@_WV?$stream_output_adapter@_W@__crt_stdio_output@@V?$standard_base@_WV?$stream_output_adapter@_W@__crt_stdio_output@@@2@@__crt_stdio_output@@CADH_N@Z 004394a0 f i libucrtd:output.obj
 0001:000384f0       ?adjust_hexit@?$output_processor@_WV?$string_output_adapter@_W@__crt_stdio_output@@V?$format_validation_base@_WV?$string_output_adapter@_W@__crt_stdio_output@@@2@@__crt_stdio_output@@CADH_N@Z 004394f0 f i libucrtd:output.obj
 0001:00038540       ?adjust_hexit@?$output_processor@_WV?$string_output_adapter@_W@__crt_stdio_output@@V?$positional_parameter_base@_WV?$string_output_adapter@_W@__crt_stdio_output@@@2@@__crt_stdio_output@@CADH_N@Z 00439540 f i libucrtd:output.obj
 0001:00038590       ?adjust_hexit@?$output_processor@_WV?$string_output_adapter@_W@__crt_stdio_output@@V?$standard_base@_WV?$string_output_adapter@_W@__crt_stdio_output@@@2@@__crt_stdio_output@@CADH_N@Z 00439590 f i libucrtd:output.obj
 0001:000385e0       ?advance_to_next_pass@?$positional_parameter_base@DV?$stream_output_adapter@D@__crt_stdio_output@@@__crt_stdio_output@@IAE_NXZ 004395e0 f i libucrtd:output.obj
 0001:000386a0       ?advance_to_next_pass@?$positional_parameter_base@DV?$string_output_adapter@D@__crt_stdio_output@@@__crt_stdio_output@@IAE_NXZ 004396a0 f i libucrtd:output.obj
 0001:00038760       ?advance_to_next_pass@?$positional_parameter_base@_WV?$stream_output_adapter@_W@__crt_stdio_output@@@__crt_stdio_output@@IAE_NXZ 00439760 f i libucrtd:output.obj
 0001:00038820       ?advance_to_next_pass@?$positional_parameter_base@_WV?$string_output_adapter@_W@__crt_stdio_output@@@__crt_stdio_output@@IAE_NXZ 00439820 f i libucrtd:output.obj
 0001:000388e0       ?advance_to_next_pass@?$standard_base@DV?$stream_output_adapter@D@__crt_stdio_output@@@__crt_stdio_output@@IAE_NXZ 004398e0 f i libucrtd:output.obj
 0001:00038940       ?advance_to_next_pass@?$standard_base@DV?$string_output_adapter@D@__crt_stdio_output@@@__crt_stdio_output@@IAE_NXZ 00439940 f i libucrtd:output.obj
 0001:000389a0       ?advance_to_next_pass@?$standard_base@_WV?$stream_output_adapter@_W@__crt_stdio_output@@@__crt_stdio_output@@IAE_NXZ 004399a0 f i libucrtd:output.obj
 0001:00038a00       ?advance_to_next_pass@?$standard_base@_WV?$string_output_adapter@_W@__crt_stdio_output@@@__crt_stdio_output@@IAE_NXZ 00439a00 f i libucrtd:output.obj
 0001:00038a60       ?crop_zeroes@__crt_stdio_output@@YAXPADQAU__crt_locale_pointers@@@Z 00439a60 f i libucrtd:output.obj
 0001:00038b90       ?find_next_state@?$output_processor@DV?$stream_output_adapter@D@__crt_stdio_output@@V?$format_validation_base@DV?$stream_output_adapter@D@__crt_stdio_output@@@2@@__crt_stdio_output@@ABE?AW4state@2@DW432@@Z 00439b90 f i libucrtd:output.obj
 0001:00038c20       ?find_next_state@?$output_processor@DV?$stream_output_adapter@D@__crt_stdio_output@@V?$positional_parameter_base@DV?$stream_output_adapter@D@__crt_stdio_output@@@2@@__crt_stdio_output@@ABE?AW4state@2@DW432@@Z 00439c20 f i libucrtd:output.obj
 0001:00038cb0       ?find_next_state@?$output_processor@DV?$stream_output_adapter@D@__crt_stdio_output@@V?$standard_base@DV?$stream_output_adapter@D@__crt_stdio_output@@@2@@__crt_stdio_output@@ABE?AW4state@2@DW432@@Z 00439cb0 f i libucrtd:output.obj
 0001:00038d40       ?find_next_state@?$output_processor@DV?$string_output_adapter@D@__crt_stdio_output@@V?$format_validation_base@DV?$string_output_adapter@D@__crt_stdio_output@@@2@@__crt_stdio_output@@ABE?AW4state@2@DW432@@Z 00439d40 f i libucrtd:output.obj
 0001:00038dd0       ?find_next_state@?$output_processor@DV?$string_output_adapter@D@__crt_stdio_output@@V?$positional_parameter_base@DV?$string_output_adapter@D@__crt_stdio_output@@@2@@__crt_stdio_output@@ABE?AW4state@2@DW432@@Z 00439dd0 f i libucrtd:output.obj
 0001:00038e60       ?find_next_state@?$output_processor@DV?$string_output_adapter@D@__crt_stdio_output@@V?$standard_base@DV?$string_output_adapter@D@__crt_stdio_output@@@2@@__crt_stdio_output@@ABE?AW4state@2@DW432@@Z 00439e60 f i libucrtd:output.obj
 0001:00038ef0       ?find_next_state@?$output_processor@_WV?$stream_output_adapter@_W@__crt_stdio_output@@V?$format_validation_base@_WV?$stream_output_adapter@_W@__crt_stdio_output@@@2@@__crt_stdio_output@@ABE?AW4state@2@_WW432@@Z 00439ef0 f i libucrtd:output.obj
 0001:00038f80       ?find_next_state@?$output_processor@_WV?$stream_output_adapter@_W@__crt_stdio_output@@V?$positional_parameter_base@_WV?$stream_output_adapter@_W@__crt_stdio_output@@@2@@__crt_stdio_output@@ABE?AW4state@2@_WW432@@Z 00439f80 f i libucrtd:output.obj
 0001:00039010       ?find_next_state@?$output_processor@_WV?$stream_output_adapter@_W@__crt_stdio_output@@V?$standard_base@_WV?$stream_output_adapter@_W@__crt_stdio_output@@@2@@__crt_stdio_output@@ABE?AW4state@2@_WW432@@Z 0043a010 f i libucrtd:output.obj
 0001:000390a0       ?find_next_state@?$output_processor@_WV?$string_output_adapter@_W@__crt_stdio_output@@V?$format_validation_base@_WV?$string_output_adapter@_W@__crt_stdio_output@@@2@@__crt_stdio_output@@ABE?AW4state@2@_WW432@@Z 0043a0a0 f i libucrtd:output.obj
 0001:00039130       ?find_next_state@?$output_processor@_WV?$string_output_adapter@_W@__crt_stdio_output@@V?$positional_parameter_base@_WV?$string_output_adapter@_W@__crt_stdio_output@@@2@@__crt_stdio_output@@ABE?AW4state@2@_WW432@@Z 0043a130 f i libucrtd:output.obj
 0001:000391c0       ?find_next_state@?$output_processor@_WV?$string_output_adapter@_W@__crt_stdio_output@@V?$standard_base@_WV?$string_output_adapter@_W@__crt_stdio_output@@@2@@__crt_stdio_output@@ABE?AW4state@2@_WW432@@Z 0043a1c0 f i libucrtd:output.obj
 0001:00039250       ?force_decimal_point@__crt_stdio_output@@YAXPADQAU__crt_locale_pointers@@@Z 0043a250 f i libucrtd:output.obj
 0001:00039350       ?get@__crt_deferred_errno_cache@@QAEAAHXZ 0043a350 f i libucrtd:output.obj
 0001:00039380       ?get_parameter_type@?$positional_parameter_base@DV?$stream_output_adapter@D@__crt_stdio_output@@@__crt_stdio_output@@CA?AW4parameter_type@12@F@Z 0043a380 f i libucrtd:output.obj
 0001:00039390       ?get_parameter_type@?$positional_parameter_base@DV?$stream_output_adapter@D@__crt_stdio_output@@@__crt_stdio_output@@CA?AW4parameter_type@12@G@Z 0043a390 f i libucrtd:output.obj
 0001:000393a0       ?get_parameter_type@?$positional_parameter_base@DV?$stream_output_adapter@D@__crt_stdio_output@@@__crt_stdio_output@@CA?AW4parameter_type@12@H@Z 0043a3a0 f i libucrtd:output.obj
 0001:000393b0       ?get_parameter_type@?$positional_parameter_base@DV?$stream_output_adapter@D@__crt_stdio_output@@@__crt_stdio_output@@CA?AW4parameter_type@12@I@Z 0043a3b0 f i libucrtd:output.obj
 0001:000393c0       ?get_parameter_type@?$positional_parameter_base@DV?$stream_output_adapter@D@__crt_stdio_output@@@__crt_stdio_output@@CA?AW4parameter_type@12@U_CRT_DOUBLE@@@Z 0043a3c0 f i libucrtd:output.obj
 0001:000393d0       ?get_parameter_type@?$positional_parameter_base@DV?$stream_output_adapter@D@__crt_stdio_output@@@__crt_stdio_output@@CA?AW4parameter_type@12@_J@Z 0043a3d0 f i libucrtd:output.obj
 0001:000393e0       ?get_parameter_type@?$positional_parameter_base@DV?$stream_output_adapter@D@__crt_stdio_output@@@__crt_stdio_output@@CA?AW4parameter_type@12@_K@Z 0043a3e0 f i libucrtd:output.obj
 0001:000393f0       ?get_parameter_type@?$positional_parameter_base@DV?$stream_output_adapter@D@__crt_stdio_output@@@__crt_stdio_output@@CA?AW4parameter_type@12@_W@Z 0043a3f0 f i libucrtd:output.obj
 0001:00039400       ?get_parameter_type@?$positional_parameter_base@DV?$string_output_adapter@D@__crt_stdio_output@@@__crt_stdio_output@@CA?AW4parameter_type@12@F@Z 0043a400 f i libucrtd:output.obj
 0001:00039410       ?get_parameter_type@?$positional_parameter_base@DV?$string_output_adapter@D@__crt_stdio_output@@@__crt_stdio_output@@CA?AW4parameter_type@12@G@Z 0043a410 f i libucrtd:output.obj
 0001:00039420       ?get_parameter_type@?$positional_parameter_base@DV?$string_output_adapter@D@__crt_stdio_output@@@__crt_stdio_output@@CA?AW4parameter_type@12@H@Z 0043a420 f i libucrtd:output.obj
 0001:00039430       ?get_parameter_type@?$positional_parameter_base@DV?$string_output_adapter@D@__crt_stdio_output@@@__crt_stdio_output@@CA?AW4parameter_type@12@I@Z 0043a430 f i libucrtd:output.obj
 0001:00039440       ?get_parameter_type@?$positional_parameter_base@DV?$string_output_adapter@D@__crt_stdio_output@@@__crt_stdio_output@@CA?AW4parameter_type@12@U_CRT_DOUBLE@@@Z 0043a440 f i libucrtd:output.obj
 0001:00039450       ?get_parameter_type@?$positional_parameter_base@DV?$string_output_adapter@D@__crt_stdio_output@@@__crt_stdio_output@@CA?AW4parameter_type@12@_J@Z 0043a450 f i libucrtd:output.obj
 0001:00039460       ?get_parameter_type@?$positional_parameter_base@DV?$string_output_adapter@D@__crt_stdio_output@@@__crt_stdio_output@@CA?AW4parameter_type@12@_K@Z 0043a460 f i libucrtd:output.obj
 0001:00039470       ?get_parameter_type@?$positional_parameter_base@DV?$string_output_adapter@D@__crt_stdio_output@@@__crt_stdio_output@@CA?AW4parameter_type@12@_W@Z 0043a470 f i libucrtd:output.obj
 0001:00039480       ?get_parameter_type@?$positional_parameter_base@_WV?$stream_output_adapter@_W@__crt_stdio_output@@@__crt_stdio_output@@CA?AW4parameter_type@12@F@Z 0043a480 f i libucrtd:output.obj
 0001:00039490       ?get_parameter_type@?$positional_parameter_base@_WV?$stream_output_adapter@_W@__crt_stdio_output@@@__crt_stdio_output@@CA?AW4parameter_type@12@G@Z 0043a490 f i libucrtd:output.obj
 0001:000394a0       ?get_parameter_type@?$positional_parameter_base@_WV?$stream_output_adapter@_W@__crt_stdio_output@@@__crt_stdio_output@@CA?AW4parameter_type@12@H@Z 0043a4a0 f i libucrtd:output.obj
 0001:000394b0       ?get_parameter_type@?$positional_parameter_base@_WV?$stream_output_adapter@_W@__crt_stdio_output@@@__crt_stdio_output@@CA?AW4parameter_type@12@I@Z 0043a4b0 f i libucrtd:output.obj
 0001:000394c0       ?get_parameter_type@?$positional_parameter_base@_WV?$stream_output_adapter@_W@__crt_stdio_output@@@__crt_stdio_output@@CA?AW4parameter_type@12@U_CRT_DOUBLE@@@Z 0043a4c0 f i libucrtd:output.obj
 0001:000394d0       ?get_parameter_type@?$positional_parameter_base@_WV?$stream_output_adapter@_W@__crt_stdio_output@@@__crt_stdio_output@@CA?AW4parameter_type@12@_J@Z 0043a4d0 f i libucrtd:output.obj
 0001:000394e0       ?get_parameter_type@?$positional_parameter_base@_WV?$stream_output_adapter@_W@__crt_stdio_output@@@__crt_stdio_output@@CA?AW4parameter_type@12@_K@Z 0043a4e0 f i libucrtd:output.obj
 0001:000394f0       ?get_parameter_type@?$positional_parameter_base@_WV?$stream_output_adapter@_W@__crt_stdio_output@@@__crt_stdio_output@@CA?AW4parameter_type@12@_W@Z 0043a4f0 f i libucrtd:output.obj
 0001:00039500       ?get_parameter_type@?$positional_parameter_base@_WV?$string_output_adapter@_W@__crt_stdio_output@@@__crt_stdio_output@@CA?AW4parameter_type@12@F@Z 0043a500 f i libucrtd:output.obj
 0001:00039510       ?get_parameter_type@?$positional_parameter_base@_WV?$string_output_adapter@_W@__crt_stdio_output@@@__crt_stdio_output@@CA?AW4parameter_type@12@G@Z 0043a510 f i libucrtd:output.obj
 0001:00039520       ?get_parameter_type@?$positional_parameter_base@_WV?$string_output_adapter@_W@__crt_stdio_output@@@__crt_stdio_output@@CA?AW4parameter_type@12@H@Z 0043a520 f i libucrtd:output.obj
 0001:00039530       ?get_parameter_type@?$positional_parameter_base@_WV?$string_output_adapter@_W@__crt_stdio_output@@@__crt_stdio_output@@CA?AW4parameter_type@12@I@Z 0043a530 f i libucrtd:output.obj
 0001:00039540       ?get_parameter_type@?$positional_parameter_base@_WV?$string_output_adapter@_W@__crt_stdio_output@@@__crt_stdio_output@@CA?AW4parameter_type@12@U_CRT_DOUBLE@@@Z 0043a540 f i libucrtd:output.obj
 0001:00039550       ?get_parameter_type@?$positional_parameter_base@_WV?$string_output_adapter@_W@__crt_stdio_output@@@__crt_stdio_output@@CA?AW4parameter_type@12@_J@Z 0043a550 f i libucrtd:output.obj
 0001:00039560       ?get_parameter_type@?$positional_parameter_base@_WV?$string_output_adapter@_W@__crt_stdio_output@@@__crt_stdio_output@@CA?AW4parameter_type@12@_K@Z 0043a560 f i libucrtd:output.obj
 0001:00039570       ?get_parameter_type@?$positional_parameter_base@_WV?$string_output_adapter@_W@__crt_stdio_output@@@__crt_stdio_output@@CA?AW4parameter_type@12@_W@Z 0043a570 f i libucrtd:output.obj
 0001:00039580       ?has_flag@?$output_processor@DV?$stream_output_adapter@D@__crt_stdio_output@@V?$format_validation_base@DV?$stream_output_adapter@D@__crt_stdio_output@@@2@@__crt_stdio_output@@ABE_NI@Z 0043a580 f i libucrtd:output.obj
 0001:000395c0       ?has_flag@?$output_processor@DV?$stream_output_adapter@D@__crt_stdio_output@@V?$positional_parameter_base@DV?$stream_output_adapter@D@__crt_stdio_output@@@2@@__crt_stdio_output@@ABE_NI@Z 0043a5c0 f i libucrtd:output.obj
 0001:00039600       ?has_flag@?$output_processor@DV?$stream_output_adapter@D@__crt_stdio_output@@V?$standard_base@DV?$stream_output_adapter@D@__crt_stdio_output@@@2@@__crt_stdio_output@@ABE_NI@Z 0043a600 f i libucrtd:output.obj
 0001:00039640       ?has_flag@?$output_processor@DV?$string_output_adapter@D@__crt_stdio_output@@V?$format_validation_base@DV?$string_output_adapter@D@__crt_stdio_output@@@2@@__crt_stdio_output@@ABE_NI@Z 0043a640 f i libucrtd:output.obj
 0001:00039680       ?has_flag@?$output_processor@DV?$string_output_adapter@D@__crt_stdio_output@@V?$positional_parameter_base@DV?$string_output_adapter@D@__crt_stdio_output@@@2@@__crt_stdio_output@@ABE_NI@Z 0043a680 f i libucrtd:output.obj
 0001:000396c0       ?has_flag@?$output_processor@DV?$string_output_adapter@D@__crt_stdio_output@@V?$standard_base@DV?$string_output_adapter@D@__crt_stdio_output@@@2@@__crt_stdio_output@@ABE_NI@Z 0043a6c0 f i libucrtd:output.obj
 0001:00039700       ?has_flag@?$output_processor@_WV?$stream_output_adapter@_W@__crt_stdio_output@@V?$format_validation_base@_WV?$stream_output_adapter@_W@__crt_stdio_output@@@2@@__crt_stdio_output@@ABE_NI@Z 0043a700 f i libucrtd:output.obj
 0001:00039740       ?has_flag@?$output_processor@_WV?$stream_output_adapter@_W@__crt_stdio_output@@V?$positional_parameter_base@_WV?$stream_output_adapter@_W@__crt_stdio_output@@@2@@__crt_stdio_output@@ABE_NI@Z 0043a740 f i libucrtd:output.obj
 0001:00039780       ?has_flag@?$output_processor@_WV?$stream_output_adapter@_W@__crt_stdio_output@@V?$standard_base@_WV?$stream_output_adapter@_W@__crt_stdio_output@@@2@@__crt_stdio_output@@ABE_NI@Z 0043a780 f i libucrtd:output.obj
 0001:000397c0       ?has_flag@?$output_processor@_WV?$string_output_adapter@_W@__crt_stdio_output@@V?$format_validation_base@_WV?$string_output_adapter@_W@__crt_stdio_output@@@2@@__crt_stdio_output@@ABE_NI@Z 0043a7c0 f i libucrtd:output.obj
 0001:00039800       ?has_flag@?$output_processor@_WV?$string_output_adapter@_W@__crt_stdio_output@@V?$positional_parameter_base@_WV?$string_output_adapter@_W@__crt_stdio_output@@@2@@__crt_stdio_output@@ABE_NI@Z 0043a800 f i libucrtd:output.obj
 0001:00039840       ?has_flag@?$output_processor@_WV?$string_output_adapter@_W@__crt_stdio_output@@V?$standard_base@_WV?$string_output_adapter@_W@__crt_stdio_output@@@2@@__crt_stdio_output@@ABE_NI@Z 0043a840 f i libucrtd:output.obj
 0001:00039880       ?is_positional_parameter_reappearance_consistent@?$positional_parameter_base@DV?$stream_output_adapter@D@__crt_stdio_output@@@__crt_stdio_output@@AAE_NABUparameter_data@12@W4parameter_type@12@DW4length_modifier@2@@Z 0043a880 f i libucrtd:output.obj
 0001:00039b30       ?is_positional_parameter_reappearance_consistent@?$positional_parameter_base@DV?$string_output_adapter@D@__crt_stdio_output@@@__crt_stdio_output@@AAE_NABUparameter_data@12@W4parameter_type@12@DW4length_modifier@2@@Z 0043ab30 f i libucrtd:output.obj
 0001:00039de0       ?is_positional_parameter_reappearance_consistent@?$positional_parameter_base@_WV?$stream_output_adapter@_W@__crt_stdio_output@@@__crt_stdio_output@@AAE_NABUparameter_data@12@W4parameter_type@12@_WW4length_modifier@2@@Z 0043ade0 f i libucrtd:output.obj
 0001:0003a090       ?is_positional_parameter_reappearance_consistent@?$positional_parameter_base@_WV?$string_output_adapter@_W@__crt_stdio_output@@@__crt_stdio_output@@AAE_NABUparameter_data@12@W4parameter_type@12@_WW4length_modifier@2@@Z 0043b090 f i libucrtd:output.obj
 0001:0003a340       ?narrow_null_string@?$output_processor@DV?$stream_output_adapter@D@__crt_stdio_output@@V?$format_validation_base@DV?$stream_output_adapter@D@__crt_stdio_output@@@2@@__crt_stdio_output@@CAPADXZ 0043b340 f i libucrtd:output.obj
 0001:0003a350       ?narrow_null_string@?$output_processor@DV?$stream_output_adapter@D@__crt_stdio_output@@V?$positional_parameter_base@DV?$stream_output_adapter@D@__crt_stdio_output@@@2@@__crt_stdio_output@@CAPADXZ 0043b350 f i libucrtd:output.obj
 0001:0003a360       ?narrow_null_string@?$output_processor@DV?$stream_output_adapter@D@__crt_stdio_output@@V?$standard_base@DV?$stream_output_adapter@D@__crt_stdio_output@@@2@@__crt_stdio_output@@CAPADXZ 0043b360 f i libucrtd:output.obj
 0001:0003a370       ?narrow_null_string@?$output_processor@DV?$string_output_adapter@D@__crt_stdio_output@@V?$format_validation_base@DV?$string_output_adapter@D@__crt_stdio_output@@@2@@__crt_stdio_output@@CAPADXZ 0043b370 f i libucrtd:output.obj
 0001:0003a380       ?narrow_null_string@?$output_processor@DV?$string_output_adapter@D@__crt_stdio_output@@V?$positional_parameter_base@DV?$string_output_adapter@D@__crt_stdio_output@@@2@@__crt_stdio_output@@CAPADXZ 0043b380 f i libucrtd:output.obj
 0001:0003a390       ?narrow_null_string@?$output_processor@DV?$string_output_adapter@D@__crt_stdio_output@@V?$standard_base@DV?$string_output_adapter@D@__crt_stdio_output@@@2@@__crt_stdio_output@@CAPADXZ 0043b390 f i libucrtd:output.obj
 0001:0003a3a0       ?narrow_null_string@?$output_processor@_WV?$stream_output_adapter@_W@__crt_stdio_output@@V?$format_validation_base@_WV?$stream_output_adapter@_W@__crt_stdio_output@@@2@@__crt_stdio_output@@CAPADXZ 0043b3a0 f i libucrtd:output.obj
 0001:0003a3b0       ?narrow_null_string@?$output_processor@_WV?$stream_output_adapter@_W@__crt_stdio_output@@V?$positional_parameter_base@_WV?$stream_output_adapter@_W@__crt_stdio_output@@@2@@__crt_stdio_output@@CAPADXZ 0043b3b0 f i libucrtd:output.obj
 0001:0003a3c0       ?narrow_null_string@?$output_processor@_WV?$stream_output_adapter@_W@__crt_stdio_output@@V?$standard_base@_WV?$stream_output_adapter@_W@__crt_stdio_output@@@2@@__crt_stdio_output@@CAPADXZ 0043b3c0 f i libucrtd:output.obj
 0001:0003a3d0       ?narrow_null_string@?$output_processor@_WV?$string_output_adapter@_W@__crt_stdio_output@@V?$format_validation_base@_WV?$string_output_adapter@_W@__crt_stdio_output@@@2@@__crt_stdio_output@@CAPADXZ 0043b3d0 f i libucrtd:output.obj
 0001:0003a3e0       ?narrow_null_string@?$output_processor@_WV?$string_output_adapter@_W@__crt_stdio_output@@V?$positional_parameter_base@_WV?$string_output_adapter@_W@__crt_stdio_output@@@2@@__crt_stdio_output@@CAPADXZ 0043b3e0 f i libucrtd:output.obj
 0001:0003a3f0       ?narrow_null_string@?$output_processor@_WV?$string_output_adapter@_W@__crt_stdio_output@@V?$standard_base@_WV?$string_output_adapter@_W@__crt_stdio_output@@@2@@__crt_stdio_output@@CAPADXZ 0043b3f0 f i libucrtd:output.obj
 0001:0003a400       ?parse_int_from_format_string@?$output_processor@DV?$stream_output_adapter@D@__crt_stdio_output@@V?$format_validation_base@DV?$stream_output_adapter@D@__crt_stdio_output@@@2@@__crt_stdio_output@@AAE_NQAH@Z 0043b400 f i libucrtd:output.obj
 0001:0003a4e0       ?parse_int_from_format_string@?$output_processor@DV?$stream_output_adapter@D@__crt_stdio_output@@V?$positional_parameter_base@DV?$stream_output_adapter@D@__crt_stdio_output@@@2@@__crt_stdio_output@@AAE_NQAH@Z 0043b4e0 f i libucrtd:output.obj
 0001:0003a5c0       ?parse_int_from_format_string@?$output_processor@DV?$stream_output_adapter@D@__crt_stdio_output@@V?$standard_base@DV?$stream_output_adapter@D@__crt_stdio_output@@@2@@__crt_stdio_output@@AAE_NQAH@Z 0043b5c0 f i libucrtd:output.obj
 0001:0003a6a0       ?parse_int_from_format_string@?$output_processor@DV?$string_output_adapter@D@__crt_stdio_output@@V?$format_validation_base@DV?$string_output_adapter@D@__crt_stdio_output@@@2@@__crt_stdio_output@@AAE_NQAH@Z 0043b6a0 f i libucrtd:output.obj
 0001:0003a780       ?parse_int_from_format_string@?$output_processor@DV?$string_output_adapter@D@__crt_stdio_output@@V?$positional_parameter_base@DV?$string_output_adapter@D@__crt_stdio_output@@@2@@__crt_stdio_output@@AAE_NQAH@Z 0043b780 f i libucrtd:output.obj
 0001:0003a860       ?parse_int_from_format_string@?$output_processor@DV?$string_output_adapter@D@__crt_stdio_output@@V?$standard_base@DV?$string_output_adapter@D@__crt_stdio_output@@@2@@__crt_stdio_output@@AAE_NQAH@Z 0043b860 f i libucrtd:output.obj
 0001:0003a940       ?parse_int_from_format_string@?$output_processor@_WV?$stream_output_adapter@_W@__crt_stdio_output@@V?$format_validation_base@_WV?$stream_output_adapter@_W@__crt_stdio_output@@@2@@__crt_stdio_output@@AAE_NQAH@Z 0043b940 f i libucrtd:output.obj
 0001:0003aa20       ?parse_int_from_format_string@?$output_processor@_WV?$stream_output_adapter@_W@__crt_stdio_output@@V?$positional_parameter_base@_WV?$stream_output_adapter@_W@__crt_stdio_output@@@2@@__crt_stdio_output@@AAE_NQAH@Z 0043ba20 f i libucrtd:output.obj
 0001:0003ab00       ?parse_int_from_format_string@?$output_processor@_WV?$stream_output_adapter@_W@__crt_stdio_output@@V?$standard_base@_WV?$stream_output_adapter@_W@__crt_stdio_output@@@2@@__crt_stdio_output@@AAE_NQAH@Z 0043bb00 f i libucrtd:output.obj
 0001:0003abe0       ?parse_int_from_format_string@?$output_processor@_WV?$string_output_adapter@_W@__crt_stdio_output@@V?$format_validation_base@_WV?$string_output_adapter@_W@__crt_stdio_output@@@2@@__crt_stdio_output@@AAE_NQAH@Z 0043bbe0 f i libucrtd:output.obj
 0001:0003acc0       ?parse_int_from_format_string@?$output_processor@_WV?$string_output_adapter@_W@__crt_stdio_output@@V?$positional_parameter_base@_WV?$string_output_adapter@_W@__crt_stdio_output@@@2@@__crt_stdio_output@@AAE_NQAH@Z 0043bcc0 f i libucrtd:output.obj
 0001:0003ada0       ?parse_int_from_format_string@?$output_processor@_WV?$string_output_adapter@_W@__crt_stdio_output@@V?$standard_base@_WV?$string_output_adapter@_W@__crt_stdio_output@@@2@@__crt_stdio_output@@AAE_NQAH@Z 0043bda0 f i libucrtd:output.obj
 0001:0003ae80       ?process@?$output_processor@DV?$stream_output_adapter@D@__crt_stdio_output@@V?$format_validation_base@DV?$stream_output_adapter@D@__crt_stdio_output@@@2@@__crt_stdio_output@@QAEHXZ 0043be80 f i libucrtd:output.obj
 0001:0003b1d0       ?process@?$output_processor@DV?$stream_output_adapter@D@__crt_stdio_output@@V?$positional_parameter_base@DV?$stream_output_adapter@D@__crt_stdio_output@@@2@@__crt_stdio_output@@QAEHXZ 0043c1d0 f i libucrtd:output.obj
 0001:0003b520       ?process@?$output_processor@DV?$stream_output_adapter@D@__crt_stdio_output@@V?$standard_base@DV?$stream_output_adapter@D@__crt_stdio_output@@@2@@__crt_stdio_output@@QAEHXZ 0043c520 f i libucrtd:output.obj
 0001:0003b870       ?process@?$output_processor@DV?$string_output_adapter@D@__crt_stdio_output@@V?$format_validation_base@DV?$string_output_adapter@D@__crt_stdio_output@@@2@@__crt_stdio_output@@QAEHXZ 0043c870 f i libucrtd:output.obj
 0001:0003bbc0       ?process@?$output_processor@DV?$string_output_adapter@D@__crt_stdio_output@@V?$positional_parameter_base@DV?$string_output_adapter@D@__crt_stdio_output@@@2@@__crt_stdio_output@@QAEHXZ 0043cbc0 f i libucrtd:output.obj
 0001:0003bf10       ?process@?$output_processor@DV?$string_output_adapter@D@__crt_stdio_output@@V?$standard_base@DV?$string_output_adapter@D@__crt_stdio_output@@@2@@__crt_stdio_output@@QAEHXZ 0043cf10 f i libucrtd:output.obj
 0001:0003c260       ?process@?$output_processor@_WV?$stream_output_adapter@_W@__crt_stdio_output@@V?$format_validation_base@_WV?$stream_output_adapter@_W@__crt_stdio_output@@@2@@__crt_stdio_output@@QAEHXZ 0043d260 f i libucrtd:output.obj
 0001:0003c5b0       ?process@?$output_processor@_WV?$stream_output_adapter@_W@__crt_stdio_output@@V?$positional_parameter_base@_WV?$stream_output_adapter@_W@__crt_stdio_output@@@2@@__crt_stdio_output@@QAEHXZ 0043d5b0 f i libucrtd:output.obj
 0001:0003c900       ?process@?$output_processor@_WV?$stream_output_adapter@_W@__crt_stdio_output@@V?$standard_base@_WV?$stream_output_adapter@_W@__crt_stdio_output@@@2@@__crt_stdio_output@@QAEHXZ 0043d900 f i libucrtd:output.obj
 0001:0003cc50       ?process@?$output_processor@_WV?$string_output_adapter@_W@__crt_stdio_output@@V?$format_validation_base@_WV?$string_output_adapter@_W@__crt_stdio_output@@@2@@__crt_stdio_output@@QAEHXZ 0043dc50 f i libucrtd:output.obj
 0001:0003cfa0       ?process@?$output_processor@_WV?$string_output_adapter@_W@__crt_stdio_output@@V?$positional_parameter_base@_WV?$string_output_adapter@_W@__crt_stdio_output@@@2@@__crt_stdio_output@@QAEHXZ 0043dfa0 f i libucrtd:output.obj
 0001:0003d2f0       ?process@?$output_processor@_WV?$string_output_adapter@_W@__crt_stdio_output@@V?$standard_base@_WV?$string_output_adapter@_W@__crt_stdio_output@@@2@@__crt_stdio_output@@QAEHXZ 0043e2f0 f i libucrtd:output.obj
 0001:0003d640       ?set_flag@?$output_processor@DV?$stream_output_adapter@D@__crt_stdio_output@@V?$format_validation_base@DV?$stream_output_adapter@D@__crt_stdio_output@@@2@@__crt_stdio_output@@AAEXI@Z 0043e640 f i libucrtd:output.obj
 0001:0003d670       ?set_flag@?$output_processor@DV?$stream_output_adapter@D@__crt_stdio_output@@V?$positional_parameter_base@DV?$stream_output_adapter@D@__crt_stdio_output@@@2@@__crt_stdio_output@@AAEXI@Z 0043e670 f i libucrtd:output.obj
 0001:0003d6a0       ?set_flag@?$output_processor@DV?$stream_output_adapter@D@__crt_stdio_output@@V?$standard_base@DV?$stream_output_adapter@D@__crt_stdio_output@@@2@@__crt_stdio_output@@AAEXI@Z 0043e6a0 f i libucrtd:output.obj
 0001:0003d6d0       ?set_flag@?$output_processor@DV?$string_output_adapter@D@__crt_stdio_output@@V?$format_validation_base@DV?$string_output_adapter@D@__crt_stdio_output@@@2@@__crt_stdio_output@@AAEXI@Z 0043e6d0 f i libucrtd:output.obj
 0001:0003d700       ?set_flag@?$output_processor@DV?$string_output_adapter@D@__crt_stdio_output@@V?$positional_parameter_base@DV?$string_output_adapter@D@__crt_stdio_output@@@2@@__crt_stdio_output@@AAEXI@Z 0043e700 f i libucrtd:output.obj
 0001:0003d730       ?set_flag@?$output_processor@DV?$string_output_adapter@D@__crt_stdio_output@@V?$standard_base@DV?$string_output_adapter@D@__crt_stdio_output@@@2@@__crt_stdio_output@@AAEXI@Z 0043e730 f i libucrtd:output.obj
 0001:0003d760       ?set_flag@?$output_processor@_WV?$stream_output_adapter@_W@__crt_stdio_output@@V?$format_validation_base@_WV?$stream_output_adapter@_W@__crt_stdio_output@@@2@@__crt_stdio_output@@AAEXI@Z 0043e760 f i libucrtd:output.obj
 0001:0003d790       ?set_flag@?$output_processor@_WV?$stream_output_adapter@_W@__crt_stdio_output@@V?$positional_parameter_base@_WV?$stream_output_adapter@_W@__crt_stdio_output@@@2@@__crt_stdio_output@@AAEXI@Z 0043e790 f i libucrtd:output.obj
 0001:0003d7c0       ?set_flag@?$output_processor@_WV?$stream_output_adapter@_W@__crt_stdio_output@@V?$standard_base@_WV?$stream_output_adapter@_W@__crt_stdio_output@@@2@@__crt_stdio_output@@AAEXI@Z 0043e7c0 f i libucrtd:output.obj
 0001:0003d7f0       ?set_flag@?$output_processor@_WV?$string_output_adapter@_W@__crt_stdio_output@@V?$format_validation_base@_WV?$string_output_adapter@_W@__crt_stdio_output@@@2@@__crt_stdio_output@@AAEXI@Z 0043e7f0 f i libucrtd:output.obj
 0001:0003d820       ?set_flag@?$output_processor@_WV?$string_output_adapter@_W@__crt_stdio_output@@V?$positional_parameter_base@_WV?$string_output_adapter@_W@__crt_stdio_output@@@2@@__crt_stdio_output@@AAEXI@Z 0043e820 f i libucrtd:output.obj
 0001:0003d850       ?set_flag@?$output_processor@_WV?$string_output_adapter@_W@__crt_stdio_output@@V?$standard_base@_WV?$string_output_adapter@_W@__crt_stdio_output@@@2@@__crt_stdio_output@@AAEXI@Z 0043e850 f i libucrtd:output.obj
 0001:0003d880       ?should_format@?$positional_parameter_base@DV?$stream_output_adapter@D@__crt_stdio_output@@@__crt_stdio_output@@IAE_NXZ 0043e880 f i libucrtd:output.obj
 0001:0003d8d0       ?should_format@?$positional_parameter_base@DV?$string_output_adapter@D@__crt_stdio_output@@@__crt_stdio_output@@IAE_NXZ 0043e8d0 f i libucrtd:output.obj
 0001:0003d920       ?should_format@?$positional_parameter_base@_WV?$stream_output_adapter@_W@__crt_stdio_output@@@__crt_stdio_output@@IAE_NXZ 0043e920 f i libucrtd:output.obj
 0001:0003d970       ?should_format@?$positional_parameter_base@_WV?$string_output_adapter@_W@__crt_stdio_output@@@__crt_stdio_output@@IAE_NXZ 0043e970 f i libucrtd:output.obj
 0001:0003d9c0       ?should_format@?$standard_base@DV?$stream_output_adapter@D@__crt_stdio_output@@@__crt_stdio_output@@IAE_NXZ 0043e9c0 f i libucrtd:output.obj
 0001:0003d9e0       ?should_format@?$standard_base@DV?$string_output_adapter@D@__crt_stdio_output@@@__crt_stdio_output@@IAE_NXZ 0043e9e0 f i libucrtd:output.obj
 0001:0003da00       ?should_format@?$standard_base@_WV?$stream_output_adapter@_W@__crt_stdio_output@@@__crt_stdio_output@@IAE_NXZ 0043ea00 f i libucrtd:output.obj
 0001:0003da20       ?should_format@?$standard_base@_WV?$string_output_adapter@_W@__crt_stdio_output@@@__crt_stdio_output@@IAE_NXZ 0043ea20 f i libucrtd:output.obj
 0001:0003da40       ?should_skip_normal_state_processing@?$positional_parameter_base@DV?$stream_output_adapter@D@__crt_stdio_output@@@__crt_stdio_output@@IAE_NXZ 0043ea40 f i libucrtd:output.obj
 0001:0003daa0       ?should_skip_normal_state_processing@?$positional_parameter_base@DV?$string_output_adapter@D@__crt_stdio_output@@@__crt_stdio_output@@IAE_NXZ 0043eaa0 f i libucrtd:output.obj
 0001:0003db00       ?should_skip_normal_state_processing@?$positional_parameter_base@_WV?$stream_output_adapter@_W@__crt_stdio_output@@@__crt_stdio_output@@IAE_NXZ 0043eb00 f i libucrtd:output.obj
 0001:0003db60       ?should_skip_normal_state_processing@?$positional_parameter_base@_WV?$string_output_adapter@_W@__crt_stdio_output@@@__crt_stdio_output@@IAE_NXZ 0043eb60 f i libucrtd:output.obj
 0001:0003dbc0       ?should_skip_normal_state_processing@?$standard_base@DV?$stream_output_adapter@D@__crt_stdio_output@@@__crt_stdio_output@@IAE_NXZ 0043ebc0 f i libucrtd:output.obj
 0001:0003dbe0       ?should_skip_normal_state_processing@?$standard_base@DV?$string_output_adapter@D@__crt_stdio_output@@@__crt_stdio_output@@IAE_NXZ 0043ebe0 f i libucrtd:output.obj
 0001:0003dc00       ?should_skip_normal_state_processing@?$standard_base@_WV?$stream_output_adapter@_W@__crt_stdio_output@@@__crt_stdio_output@@IAE_NXZ 0043ec00 f i libucrtd:output.obj
 0001:0003dc20       ?should_skip_normal_state_processing@?$standard_base@_WV?$string_output_adapter@_W@__crt_stdio_output@@@__crt_stdio_output@@IAE_NXZ 0043ec20 f i libucrtd:output.obj
 0001:0003dc40       ?should_skip_type_state_output@?$positional_parameter_base@DV?$stream_output_adapter@D@__crt_stdio_output@@@__crt_stdio_output@@IBE_NXZ 0043ec40 f i libucrtd:output.obj
 0001:0003dc90       ?should_skip_type_state_output@?$positional_parameter_base@DV?$string_output_adapter@D@__crt_stdio_output@@@__crt_stdio_output@@IBE_NXZ 0043ec90 f i libucrtd:output.obj
 0001:0003dce0       ?should_skip_type_state_output@?$positional_parameter_base@_WV?$stream_output_adapter@_W@__crt_stdio_output@@@__crt_stdio_output@@IBE_NXZ 0043ece0 f i libucrtd:output.obj
 0001:0003dd30       ?should_skip_type_state_output@?$positional_parameter_base@_WV?$string_output_adapter@_W@__crt_stdio_output@@@__crt_stdio_output@@IBE_NXZ 0043ed30 f i libucrtd:output.obj
 0001:0003dd80       ?should_skip_type_state_output@?$standard_base@DV?$stream_output_adapter@D@__crt_stdio_output@@@__crt_stdio_output@@IBE_NXZ 0043ed80 f i libucrtd:output.obj
 0001:0003dda0       ?should_skip_type_state_output@?$standard_base@DV?$string_output_adapter@D@__crt_stdio_output@@@__crt_stdio_output@@IBE_NXZ 0043eda0 f i libucrtd:output.obj
 0001:0003ddc0       ?should_skip_type_state_output@?$standard_base@_WV?$stream_output_adapter@_W@__crt_stdio_output@@@__crt_stdio_output@@IBE_NXZ 0043edc0 f i libucrtd:output.obj
 0001:0003dde0       ?should_skip_type_state_output@?$standard_base@_WV?$string_output_adapter@_W@__crt_stdio_output@@@__crt_stdio_output@@IBE_NXZ 0043ede0 f i libucrtd:output.obj
 0001:0003de00       ?state_case_dot@?$output_processor@DV?$stream_output_adapter@D@__crt_stdio_output@@V?$format_validation_base@DV?$stream_output_adapter@D@__crt_stdio_output@@@2@@__crt_stdio_output@@AAE_NXZ 0043ee00 f i libucrtd:output.obj
 0001:0003de20       ?state_case_dot@?$output_processor@DV?$stream_output_adapter@D@__crt_stdio_output@@V?$positional_parameter_base@DV?$stream_output_adapter@D@__crt_stdio_output@@@2@@__crt_stdio_output@@AAE_NXZ 0043ee20 f i libucrtd:output.obj
 0001:0003de40       ?state_case_dot@?$output_processor@DV?$stream_output_adapter@D@__crt_stdio_output@@V?$standard_base@DV?$stream_output_adapter@D@__crt_stdio_output@@@2@@__crt_stdio_output@@AAE_NXZ 0043ee40 f i libucrtd:output.obj
 0001:0003de60       ?state_case_dot@?$output_processor@DV?$string_output_adapter@D@__crt_stdio_output@@V?$format_validation_base@DV?$string_output_adapter@D@__crt_stdio_output@@@2@@__crt_stdio_output@@AAE_NXZ 0043ee60 f i libucrtd:output.obj
 0001:0003de80       ?state_case_dot@?$output_processor@DV?$string_output_adapter@D@__crt_stdio_output@@V?$positional_parameter_base@DV?$string_output_adapter@D@__crt_stdio_output@@@2@@__crt_stdio_output@@AAE_NXZ 0043ee80 f i libucrtd:output.obj
 0001:0003dea0       ?state_case_dot@?$output_processor@DV?$string_output_adapter@D@__crt_stdio_output@@V?$standard_base@DV?$string_output_adapter@D@__crt_stdio_output@@@2@@__crt_stdio_output@@AAE_NXZ 0043eea0 f i libucrtd:output.obj
 0001:0003dec0       ?state_case_dot@?$output_processor@_WV?$stream_output_adapter@_W@__crt_stdio_output@@V?$format_validation_base@_WV?$stream_output_adapter@_W@__crt_stdio_output@@@2@@__crt_stdio_output@@AAE_NXZ 0043eec0 f i libucrtd:output.obj
 0001:0003dee0       ?state_case_dot@?$output_processor@_WV?$stream_output_adapter@_W@__crt_stdio_output@@V?$positional_parameter_base@_WV?$stream_output_adapter@_W@__crt_stdio_output@@@2@@__crt_stdio_output@@AAE_NXZ 0043eee0 f i libucrtd:output.obj
 0001:0003df00       ?state_case_dot@?$output_processor@_WV?$stream_output_adapter@_W@__crt_stdio_output@@V?$standard_base@_WV?$stream_output_adapter@_W@__crt_stdio_output@@@2@@__crt_stdio_output@@AAE_NXZ 0043ef00 f i libucrtd:output.obj
 0001:0003df20       ?state_case_dot@?$output_processor@_WV?$string_output_adapter@_W@__crt_stdio_output@@V?$format_validation_base@_WV?$string_output_adapter@_W@__crt_stdio_output@@@2@@__crt_stdio_output@@AAE_NXZ 0043ef20 f i libucrtd:output.obj
 0001:0003df40       ?state_case_dot@?$output_processor@_WV?$string_output_adapter@_W@__crt_stdio_output@@V?$positional_parameter_base@_WV?$string_output_adapter@_W@__crt_stdio_output@@@2@@__crt_stdio_output@@AAE_NXZ 0043ef40 f i libucrtd:output.obj
 0001:0003df60       ?state_case_dot@?$output_processor@_WV?$string_output_adapter@_W@__crt_stdio_output@@V?$standard_base@_WV?$string_output_adapter@_W@__crt_stdio_output@@@2@@__crt_stdio_output@@AAE_NXZ 0043ef60 f i libucrtd:output.obj
 0001:0003df80       ?state_case_flag@?$output_processor@DV?$stream_output_adapter@D@__crt_stdio_output@@V?$format_validation_base@DV?$stream_output_adapter@D@__crt_stdio_output@@@2@@__crt_stdio_output@@AAE_NXZ 0043ef80 f i libucrtd:output.obj
 0001:0003e050       ?state_case_flag@?$output_processor@DV?$stream_output_adapter@D@__crt_stdio_output@@V?$positional_parameter_base@DV?$stream_output_adapter@D@__crt_stdio_output@@@2@@__crt_stdio_output@@AAE_NXZ 0043f050 f i libucrtd:output.obj
 0001:0003e120       ?state_case_flag@?$output_processor@DV?$stream_output_adapter@D@__crt_stdio_output@@V?$standard_base@DV?$stream_output_adapter@D@__crt_stdio_output@@@2@@__crt_stdio_output@@AAE_NXZ 0043f120 f i libucrtd:output.obj
 0001:0003e1f0       ?state_case_flag@?$output_processor@DV?$string_output_adapter@D@__crt_stdio_output@@V?$format_validation_base@DV?$string_output_adapter@D@__crt_stdio_output@@@2@@__crt_stdio_output@@AAE_NXZ 0043f1f0 f i libucrtd:output.obj
 0001:0003e2c0       ?state_case_flag@?$output_processor@DV?$string_output_adapter@D@__crt_stdio_output@@V?$positional_parameter_base@DV?$string_output_adapter@D@__crt_stdio_output@@@2@@__crt_stdio_output@@AAE_NXZ 0043f2c0 f i libucrtd:output.obj
 0001:0003e390       ?state_case_flag@?$output_processor@DV?$string_output_adapter@D@__crt_stdio_output@@V?$standard_base@DV?$string_output_adapter@D@__crt_stdio_output@@@2@@__crt_stdio_output@@AAE_NXZ 0043f390 f i libucrtd:output.obj
 0001:0003e460       ?state_case_flag@?$output_processor@_WV?$stream_output_adapter@_W@__crt_stdio_output@@V?$format_validation_base@_WV?$stream_output_adapter@_W@__crt_stdio_output@@@2@@__crt_stdio_output@@AAE_NXZ 0043f460 f i libucrtd:output.obj
 0001:0003e530       ?state_case_flag@?$output_processor@_WV?$stream_output_adapter@_W@__crt_stdio_output@@V?$positional_parameter_base@_WV?$stream_output_adapter@_W@__crt_stdio_output@@@2@@__crt_stdio_output@@AAE_NXZ 0043f530 f i libucrtd:output.obj
 0001:0003e600       ?state_case_flag@?$output_processor@_WV?$stream_output_adapter@_W@__crt_stdio_output@@V?$standard_base@_WV?$stream_output_adapter@_W@__crt_stdio_output@@@2@@__crt_stdio_output@@AAE_NXZ 0043f600 f i libucrtd:output.obj
 0001:0003e6d0       ?state_case_flag@?$output_processor@_WV?$string_output_adapter@_W@__crt_stdio_output@@V?$format_validation_base@_WV?$string_output_adapter@_W@__crt_stdio_output@@@2@@__crt_stdio_output@@AAE_NXZ 0043f6d0 f i libucrtd:output.obj
 0001:0003e7a0       ?state_case_flag@?$output_processor@_WV?$string_output_adapter@_W@__crt_stdio_output@@V?$positional_parameter_base@_WV?$string_output_adapter@_W@__crt_stdio_output@@@2@@__crt_stdio_output@@AAE_NXZ 0043f7a0 f i libucrtd:output.obj
 0001:0003e870       ?state_case_flag@?$output_processor@_WV?$string_output_adapter@_W@__crt_stdio_output@@V?$standard_base@_WV?$string_output_adapter@_W@__crt_stdio_output@@@2@@__crt_stdio_output@@AAE_NXZ 0043f870 f i libucrtd:output.obj
 0001:0003e940       ?state_case_normal@?$output_processor@DV?$stream_output_adapter@D@__crt_stdio_output@@V?$format_validation_base@DV?$stream_output_adapter@D@__crt_stdio_output@@@2@@__crt_stdio_output@@AAE_NXZ 0043f940 f i libucrtd:output.obj
 0001:0003ea20       ?state_case_normal@?$output_processor@DV?$stream_output_adapter@D@__crt_stdio_output@@V?$positional_parameter_base@DV?$stream_output_adapter@D@__crt_stdio_output@@@2@@__crt_stdio_output@@AAE_NXZ 0043fa20 f i libucrtd:output.obj
 0001:0003eb00       ?state_case_normal@?$output_processor@DV?$stream_output_adapter@D@__crt_stdio_output@@V?$standard_base@DV?$stream_output_adapter@D@__crt_stdio_output@@@2@@__crt_stdio_output@@AAE_NXZ 0043fb00 f i libucrtd:output.obj
 0001:0003ebe0       ?state_case_normal@?$output_processor@DV?$string_output_adapter@D@__crt_stdio_output@@V?$format_validation_base@DV?$string_output_adapter@D@__crt_stdio_output@@@2@@__crt_stdio_output@@AAE_NXZ 0043fbe0 f i libucrtd:output.obj
 0001:0003ecc0       ?state_case_normal@?$output_processor@DV?$string_output_adapter@D@__crt_stdio_output@@V?$positional_parameter_base@DV?$string_output_adapter@D@__crt_stdio_output@@@2@@__crt_stdio_output@@AAE_NXZ 0043fcc0 f i libucrtd:output.obj
 0001:0003eda0       ?state_case_normal@?$output_processor@DV?$string_output_adapter@D@__crt_stdio_output@@V?$standard_base@DV?$string_output_adapter@D@__crt_stdio_output@@@2@@__crt_stdio_output@@AAE_NXZ 0043fda0 f i libucrtd:output.obj
 0001:0003ee80       ?state_case_normal@?$output_processor@_WV?$stream_output_adapter@_W@__crt_stdio_output@@V?$format_validation_base@_WV?$stream_output_adapter@_W@__crt_stdio_output@@@2@@__crt_stdio_output@@AAE_NXZ 0043fe80 f i libucrtd:output.obj
 0001:0003ef60       ?state_case_normal@?$output_processor@_WV?$stream_output_adapter@_W@__crt_stdio_output@@V?$positional_parameter_base@_WV?$stream_output_adapter@_W@__crt_stdio_output@@@2@@__crt_stdio_output@@AAE_NXZ 0043ff60 f i libucrtd:output.obj
 0001:0003f040       ?state_case_normal@?$output_processor@_WV?$stream_output_adapter@_W@__crt_stdio_output@@V?$standard_base@_WV?$stream_output_adapter@_W@__crt_stdio_output@@@2@@__crt_stdio_output@@AAE_NXZ 00440040 f i libucrtd:output.obj
 0001:0003f120       ?state_case_normal@?$output_processor@_WV?$string_output_adapter@_W@__crt_stdio_output@@V?$format_validation_base@_WV?$string_output_adapter@_W@__crt_stdio_output@@@2@@__crt_stdio_output@@AAE_NXZ 00440120 f i libucrtd:output.obj
 0001:0003f200       ?state_case_normal@?$output_processor@_WV?$string_output_adapter@_W@__crt_stdio_output@@V?$positional_parameter_base@_WV?$string_output_adapter@_W@__crt_stdio_output@@@2@@__crt_stdio_output@@AAE_NXZ 00440200 f i libucrtd:output.obj
 0001:0003f2e0       ?state_case_normal@?$output_processor@_WV?$string_output_adapter@_W@__crt_stdio_output@@V?$standard_base@_WV?$string_output_adapter@_W@__crt_stdio_output@@@2@@__crt_stdio_output@@AAE_NXZ 004402e0 f i libucrtd:output.obj
 0001:0003f3c0       ?state_case_normal_common@?$output_processor@DV?$stream_output_adapter@D@__crt_stdio_output@@V?$format_validation_base@DV?$stream_output_adapter@D@__crt_stdio_output@@@2@@__crt_stdio_output@@AAE_NXZ 004403c0 f i libucrtd:output.obj
 0001:0003f420       ?state_case_normal_common@?$output_processor@DV?$stream_output_adapter@D@__crt_stdio_output@@V?$positional_parameter_base@DV?$stream_output_adapter@D@__crt_stdio_output@@@2@@__crt_stdio_output@@AAE_NXZ 00440420 f i libucrtd:output.obj
 0001:0003f480       ?state_case_normal_common@?$output_processor@DV?$stream_output_adapter@D@__crt_stdio_output@@V?$standard_base@DV?$stream_output_adapter@D@__crt_stdio_output@@@2@@__crt_stdio_output@@AAE_NXZ 00440480 f i libucrtd:output.obj
 0001:0003f4e0       ?state_case_normal_common@?$output_processor@DV?$string_output_adapter@D@__crt_stdio_output@@V?$format_validation_base@DV?$string_output_adapter@D@__crt_stdio_output@@@2@@__crt_stdio_output@@AAE_NXZ 004404e0 f i libucrtd:output.obj
 0001:0003f540       ?state_case_normal_common@?$output_processor@DV?$string_output_adapter@D@__crt_stdio_output@@V?$positional_parameter_base@DV?$string_output_adapter@D@__crt_stdio_output@@@2@@__crt_stdio_output@@AAE_NXZ 00440540 f i libucrtd:output.obj
 0001:0003f5a0       ?state_case_normal_common@?$output_processor@DV?$string_output_adapter@D@__crt_stdio_output@@V?$standard_base@DV?$string_output_adapter@D@__crt_stdio_output@@@2@@__crt_stdio_output@@AAE_NXZ 004405a0 f i libucrtd:output.obj
 0001:0003f600       ?state_case_normal_common@?$output_processor@_WV?$stream_output_adapter@_W@__crt_stdio_output@@V?$format_validation_base@_WV?$stream_output_adapter@_W@__crt_stdio_output@@@2@@__crt_stdio_output@@AAE_NXZ 00440600 f i libucrtd:output.obj
 0001:0003f660       ?state_case_normal_common@?$output_processor@_WV?$stream_output_adapter@_W@__crt_stdio_output@@V?$positional_parameter_base@_WV?$stream_output_adapter@_W@__crt_stdio_output@@@2@@__crt_stdio_output@@AAE_NXZ 00440660 f i libucrtd:output.obj
 0001:0003f6c0       ?state_case_normal_common@?$output_processor@_WV?$stream_output_adapter@_W@__crt_stdio_output@@V?$standard_base@_WV?$stream_output_adapter@_W@__crt_stdio_output@@@2@@__crt_stdio_output@@AAE_NXZ 004406c0 f i libucrtd:output.obj
 0001:0003f720       ?state_case_normal_common@?$output_processor@_WV?$string_output_adapter@_W@__crt_stdio_output@@V?$format_validation_base@_WV?$string_output_adapter@_W@__crt_stdio_output@@@2@@__crt_stdio_output@@AAE_NXZ 00440720 f i libucrtd:output.obj
 0001:0003f780       ?state_case_normal_common@?$output_processor@_WV?$string_output_adapter@_W@__crt_stdio_output@@V?$positional_parameter_base@_WV?$string_output_adapter@_W@__crt_stdio_output@@@2@@__crt_stdio_output@@AAE_NXZ 00440780 f i libucrtd:output.obj
 0001:0003f7e0       ?state_case_normal_common@?$output_processor@_WV?$string_output_adapter@_W@__crt_stdio_output@@V?$standard_base@_WV?$string_output_adapter@_W@__crt_stdio_output@@@2@@__crt_stdio_output@@AAE_NXZ 004407e0 f i libucrtd:output.obj
 0001:0003f840       ?state_case_normal_tchar@?$output_processor@DV?$stream_output_adapter@D@__crt_stdio_output@@V?$format_validation_base@DV?$stream_output_adapter@D@__crt_stdio_output@@@2@@__crt_stdio_output@@AAE_ND@Z 00440840 f i libucrtd:output.obj
 0001:0003f970       ?state_case_normal_tchar@?$output_processor@DV?$stream_output_adapter@D@__crt_stdio_output@@V?$positional_parameter_base@DV?$stream_output_adapter@D@__crt_stdio_output@@@2@@__crt_stdio_output@@AAE_ND@Z 00440970 f i libucrtd:output.obj
 0001:0003faa0       ?state_case_normal_tchar@?$output_processor@DV?$stream_output_adapter@D@__crt_stdio_output@@V?$standard_base@DV?$stream_output_adapter@D@__crt_stdio_output@@@2@@__crt_stdio_output@@AAE_ND@Z 00440aa0 f i libucrtd:output.obj
 0001:0003fbd0       ?state_case_normal_tchar@?$output_processor@DV?$string_output_adapter@D@__crt_stdio_output@@V?$format_validation_base@DV?$string_output_adapter@D@__crt_stdio_output@@@2@@__crt_stdio_output@@AAE_ND@Z 00440bd0 f i libucrtd:output.obj
 0001:0003fd00       ?state_case_normal_tchar@?$output_processor@DV?$string_output_adapter@D@__crt_stdio_output@@V?$positional_parameter_base@DV?$string_output_adapter@D@__crt_stdio_output@@@2@@__crt_stdio_output@@AAE_ND@Z 00440d00 f i libucrtd:output.obj
 0001:0003fe30       ?state_case_normal_tchar@?$output_processor@DV?$string_output_adapter@D@__crt_stdio_output@@V?$standard_base@DV?$string_output_adapter@D@__crt_stdio_output@@@2@@__crt_stdio_output@@AAE_ND@Z 00440e30 f i libucrtd:output.obj
 0001:0003ff60       ?state_case_normal_tchar@?$output_processor@_WV?$stream_output_adapter@_W@__crt_stdio_output@@V?$format_validation_base@_WV?$stream_output_adapter@_W@__crt_stdio_output@@@2@@__crt_stdio_output@@AAE_N_W@Z 00440f60 f i libucrtd:output.obj
 0001:0003ff80       ?state_case_normal_tchar@?$output_processor@_WV?$stream_output_adapter@_W@__crt_stdio_output@@V?$positional_parameter_base@_WV?$stream_output_adapter@_W@__crt_stdio_output@@@2@@__crt_stdio_output@@AAE_N_W@Z 00440f80 f i libucrtd:output.obj
 0001:0003ffa0       ?state_case_normal_tchar@?$output_processor@_WV?$stream_output_adapter@_W@__crt_stdio_output@@V?$standard_base@_WV?$stream_output_adapter@_W@__crt_stdio_output@@@2@@__crt_stdio_output@@AAE_N_W@Z 00440fa0 f i libucrtd:output.obj
 0001:0003ffc0       ?state_case_normal_tchar@?$output_processor@_WV?$string_output_adapter@_W@__crt_stdio_output@@V?$format_validation_base@_WV?$string_output_adapter@_W@__crt_stdio_output@@@2@@__crt_stdio_output@@AAE_N_W@Z 00440fc0 f i libucrtd:output.obj
 0001:0003ffe0       ?state_case_normal_tchar@?$output_processor@_WV?$string_output_adapter@_W@__crt_stdio_output@@V?$positional_parameter_base@_WV?$string_output_adapter@_W@__crt_stdio_output@@@2@@__crt_stdio_output@@AAE_N_W@Z 00440fe0 f i libucrtd:output.obj
 0001:00040000       ?state_case_normal_tchar@?$output_processor@_WV?$string_output_adapter@_W@__crt_stdio_output@@V?$standard_base@_WV?$string_output_adapter@_W@__crt_stdio_output@@@2@@__crt_stdio_output@@AAE_N_W@Z 00441000 f i libucrtd:output.obj
 0001:00040020       ?state_case_percent@?$output_processor@DV?$stream_output_adapter@D@__crt_stdio_output@@V?$format_validation_base@DV?$stream_output_adapter@D@__crt_stdio_output@@@2@@__crt_stdio_output@@AAE_NXZ 00441020 f i libucrtd:output.obj
 0001:00040080       ?state_case_percent@?$output_processor@DV?$stream_output_adapter@D@__crt_stdio_output@@V?$positional_parameter_base@DV?$stream_output_adapter@D@__crt_stdio_output@@@2@@__crt_stdio_output@@AAE_NXZ 00441080 f i libucrtd:output.obj
 0001:000400e0       ?state_case_percent@?$output_processor@DV?$stream_output_adapter@D@__crt_stdio_output@@V?$standard_base@DV?$stream_output_adapter@D@__crt_stdio_output@@@2@@__crt_stdio_output@@AAE_NXZ 004410e0 f i libucrtd:output.obj
 0001:00040140       ?state_case_percent@?$output_processor@DV?$string_output_adapter@D@__crt_stdio_output@@V?$format_validation_base@DV?$string_output_adapter@D@__crt_stdio_output@@@2@@__crt_stdio_output@@AAE_NXZ 00441140 f i libucrtd:output.obj
 0001:000401a0       ?state_case_percent@?$output_processor@DV?$string_output_adapter@D@__crt_stdio_output@@V?$positional_parameter_base@DV?$string_output_adapter@D@__crt_stdio_output@@@2@@__crt_stdio_output@@AAE_NXZ 004411a0 f i libucrtd:output.obj
 0001:00040200       ?state_case_percent@?$output_processor@DV?$string_output_adapter@D@__crt_stdio_output@@V?$standard_base@DV?$string_output_adapter@D@__crt_stdio_output@@@2@@__crt_stdio_output@@AAE_NXZ 00441200 f i libucrtd:output.obj
 0001:00040260       ?state_case_percent@?$output_processor@_WV?$stream_output_adapter@_W@__crt_stdio_output@@V?$format_validation_base@_WV?$stream_output_adapter@_W@__crt_stdio_output@@@2@@__crt_stdio_output@@AAE_NXZ 00441260 f i libucrtd:output.obj
 0001:000402c0       ?state_case_percent@?$output_processor@_WV?$stream_output_adapter@_W@__crt_stdio_output@@V?$positional_parameter_base@_WV?$stream_output_adapter@_W@__crt_stdio_output@@@2@@__crt_stdio_output@@AAE_NXZ 004412c0 f i libucrtd:output.obj
 0001:00040320       ?state_case_percent@?$output_processor@_WV?$stream_output_adapter@_W@__crt_stdio_output@@V?$standard_base@_WV?$stream_output_adapter@_W@__crt_stdio_output@@@2@@__crt_stdio_output@@AAE_NXZ 00441320 f i libucrtd:output.obj
 0001:00040380       ?state_case_percent@?$output_processor@_WV?$string_output_adapter@_W@__crt_stdio_output@@V?$format_validation_base@_WV?$string_output_adapter@_W@__crt_stdio_output@@@2@@__crt_stdio_output@@AAE_NXZ 00441380 f i libucrtd:output.obj
 0001:000403e0       ?state_case_percent@?$output_processor@_WV?$string_output_adapter@_W@__crt_stdio_output@@V?$positional_parameter_base@_WV?$string_output_adapter@_W@__crt_stdio_output@@@2@@__crt_stdio_output@@AAE_NXZ 004413e0 f i libucrtd:output.obj
 0001:00040440       ?state_case_percent@?$output_processor@_WV?$string_output_adapter@_W@__crt_stdio_output@@V?$standard_base@_WV?$string_output_adapter@_W@__crt_stdio_output@@@2@@__crt_stdio_output@@AAE_NXZ 00441440 f i libucrtd:output.obj
 0001:000404a0       ?state_case_precision@?$output_processor@DV?$stream_output_adapter@D@__crt_stdio_output@@V?$format_validation_base@DV?$stream_output_adapter@D@__crt_stdio_output@@@2@@__crt_stdio_output@@AAE_NXZ 004414a0 f i libucrtd:output.obj
 0001:00040520       ?state_case_precision@?$output_processor@DV?$stream_output_adapter@D@__crt_stdio_output@@V?$positional_parameter_base@DV?$stream_output_adapter@D@__crt_stdio_output@@@2@@__crt_stdio_output@@AAE_NXZ 00441520 f i libucrtd:output.obj
 0001:000405a0       ?state_case_precision@?$output_processor@DV?$stream_output_adapter@D@__crt_stdio_output@@V?$standard_base@DV?$stream_output_adapter@D@__crt_stdio_output@@@2@@__crt_stdio_output@@AAE_NXZ 004415a0 f i libucrtd:output.obj
 0001:00040620       ?state_case_precision@?$output_processor@DV?$string_output_adapter@D@__crt_stdio_output@@V?$format_validation_base@DV?$string_output_adapter@D@__crt_stdio_output@@@2@@__crt_stdio_output@@AAE_NXZ 00441620 f i libucrtd:output.obj
 0001:000406a0       ?state_case_precision@?$output_processor@DV?$string_output_adapter@D@__crt_stdio_output@@V?$positional_parameter_base@DV?$string_output_adapter@D@__crt_stdio_output@@@2@@__crt_stdio_output@@AAE_NXZ 004416a0 f i libucrtd:output.obj
 0001:00040720       ?state_case_precision@?$output_processor@DV?$string_output_adapter@D@__crt_stdio_output@@V?$standard_base@DV?$string_output_adapter@D@__crt_stdio_output@@@2@@__crt_stdio_output@@AAE_NXZ 00441720 f i libucrtd:output.obj
 0001:000407a0       ?state_case_precision@?$output_processor@_WV?$stream_output_adapter@_W@__crt_stdio_output@@V?$format_validation_base@_WV?$stream_output_adapter@_W@__crt_stdio_output@@@2@@__crt_stdio_output@@AAE_NXZ 004417a0 f i libucrtd:output.obj
 0001:00040820       ?state_case_precision@?$output_processor@_WV?$stream_output_adapter@_W@__crt_stdio_output@@V?$positional_parameter_base@_WV?$stream_output_adapter@_W@__crt_stdio_output@@@2@@__crt_stdio_output@@AAE_NXZ 00441820 f i libucrtd:output.obj
 0001:000408a0       ?state_case_precision@?$output_processor@_WV?$stream_output_adapter@_W@__crt_stdio_output@@V?$standard_base@_WV?$stream_output_adapter@_W@__crt_stdio_output@@@2@@__crt_stdio_output@@AAE_NXZ 004418a0 f i libucrtd:output.obj
 0001:00040920       ?state_case_precision@?$output_processor@_WV?$string_output_adapter@_W@__crt_stdio_output@@V?$format_validation_base@_WV?$string_output_adapter@_W@__crt_stdio_output@@@2@@__crt_stdio_output@@AAE_NXZ 00441920 f i libucrtd:output.obj
 0001:000409a0       ?state_case_precision@?$output_processor@_WV?$string_output_adapter@_W@__crt_stdio_output@@V?$positional_parameter_base@_WV?$string_output_adapter@_W@__crt_stdio_output@@@2@@__crt_stdio_output@@AAE_NXZ 004419a0 f i libucrtd:output.obj
 0001:00040a20       ?state_case_precision@?$output_processor@_WV?$string_output_adapter@_W@__crt_stdio_output@@V?$standard_base@_WV?$string_output_adapter@_W@__crt_stdio_output@@@2@@__crt_stdio_output@@AAE_NXZ 00441a20 f i libucrtd:output.obj
 0001:00040aa0       ?state_case_size@?$output_processor@DV?$stream_output_adapter@D@__crt_stdio_output@@V?$format_validation_base@DV?$stream_output_adapter@D@__crt_stdio_output@@@2@@__crt_stdio_output@@AAE_NXZ 00441aa0 f i libucrtd:output.obj
 0001:00040f60       ?state_case_size@?$output_processor@DV?$stream_output_adapter@D@__crt_stdio_output@@V?$positional_parameter_base@DV?$stream_output_adapter@D@__crt_stdio_output@@@2@@__crt_stdio_output@@AAE_NXZ 00441f60 f i libucrtd:output.obj
 0001:00041420       ?state_case_size@?$output_processor@DV?$stream_output_adapter@D@__crt_stdio_output@@V?$standard_base@DV?$stream_output_adapter@D@__crt_stdio_output@@@2@@__crt_stdio_output@@AAE_NXZ 00442420 f i libucrtd:output.obj
 0001:000418e0       ?state_case_size@?$output_processor@DV?$string_output_adapter@D@__crt_stdio_output@@V?$format_validation_base@DV?$string_output_adapter@D@__crt_stdio_output@@@2@@__crt_stdio_output@@AAE_NXZ 004428e0 f i libucrtd:output.obj
 0001:00041da0       ?state_case_size@?$output_processor@DV?$string_output_adapter@D@__crt_stdio_output@@V?$positional_parameter_base@DV?$string_output_adapter@D@__crt_stdio_output@@@2@@__crt_stdio_output@@AAE_NXZ 00442da0 f i libucrtd:output.obj
 0001:00042260       ?state_case_size@?$output_processor@DV?$string_output_adapter@D@__crt_stdio_output@@V?$standard_base@DV?$string_output_adapter@D@__crt_stdio_output@@@2@@__crt_stdio_output@@AAE_NXZ 00443260 f i libucrtd:output.obj
 0001:00042720       ?state_case_size@?$output_processor@_WV?$stream_output_adapter@_W@__crt_stdio_output@@V?$format_validation_base@_WV?$stream_output_adapter@_W@__crt_stdio_output@@@2@@__crt_stdio_output@@AAE_NXZ 00443720 f i libucrtd:output.obj
 0001:00042be0       ?state_case_size@?$output_processor@_WV?$stream_output_adapter@_W@__crt_stdio_output@@V?$positional_parameter_base@_WV?$stream_output_adapter@_W@__crt_stdio_output@@@2@@__crt_stdio_output@@AAE_NXZ 00443be0 f i libucrtd:output.obj
 0001:000430a0       ?state_case_size@?$output_processor@_WV?$stream_output_adapter@_W@__crt_stdio_output@@V?$standard_base@_WV?$stream_output_adapter@_W@__crt_stdio_output@@@2@@__crt_stdio_output@@AAE_NXZ 004440a0 f i libucrtd:output.obj
 0001:00043560       ?state_case_size@?$output_processor@_WV?$string_output_adapter@_W@__crt_stdio_output@@V?$format_validation_base@_WV?$string_output_adapter@_W@__crt_stdio_output@@@2@@__crt_stdio_output@@AAE_NXZ 00444560 f i libucrtd:output.obj
 0001:00043a20       ?state_case_size@?$output_processor@_WV?$string_output_adapter@_W@__crt_stdio_output@@V?$positional_parameter_base@_WV?$string_output_adapter@_W@__crt_stdio_output@@@2@@__crt_stdio_output@@AAE_NXZ 00444a20 f i libucrtd:output.obj
 0001:00043ee0       ?state_case_size@?$output_processor@_WV?$string_output_adapter@_W@__crt_stdio_output@@V?$standard_base@_WV?$string_output_adapter@_W@__crt_stdio_output@@@2@@__crt_stdio_output@@AAE_NXZ 00444ee0 f i libucrtd:output.obj
 0001:000443a0       ?state_case_type@?$output_processor@DV?$stream_output_adapter@D@__crt_stdio_output@@V?$format_validation_base@DV?$stream_output_adapter@D@__crt_stdio_output@@@2@@__crt_stdio_output@@AAE_NXZ 004453a0 f i libucrtd:output.obj
 0001:00044840       ?state_case_type@?$output_processor@DV?$stream_output_adapter@D@__crt_stdio_output@@V?$positional_parameter_base@DV?$stream_output_adapter@D@__crt_stdio_output@@@2@@__crt_stdio_output@@AAE_NXZ 00445840 f i libucrtd:output.obj
 0001:00044ce0       ?state_case_type@?$output_processor@DV?$stream_output_adapter@D@__crt_stdio_output@@V?$standard_base@DV?$stream_output_adapter@D@__crt_stdio_output@@@2@@__crt_stdio_output@@AAE_NXZ 00445ce0 f i libucrtd:output.obj
 0001:00045180       ?state_case_type@?$output_processor@DV?$string_output_adapter@D@__crt_stdio_output@@V?$format_validation_base@DV?$string_output_adapter@D@__crt_stdio_output@@@2@@__crt_stdio_output@@AAE_NXZ 00446180 f i libucrtd:output.obj
 0001:00045620       ?state_case_type@?$output_processor@DV?$string_output_adapter@D@__crt_stdio_output@@V?$positional_parameter_base@DV?$string_output_adapter@D@__crt_stdio_output@@@2@@__crt_stdio_output@@AAE_NXZ 00446620 f i libucrtd:output.obj
 0001:00045ac0       ?state_case_type@?$output_processor@DV?$string_output_adapter@D@__crt_stdio_output@@V?$standard_base@DV?$string_output_adapter@D@__crt_stdio_output@@@2@@__crt_stdio_output@@AAE_NXZ 00446ac0 f i libucrtd:output.obj
 0001:00045f60       ?state_case_type@?$output_processor@_WV?$stream_output_adapter@_W@__crt_stdio_output@@V?$format_validation_base@_WV?$stream_output_adapter@_W@__crt_stdio_output@@@2@@__crt_stdio_output@@AAE_NXZ 00446f60 f i libucrtd:output.obj
 0001:00046430       ?state_case_type@?$output_processor@_WV?$stream_output_adapter@_W@__crt_stdio_output@@V?$positional_parameter_base@_WV?$stream_output_adapter@_W@__crt_stdio_output@@@2@@__crt_stdio_output@@AAE_NXZ 00447430 f i libucrtd:output.obj
 0001:00046900       ?state_case_type@?$output_processor@_WV?$stream_output_adapter@_W@__crt_stdio_output@@V?$standard_base@_WV?$stream_output_adapter@_W@__crt_stdio_output@@@2@@__crt_stdio_output@@AAE_NXZ 00447900 f i libucrtd:output.obj
 0001:00046dd0       ?state_case_type@?$output_processor@_WV?$string_output_adapter@_W@__crt_stdio_output@@V?$format_validation_base@_WV?$string_output_adapter@_W@__crt_stdio_output@@@2@@__crt_stdio_output@@AAE_NXZ 00447dd0 f i libucrtd:output.obj
 0001:000472a0       ?state_case_type@?$output_processor@_WV?$string_output_adapter@_W@__crt_stdio_output@@V?$positional_parameter_base@_WV?$string_output_adapter@_W@__crt_stdio_output@@@2@@__crt_stdio_output@@AAE_NXZ 004482a0 f i libucrtd:output.obj
 0001:00047770       ?state_case_type@?$output_processor@_WV?$string_output_adapter@_W@__crt_stdio_output@@V?$standard_base@_WV?$string_output_adapter@_W@__crt_stdio_output@@@2@@__crt_stdio_output@@AAE_NXZ 00448770 f i libucrtd:output.obj
 0001:00047c40       ?state_case_width@?$output_processor@DV?$stream_output_adapter@D@__crt_stdio_output@@V?$format_validation_base@DV?$stream_output_adapter@D@__crt_stdio_output@@@2@@__crt_stdio_output@@AAE_NXZ 00448c40 f i libucrtd:output.obj
 0001:00047cd0       ?state_case_width@?$output_processor@DV?$stream_output_adapter@D@__crt_stdio_output@@V?$positional_parameter_base@DV?$stream_output_adapter@D@__crt_stdio_output@@@2@@__crt_stdio_output@@AAE_NXZ 00448cd0 f i libucrtd:output.obj
 0001:00047d60       ?state_case_width@?$output_processor@DV?$stream_output_adapter@D@__crt_stdio_output@@V?$standard_base@DV?$stream_output_adapter@D@__crt_stdio_output@@@2@@__crt_stdio_output@@AAE_NXZ 00448d60 f i libucrtd:output.obj
 0001:00047df0       ?state_case_width@?$output_processor@DV?$string_output_adapter@D@__crt_stdio_output@@V?$format_validation_base@DV?$string_output_adapter@D@__crt_stdio_output@@@2@@__crt_stdio_output@@AAE_NXZ 00448df0 f i libucrtd:output.obj
 0001:00047e80       ?state_case_width@?$output_processor@DV?$string_output_adapter@D@__crt_stdio_output@@V?$positional_parameter_base@DV?$string_output_adapter@D@__crt_stdio_output@@@2@@__crt_stdio_output@@AAE_NXZ 00448e80 f i libucrtd:output.obj
 0001:00047f10       ?state_case_width@?$output_processor@DV?$string_output_adapter@D@__crt_stdio_output@@V?$standard_base@DV?$string_output_adapter@D@__crt_stdio_output@@@2@@__crt_stdio_output@@AAE_NXZ 00448f10 f i libucrtd:output.obj
 0001:00047fa0       ?state_case_width@?$output_processor@_WV?$stream_output_adapter@_W@__crt_stdio_output@@V?$format_validation_base@_WV?$stream_output_adapter@_W@__crt_stdio_output@@@2@@__crt_stdio_output@@AAE_NXZ 00448fa0 f i libucrtd:output.obj
 0001:00048030       ?state_case_width@?$output_processor@_WV?$stream_output_adapter@_W@__crt_stdio_output@@V?$positional_parameter_base@_WV?$stream_output_adapter@_W@__crt_stdio_output@@@2@@__crt_stdio_output@@AAE_NXZ 00449030 f i libucrtd:output.obj
 0001:000480c0       ?state_case_width@?$output_processor@_WV?$stream_output_adapter@_W@__crt_stdio_output@@V?$standard_base@_WV?$stream_output_adapter@_W@__crt_stdio_output@@@2@@__crt_stdio_output@@AAE_NXZ 004490c0 f i libucrtd:output.obj
 0001:00048150       ?state_case_width@?$output_processor@_WV?$string_output_adapter@_W@__crt_stdio_output@@V?$format_validation_base@_WV?$string_output_adapter@_W@__crt_stdio_output@@@2@@__crt_stdio_output@@AAE_NXZ 00449150 f i libucrtd:output.obj
 0001:000481e0       ?state_case_width@?$output_processor@_WV?$string_output_adapter@_W@__crt_stdio_output@@V?$positional_parameter_base@_WV?$string_output_adapter@_W@__crt_stdio_output@@@2@@__crt_stdio_output@@AAE_NXZ 004491e0 f i libucrtd:output.obj
 0001:00048270       ?state_case_width@?$output_processor@_WV?$string_output_adapter@_W@__crt_stdio_output@@V?$standard_base@_WV?$string_output_adapter@_W@__crt_stdio_output@@@2@@__crt_stdio_output@@AAE_NXZ 00449270 f i libucrtd:output.obj
 0001:00048300       ?state_count@?$format_validation_base@DV?$stream_output_adapter@D@__crt_stdio_output@@@__crt_stdio_output@@KAIXZ 00449300 f i libucrtd:output.obj
 0001:00048310       ?state_count@?$format_validation_base@DV?$string_output_adapter@D@__crt_stdio_output@@@__crt_stdio_output@@KAIXZ 00449310 f i libucrtd:output.obj
 0001:00048320       ?state_count@?$format_validation_base@_WV?$stream_output_adapter@_W@__crt_stdio_output@@@__crt_stdio_output@@KAIXZ 00449320 f i libucrtd:output.obj
 0001:00048330       ?state_count@?$format_validation_base@_WV?$string_output_adapter@_W@__crt_stdio_output@@@__crt_stdio_output@@KAIXZ 00449330 f i libucrtd:output.obj
 0001:00048340       ?state_count@?$standard_base@DV?$stream_output_adapter@D@__crt_stdio_output@@@__crt_stdio_output@@KAIXZ 00449340 f i libucrtd:output.obj
 0001:00048350       ?state_count@?$standard_base@DV?$string_output_adapter@D@__crt_stdio_output@@@__crt_stdio_output@@KAIXZ 00449350 f i libucrtd:output.obj
 0001:00048360       ?state_count@?$standard_base@_WV?$stream_output_adapter@_W@__crt_stdio_output@@@__crt_stdio_output@@KAIXZ 00449360 f i libucrtd:output.obj
 0001:00048370       ?state_count@?$standard_base@_WV?$string_output_adapter@_W@__crt_stdio_output@@@__crt_stdio_output@@KAIXZ 00449370 f i libucrtd:output.obj
 0001:00048380       ?state_transition_table@?$format_validation_base@DV?$stream_output_adapter@D@__crt_stdio_output@@@__crt_stdio_output@@KAABV?$spectre_mitigated_lookup_table@Ustate_transition_pair@__crt_stdio_output@@$0IA@@2@XZ 00449380 f i libucrtd:output.obj
 0001:00048390       ?state_transition_table@?$format_validation_base@DV?$string_output_adapter@D@__crt_stdio_output@@@__crt_stdio_output@@KAABV?$spectre_mitigated_lookup_table@Ustate_transition_pair@__crt_stdio_output@@$0IA@@2@XZ 00449390 f i libucrtd:output.obj
 0001:000483a0       ?state_transition_table@?$format_validation_base@_WV?$stream_output_adapter@_W@__crt_stdio_output@@@__crt_stdio_output@@KAABV?$spectre_mitigated_lookup_table@Ustate_transition_pair@__crt_stdio_output@@$0IA@@2@XZ 004493a0 f i libucrtd:output.obj
 0001:000483b0       ?state_transition_table@?$format_validation_base@_WV?$string_output_adapter@_W@__crt_stdio_output@@@__crt_stdio_output@@KAABV?$spectre_mitigated_lookup_table@Ustate_transition_pair@__crt_stdio_output@@$0IA@@2@XZ 004493b0 f i libucrtd:output.obj
 0001:000483c0       ?state_transition_table@?$standard_base@DV?$stream_output_adapter@D@__crt_stdio_output@@@__crt_stdio_output@@KAABV?$spectre_mitigated_lookup_table@Ustate_transition_pair@__crt_stdio_output@@$0IA@@2@XZ 004493c0 f i libucrtd:output.obj
 0001:000483d0       ?state_transition_table@?$standard_base@DV?$string_output_adapter@D@__crt_stdio_output@@@__crt_stdio_output@@KAABV?$spectre_mitigated_lookup_table@Ustate_transition_pair@__crt_stdio_output@@$0IA@@2@XZ 004493d0 f i libucrtd:output.obj
 0001:000483e0       ?state_transition_table@?$standard_base@_WV?$stream_output_adapter@_W@__crt_stdio_output@@@__crt_stdio_output@@KAABV?$spectre_mitigated_lookup_table@Ustate_transition_pair@__crt_stdio_output@@$0IA@@2@XZ 004493e0 f i libucrtd:output.obj
 0001:000483f0       ?state_transition_table@?$standard_base@_WV?$string_output_adapter@_W@__crt_stdio_output@@@__crt_stdio_output@@KAABV?$spectre_mitigated_lookup_table@Ustate_transition_pair@__crt_stdio_output@@$0IA@@2@XZ 004493f0 f i libucrtd:output.obj
 0001:00048400       ?tchar_string@?$common_data@D@__crt_stdio_output@@IAEAAPADD@Z 00449400 f i libucrtd:output.obj
 0001:00048420       ?tchar_string@?$common_data@D@__crt_stdio_output@@IAEAAPADXZ 00449420 f i libucrtd:output.obj
 0001:00048440       ?tchar_string@?$common_data@_W@__crt_stdio_output@@IAEAAPA_WXZ 00449440 f i libucrtd:output.obj
 0001:00048460       ?tchar_string@?$common_data@_W@__crt_stdio_output@@IAEAAPA_W_W@Z 00449460 f i libucrtd:output.obj
 0001:00048480       ?to_integer_size@__crt_stdio_output@@YAIW4length_modifier@1@@Z 00449480 f i libucrtd:output.obj
 0001:00048550       ?type_case_X@?$output_processor@DV?$stream_output_adapter@D@__crt_stdio_output@@V?$format_validation_base@DV?$stream_output_adapter@D@__crt_stdio_output@@@2@@__crt_stdio_output@@AAE_NXZ 00449550 f i libucrtd:output.obj
 0001:00048570       ?type_case_X@?$output_processor@DV?$stream_output_adapter@D@__crt_stdio_output@@V?$positional_parameter_base@DV?$stream_output_adapter@D@__crt_stdio_output@@@2@@__crt_stdio_output@@AAE_NXZ 00449570 f i libucrtd:output.obj
 0001:00048590       ?type_case_X@?$output_processor@DV?$stream_output_adapter@D@__crt_stdio_output@@V?$standard_base@DV?$stream_output_adapter@D@__crt_stdio_output@@@2@@__crt_stdio_output@@AAE_NXZ 00449590 f i libucrtd:output.obj
 0001:000485b0       ?type_case_X@?$output_processor@DV?$string_output_adapter@D@__crt_stdio_output@@V?$format_validation_base@DV?$string_output_adapter@D@__crt_stdio_output@@@2@@__crt_stdio_output@@AAE_NXZ 004495b0 f i libucrtd:output.obj
 0001:000485d0       ?type_case_X@?$output_processor@DV?$string_output_adapter@D@__crt_stdio_output@@V?$positional_parameter_base@DV?$string_output_adapter@D@__crt_stdio_output@@@2@@__crt_stdio_output@@AAE_NXZ 004495d0 f i libucrtd:output.obj
 0001:000485f0       ?type_case_X@?$output_processor@DV?$string_output_adapter@D@__crt_stdio_output@@V?$standard_base@DV?$string_output_adapter@D@__crt_stdio_output@@@2@@__crt_stdio_output@@AAE_NXZ 004495f0 f i libucrtd:output.obj
 0001:00048610       ?type_case_X@?$output_processor@_WV?$stream_output_adapter@_W@__crt_stdio_output@@V?$format_validation_base@_WV?$stream_output_adapter@_W@__crt_stdio_output@@@2@@__crt_stdio_output@@AAE_NXZ 00449610 f i libucrtd:output.obj
 0001:00048630       ?type_case_X@?$output_processor@_WV?$stream_output_adapter@_W@__crt_stdio_output@@V?$positional_parameter_base@_WV?$stream_output_adapter@_W@__crt_stdio_output@@@2@@__crt_stdio_output@@AAE_NXZ 00449630 f i libucrtd:output.obj
 0001:00048650       ?type_case_X@?$output_processor@_WV?$stream_output_adapter@_W@__crt_stdio_output@@V?$standard_base@_WV?$stream_output_adapter@_W@__crt_stdio_output@@@2@@__crt_stdio_output@@AAE_NXZ 00449650 f i libucrtd:output.obj
 0001:00048670       ?type_case_X@?$output_processor@_WV?$string_output_adapter@_W@__crt_stdio_output@@V?$format_validation_base@_WV?$string_output_adapter@_W@__crt_stdio_output@@@2@@__crt_stdio_output@@AAE_NXZ 00449670 f i libucrtd:output.obj
 0001:00048690       ?type_case_X@?$output_processor@_WV?$string_output_adapter@_W@__crt_stdio_output@@V?$positional_parameter_base@_WV?$string_output_adapter@_W@__crt_stdio_output@@@2@@__crt_stdio_output@@AAE_NXZ 00449690 f i libucrtd:output.obj
 0001:000486b0       ?type_case_X@?$output_processor@_WV?$string_output_adapter@_W@__crt_stdio_output@@V?$standard_base@_WV?$string_output_adapter@_W@__crt_stdio_output@@@2@@__crt_stdio_output@@AAE_NXZ 004496b0 f i libucrtd:output.obj
 0001:000486d0       ?type_case_Z@?$output_processor@DV?$stream_output_adapter@D@__crt_stdio_output@@V?$format_validation_base@DV?$stream_output_adapter@D@__crt_stdio_output@@@2@@__crt_stdio_output@@AAE_NXZ 004496d0 f i libucrtd:output.obj
 0001:00048800       ?type_case_Z@?$output_processor@DV?$stream_output_adapter@D@__crt_stdio_output@@V?$positional_parameter_base@DV?$stream_output_adapter@D@__crt_stdio_output@@@2@@__crt_stdio_output@@AAE_NXZ 00449800 f i libucrtd:output.obj
 0001:00048930       ?type_case_Z@?$output_processor@DV?$stream_output_adapter@D@__crt_stdio_output@@V?$standard_base@DV?$stream_output_adapter@D@__crt_stdio_output@@@2@@__crt_stdio_output@@AAE_NXZ 00449930 f i libucrtd:output.obj
 0001:00048a60       ?type_case_Z@?$output_processor@DV?$string_output_adapter@D@__crt_stdio_output@@V?$format_validation_base@DV?$string_output_adapter@D@__crt_stdio_output@@@2@@__crt_stdio_output@@AAE_NXZ 00449a60 f i libucrtd:output.obj
 0001:00048b90       ?type_case_Z@?$output_processor@DV?$string_output_adapter@D@__crt_stdio_output@@V?$positional_parameter_base@DV?$string_output_adapter@D@__crt_stdio_output@@@2@@__crt_stdio_output@@AAE_NXZ 00449b90 f i libucrtd:output.obj
 0001:00048cc0       ?type_case_Z@?$output_processor@DV?$string_output_adapter@D@__crt_stdio_output@@V?$standard_base@DV?$string_output_adapter@D@__crt_stdio_output@@@2@@__crt_stdio_output@@AAE_NXZ 00449cc0 f i libucrtd:output.obj
 0001:00048df0       ?type_case_Z@?$output_processor@_WV?$stream_output_adapter@_W@__crt_stdio_output@@V?$format_validation_base@_WV?$stream_output_adapter@_W@__crt_stdio_output@@@2@@__crt_stdio_output@@AAE_NXZ 00449df0 f i libucrtd:output.obj
 0001:00048f20       ?type_case_Z@?$output_processor@_WV?$stream_output_adapter@_W@__crt_stdio_output@@V?$positional_parameter_base@_WV?$stream_output_adapter@_W@__crt_stdio_output@@@2@@__crt_stdio_output@@AAE_NXZ 00449f20 f i libucrtd:output.obj
 0001:00049050       ?type_case_Z@?$output_processor@_WV?$stream_output_adapter@_W@__crt_stdio_output@@V?$standard_base@_WV?$stream_output_adapter@_W@__crt_stdio_output@@@2@@__crt_stdio_output@@AAE_NXZ 0044a050 f i libucrtd:output.obj
 0001:00049180       ?type_case_Z@?$output_processor@_WV?$string_output_adapter@_W@__crt_stdio_output@@V?$format_validation_base@_WV?$string_output_adapter@_W@__crt_stdio_output@@@2@@__crt_stdio_output@@AAE_NXZ 0044a180 f i libucrtd:output.obj
 0001:000492b0       ?type_case_Z@?$output_processor@_WV?$string_output_adapter@_W@__crt_stdio_output@@V?$positional_parameter_base@_WV?$string_output_adapter@_W@__crt_stdio_output@@@2@@__crt_stdio_output@@AAE_NXZ 0044a2b0 f i libucrtd:output.obj
 0001:000493e0       ?type_case_Z@?$output_processor@_WV?$string_output_adapter@_W@__crt_stdio_output@@V?$standard_base@_WV?$string_output_adapter@_W@__crt_stdio_output@@@2@@__crt_stdio_output@@AAE_NXZ 0044a3e0 f i libucrtd:output.obj
 0001:00049510       ?type_case_a@?$output_processor@DV?$stream_output_adapter@D@__crt_stdio_output@@V?$format_validation_base@DV?$stream_output_adapter@D@__crt_stdio_output@@@2@@__crt_stdio_output@@AAE_NXZ 0044a510 f i libucrtd:output.obj
 0001:00049810       ?type_case_a@?$output_processor@DV?$stream_output_adapter@D@__crt_stdio_output@@V?$positional_parameter_base@DV?$stream_output_adapter@D@__crt_stdio_output@@@2@@__crt_stdio_output@@AAE_NXZ 0044a810 f i libucrtd:output.obj
 0001:00049b10       ?type_case_a@?$output_processor@DV?$stream_output_adapter@D@__crt_stdio_output@@V?$standard_base@DV?$stream_output_adapter@D@__crt_stdio_output@@@2@@__crt_stdio_output@@AAE_NXZ 0044ab10 f i libucrtd:output.obj
 0001:00049e10       ?type_case_a@?$output_processor@DV?$string_output_adapter@D@__crt_stdio_output@@V?$format_validation_base@DV?$string_output_adapter@D@__crt_stdio_output@@@2@@__crt_stdio_output@@AAE_NXZ 0044ae10 f i libucrtd:output.obj
 0001:0004a110       ?type_case_a@?$output_processor@DV?$string_output_adapter@D@__crt_stdio_output@@V?$positional_parameter_base@DV?$string_output_adapter@D@__crt_stdio_output@@@2@@__crt_stdio_output@@AAE_NXZ 0044b110 f i libucrtd:output.obj
 0001:0004a410       ?type_case_a@?$output_processor@DV?$string_output_adapter@D@__crt_stdio_output@@V?$standard_base@DV?$string_output_adapter@D@__crt_stdio_output@@@2@@__crt_stdio_output@@AAE_NXZ 0044b410 f i libucrtd:output.obj
 0001:0004a710       ?type_case_a@?$output_processor@_WV?$stream_output_adapter@_W@__crt_stdio_output@@V?$format_validation_base@_WV?$stream_output_adapter@_W@__crt_stdio_output@@@2@@__crt_stdio_output@@AAE_NXZ 0044b710 f i libucrtd:output.obj
 0001:0004aa20       ?type_case_a@?$output_processor@_WV?$stream_output_adapter@_W@__crt_stdio_output@@V?$positional_parameter_base@_WV?$stream_output_adapter@_W@__crt_stdio_output@@@2@@__crt_stdio_output@@AAE_NXZ 0044ba20 f i libucrtd:output.obj
 0001:0004ad30       ?type_case_a@?$output_processor@_WV?$stream_output_adapter@_W@__crt_stdio_output@@V?$standard_base@_WV?$stream_output_adapter@_W@__crt_stdio_output@@@2@@__crt_stdio_output@@AAE_NXZ 0044bd30 f i libucrtd:output.obj
 0001:0004b040       ?type_case_a@?$output_processor@_WV?$string_output_adapter@_W@__crt_stdio_output@@V?$format_validation_base@_WV?$string_output_adapter@_W@__crt_stdio_output@@@2@@__crt_stdio_output@@AAE_NXZ 0044c040 f i libucrtd:output.obj
 0001:0004b350       ?type_case_a@?$output_processor@_WV?$string_output_adapter@_W@__crt_stdio_output@@V?$positional_parameter_base@_WV?$string_output_adapter@_W@__crt_stdio_output@@@2@@__crt_stdio_output@@AAE_NXZ 0044c350 f i libucrtd:output.obj
 0001:0004b660       ?type_case_a@?$output_processor@_WV?$string_output_adapter@_W@__crt_stdio_output@@V?$standard_base@_WV?$string_output_adapter@_W@__crt_stdio_output@@@2@@__crt_stdio_output@@AAE_NXZ 0044c660 f i libucrtd:output.obj
 0001:0004b970       ?type_case_c@?$output_processor@DV?$stream_output_adapter@D@__crt_stdio_output@@V?$format_validation_base@DV?$stream_output_adapter@D@__crt_stdio_output@@@2@@__crt_stdio_output@@AAE_NXZ 0044c970 f i libucrtd:output.obj
 0001:0004b990       ?type_case_c@?$output_processor@DV?$stream_output_adapter@D@__crt_stdio_output@@V?$positional_parameter_base@DV?$stream_output_adapter@D@__crt_stdio_output@@@2@@__crt_stdio_output@@AAE_NXZ 0044c990 f i libucrtd:output.obj
 0001:0004b9b0       ?type_case_c@?$output_processor@DV?$stream_output_adapter@D@__crt_stdio_output@@V?$standard_base@DV?$stream_output_adapter@D@__crt_stdio_output@@@2@@__crt_stdio_output@@AAE_NXZ 0044c9b0 f i libucrtd:output.obj
 0001:0004b9d0       ?type_case_c@?$output_processor@DV?$string_output_adapter@D@__crt_stdio_output@@V?$format_validation_base@DV?$string_output_adapter@D@__crt_stdio_output@@@2@@__crt_stdio_output@@AAE_NXZ 0044c9d0 f i libucrtd:output.obj
 0001:0004b9f0       ?type_case_c@?$output_processor@DV?$string_output_adapter@D@__crt_stdio_output@@V?$positional_parameter_base@DV?$string_output_adapter@D@__crt_stdio_output@@@2@@__crt_stdio_output@@AAE_NXZ 0044c9f0 f i libucrtd:output.obj
 0001:0004ba10       ?type_case_c@?$output_processor@DV?$string_output_adapter@D@__crt_stdio_output@@V?$standard_base@DV?$string_output_adapter@D@__crt_stdio_output@@@2@@__crt_stdio_output@@AAE_NXZ 0044ca10 f i libucrtd:output.obj
 0001:0004ba30       ?type_case_c@?$output_processor@_WV?$stream_output_adapter@_W@__crt_stdio_output@@V?$format_validation_base@_WV?$stream_output_adapter@_W@__crt_stdio_output@@@2@@__crt_stdio_output@@AAE_NXZ 0044ca30 f i libucrtd:output.obj
 0001:0004ba50       ?type_case_c@?$output_processor@_WV?$stream_output_adapter@_W@__crt_stdio_output@@V?$positional_parameter_base@_WV?$stream_output_adapter@_W@__crt_stdio_output@@@2@@__crt_stdio_output@@AAE_NXZ 0044ca50 f i libucrtd:output.obj
 0001:0004ba70       ?type_case_c@?$output_processor@_WV?$stream_output_adapter@_W@__crt_stdio_output@@V?$standard_base@_WV?$stream_output_adapter@_W@__crt_stdio_output@@@2@@__crt_stdio_output@@AAE_NXZ 0044ca70 f i libucrtd:output.obj
 0001:0004ba90       ?type_case_c@?$output_processor@_WV?$string_output_adapter@_W@__crt_stdio_output@@V?$format_validation_base@_WV?$string_output_adapter@_W@__crt_stdio_output@@@2@@__crt_stdio_output@@AAE_NXZ 0044ca90 f i libucrtd:output.obj
 0001:0004bab0       ?type_case_c@?$output_processor@_WV?$string_output_adapter@_W@__crt_stdio_output@@V?$positional_parameter_base@_WV?$string_output_adapter@_W@__crt_stdio_output@@@2@@__crt_stdio_output@@AAE_NXZ 0044cab0 f i libucrtd:output.obj
 0001:0004bad0       ?type_case_c@?$output_processor@_WV?$string_output_adapter@_W@__crt_stdio_output@@V?$standard_base@_WV?$string_output_adapter@_W@__crt_stdio_output@@@2@@__crt_stdio_output@@AAE_NXZ 0044cad0 f i libucrtd:output.obj
 0001:0004baf0       ?type_case_c_tchar@?$output_processor@DV?$stream_output_adapter@D@__crt_stdio_output@@V?$format_validation_base@DV?$stream_output_adapter@D@__crt_stdio_output@@@2@@__crt_stdio_output@@AAE_ND@Z 0044caf0 f i libucrtd:output.obj
 0001:0004bc40       ?type_case_c_tchar@?$output_processor@DV?$stream_output_adapter@D@__crt_stdio_output@@V?$positional_parameter_base@DV?$stream_output_adapter@D@__crt_stdio_output@@@2@@__crt_stdio_output@@AAE_ND@Z 0044cc40 f i libucrtd:output.obj
 0001:0004bd90       ?type_case_c_tchar@?$output_processor@DV?$stream_output_adapter@D@__crt_stdio_output@@V?$standard_base@DV?$stream_output_adapter@D@__crt_stdio_output@@@2@@__crt_stdio_output@@AAE_ND@Z 0044cd90 f i libucrtd:output.obj
 0001:0004bee0       ?type_case_c_tchar@?$output_processor@DV?$string_output_adapter@D@__crt_stdio_output@@V?$format_validation_base@DV?$string_output_adapter@D@__crt_stdio_output@@@2@@__crt_stdio_output@@AAE_ND@Z 0044cee0 f i libucrtd:output.obj
 0001:0004c030       ?type_case_c_tchar@?$output_processor@DV?$string_output_adapter@D@__crt_stdio_output@@V?$positional_parameter_base@DV?$string_output_adapter@D@__crt_stdio_output@@@2@@__crt_stdio_output@@AAE_ND@Z 0044d030 f i libucrtd:output.obj
 0001:0004c180       ?type_case_c_tchar@?$output_processor@DV?$string_output_adapter@D@__crt_stdio_output@@V?$standard_base@DV?$string_output_adapter@D@__crt_stdio_output@@@2@@__crt_stdio_output@@AAE_ND@Z 0044d180 f i libucrtd:output.obj
 0001:0004c2d0       ?type_case_c_tchar@?$output_processor@_WV?$stream_output_adapter@_W@__crt_stdio_output@@V?$format_validation_base@_WV?$stream_output_adapter@_W@__crt_stdio_output@@@2@@__crt_stdio_output@@AAE_N_W@Z 0044d2d0 f i libucrtd:output.obj
 0001:0004c410       ?type_case_c_tchar@?$output_processor@_WV?$stream_output_adapter@_W@__crt_stdio_output@@V?$positional_parameter_base@_WV?$stream_output_adapter@_W@__crt_stdio_output@@@2@@__crt_stdio_output@@AAE_N_W@Z 0044d410 f i libucrtd:output.obj
 0001:0004c550       ?type_case_c_tchar@?$output_processor@_WV?$stream_output_adapter@_W@__crt_stdio_output@@V?$standard_base@_WV?$stream_output_adapter@_W@__crt_stdio_output@@@2@@__crt_stdio_output@@AAE_N_W@Z 0044d550 f i libucrtd:output.obj
 0001:0004c690       ?type_case_c_tchar@?$output_processor@_WV?$string_output_adapter@_W@__crt_stdio_output@@V?$format_validation_base@_WV?$string_output_adapter@_W@__crt_stdio_output@@@2@@__crt_stdio_output@@AAE_N_W@Z 0044d690 f i libucrtd:output.obj
 0001:0004c7d0       ?type_case_c_tchar@?$output_processor@_WV?$string_output_adapter@_W@__crt_stdio_output@@V?$positional_parameter_base@_WV?$string_output_adapter@_W@__crt_stdio_output@@@2@@__crt_stdio_output@@AAE_N_W@Z 0044d7d0 f i libucrtd:output.obj
 0001:0004c910       ?type_case_c_tchar@?$output_processor@_WV?$string_output_adapter@_W@__crt_stdio_output@@V?$standard_base@_WV?$string_output_adapter@_W@__crt_stdio_output@@@2@@__crt_stdio_output@@AAE_N_W@Z 0044d910 f i libucrtd:output.obj
 0001:0004ca50       ?type_case_d@?$output_processor@DV?$stream_output_adapter@D@__crt_stdio_output@@V?$format_validation_base@DV?$stream_output_adapter@D@__crt_stdio_output@@@2@@__crt_stdio_output@@AAE_NXZ 0044da50 f i libucrtd:output.obj
 0001:0004ca80       ?type_case_d@?$output_processor@DV?$stream_output_adapter@D@__crt_stdio_output@@V?$positional_parameter_base@DV?$stream_output_adapter@D@__crt_stdio_output@@@2@@__crt_stdio_output@@AAE_NXZ 0044da80 f i libucrtd:output.obj
 0001:0004cab0       ?type_case_d@?$output_processor@DV?$stream_output_adapter@D@__crt_stdio_output@@V?$standard_base@DV?$stream_output_adapter@D@__crt_stdio_output@@@2@@__crt_stdio_output@@AAE_NXZ 0044dab0 f i libucrtd:output.obj
 0001:0004cae0       ?type_case_d@?$output_processor@DV?$string_output_adapter@D@__crt_stdio_output@@V?$format_validation_base@DV?$string_output_adapter@D@__crt_stdio_output@@@2@@__crt_stdio_output@@AAE_NXZ 0044dae0 f i libucrtd:output.obj
 0001:0004cb10       ?type_case_d@?$output_processor@DV?$string_output_adapter@D@__crt_stdio_output@@V?$positional_parameter_base@DV?$string_output_adapter@D@__crt_stdio_output@@@2@@__crt_stdio_output@@AAE_NXZ 0044db10 f i libucrtd:output.obj
 0001:0004cb40       ?type_case_d@?$output_processor@DV?$string_output_adapter@D@__crt_stdio_output@@V?$standard_base@DV?$string_output_adapter@D@__crt_stdio_output@@@2@@__crt_stdio_output@@AAE_NXZ 0044db40 f i libucrtd:output.obj
 0001:0004cb70       ?type_case_d@?$output_processor@_WV?$stream_output_adapter@_W@__crt_stdio_output@@V?$format_validation_base@_WV?$stream_output_adapter@_W@__crt_stdio_output@@@2@@__crt_stdio_output@@AAE_NXZ 0044db70 f i libucrtd:output.obj
 0001:0004cba0       ?type_case_d@?$output_processor@_WV?$stream_output_adapter@_W@__crt_stdio_output@@V?$positional_parameter_base@_WV?$stream_output_adapter@_W@__crt_stdio_output@@@2@@__crt_stdio_output@@AAE_NXZ 0044dba0 f i libucrtd:output.obj
 0001:0004cbd0       ?type_case_d@?$output_processor@_WV?$stream_output_adapter@_W@__crt_stdio_output@@V?$standard_base@_WV?$stream_output_adapter@_W@__crt_stdio_output@@@2@@__crt_stdio_output@@AAE_NXZ 0044dbd0 f i libucrtd:output.obj
 0001:0004cc00       ?type_case_d@?$output_processor@_WV?$string_output_adapter@_W@__crt_stdio_output@@V?$format_validation_base@_WV?$string_output_adapter@_W@__crt_stdio_output@@@2@@__crt_stdio_output@@AAE_NXZ 0044dc00 f i libucrtd:output.obj
 0001:0004cc30       ?type_case_d@?$output_processor@_WV?$string_output_adapter@_W@__crt_stdio_output@@V?$positional_parameter_base@_WV?$string_output_adapter@_W@__crt_stdio_output@@@2@@__crt_stdio_output@@AAE_NXZ 0044dc30 f i libucrtd:output.obj
 0001:0004cc60       ?type_case_d@?$output_processor@_WV?$string_output_adapter@_W@__crt_stdio_output@@V?$standard_base@_WV?$string_output_adapter@_W@__crt_stdio_output@@@2@@__crt_stdio_output@@AAE_NXZ 0044dc60 f i libucrtd:output.obj
 0001:0004cc90       ?type_case_integer@?$output_processor@DV?$stream_output_adapter@D@__crt_stdio_output@@V?$format_validation_base@DV?$stream_output_adapter@D@__crt_stdio_output@@@2@@__crt_stdio_output@@AAE_NI_N@Z 0044dc90 f i libucrtd:output.obj
 0001:0004d0b0       ?type_case_integer@?$output_processor@DV?$stream_output_adapter@D@__crt_stdio_output@@V?$positional_parameter_base@DV?$stream_output_adapter@D@__crt_stdio_output@@@2@@__crt_stdio_output@@AAE_NI_N@Z 0044e0b0 f i libucrtd:output.obj
 0001:0004d4d0       ?type_case_integer@?$output_processor@DV?$stream_output_adapter@D@__crt_stdio_output@@V?$standard_base@DV?$stream_output_adapter@D@__crt_stdio_output@@@2@@__crt_stdio_output@@AAE_NI_N@Z 0044e4d0 f i libucrtd:output.obj
 0001:0004d8f0       ?type_case_integer@?$output_processor@DV?$string_output_adapter@D@__crt_stdio_output@@V?$format_validation_base@DV?$string_output_adapter@D@__crt_stdio_output@@@2@@__crt_stdio_output@@AAE_NI_N@Z 0044e8f0 f i libucrtd:output.obj
 0001:0004dd10       ?type_case_integer@?$output_processor@DV?$string_output_adapter@D@__crt_stdio_output@@V?$positional_parameter_base@DV?$string_output_adapter@D@__crt_stdio_output@@@2@@__crt_stdio_output@@AAE_NI_N@Z 0044ed10 f i libucrtd:output.obj
 0001:0004e130       ?type_case_integer@?$output_processor@DV?$string_output_adapter@D@__crt_stdio_output@@V?$standard_base@DV?$string_output_adapter@D@__crt_stdio_output@@@2@@__crt_stdio_output@@AAE_NI_N@Z 0044f130 f i libucrtd:output.obj
 0001:0004e550       ?type_case_integer@?$output_processor@_WV?$stream_output_adapter@_W@__crt_stdio_output@@V?$format_validation_base@_WV?$stream_output_adapter@_W@__crt_stdio_output@@@2@@__crt_stdio_output@@AAE_NI_N@Z 0044f550 f i libucrtd:output.obj
 0001:0004e970       ?type_case_integer@?$output_processor@_WV?$stream_output_adapter@_W@__crt_stdio_output@@V?$positional_parameter_base@_WV?$stream_output_adapter@_W@__crt_stdio_output@@@2@@__crt_stdio_output@@AAE_NI_N@Z 0044f970 f i libucrtd:output.obj
 0001:0004ed90       ?type_case_integer@?$output_processor@_WV?$stream_output_adapter@_W@__crt_stdio_output@@V?$standard_base@_WV?$stream_output_adapter@_W@__crt_stdio_output@@@2@@__crt_stdio_output@@AAE_NI_N@Z 0044fd90 f i libucrtd:output.obj
 0001:0004f1b0       ?type_case_integer@?$output_processor@_WV?$string_output_adapter@_W@__crt_stdio_output@@V?$format_validation_base@_WV?$string_output_adapter@_W@__crt_stdio_output@@@2@@__crt_stdio_output@@AAE_NI_N@Z 004501b0 f i libucrtd:output.obj
 0001:0004f5d0       ?type_case_integer@?$output_processor@_WV?$string_output_adapter@_W@__crt_stdio_output@@V?$positional_parameter_base@_WV?$string_output_adapter@_W@__crt_stdio_output@@@2@@__crt_stdio_output@@AAE_NI_N@Z 004505d0 f i libucrtd:output.obj
 0001:0004f9f0       ?type_case_integer@?$output_processor@_WV?$string_output_adapter@_W@__crt_stdio_output@@V?$standard_base@_WV?$string_output_adapter@_W@__crt_stdio_output@@@2@@__crt_stdio_output@@AAE_NI_N@Z 004509f0 f i libucrtd:output.obj
 0001:0004fe10       ?type_case_n@?$output_processor@DV?$stream_output_adapter@D@__crt_stdio_output@@V?$format_validation_base@DV?$stream_output_adapter@D@__crt_stdio_output@@@2@@__crt_stdio_output@@AAE_NXZ 00450e10 f i libucrtd:output.obj
 0001:00050080       ?type_case_n@?$output_processor@DV?$stream_output_adapter@D@__crt_stdio_output@@V?$positional_parameter_base@DV?$stream_output_adapter@D@__crt_stdio_output@@@2@@__crt_stdio_output@@AAE_NXZ 00451080 f i libucrtd:output.obj
 0001:000502f0       ?type_case_n@?$output_processor@DV?$stream_output_adapter@D@__crt_stdio_output@@V?$standard_base@DV?$stream_output_adapter@D@__crt_stdio_output@@@2@@__crt_stdio_output@@AAE_NXZ 004512f0 f i libucrtd:output.obj
 0001:00050560       ?type_case_n@?$output_processor@DV?$string_output_adapter@D@__crt_stdio_output@@V?$format_validation_base@DV?$string_output_adapter@D@__crt_stdio_output@@@2@@__crt_stdio_output@@AAE_NXZ 00451560 f i libucrtd:output.obj
 0001:000507d0       ?type_case_n@?$output_processor@DV?$string_output_adapter@D@__crt_stdio_output@@V?$positional_parameter_base@DV?$string_output_adapter@D@__crt_stdio_output@@@2@@__crt_stdio_output@@AAE_NXZ 004517d0 f i libucrtd:output.obj
 0001:00050a40       ?type_case_n@?$output_processor@DV?$string_output_adapter@D@__crt_stdio_output@@V?$standard_base@DV?$string_output_adapter@D@__crt_stdio_output@@@2@@__crt_stdio_output@@AAE_NXZ 00451a40 f i libucrtd:output.obj
 0001:00050cb0       ?type_case_n@?$output_processor@_WV?$stream_output_adapter@_W@__crt_stdio_output@@V?$format_validation_base@_WV?$stream_output_adapter@_W@__crt_stdio_output@@@2@@__crt_stdio_output@@AAE_NXZ 00451cb0 f i libucrtd:output.obj
 0001:00050f20       ?type_case_n@?$output_processor@_WV?$stream_output_adapter@_W@__crt_stdio_output@@V?$positional_parameter_base@_WV?$stream_output_adapter@_W@__crt_stdio_output@@@2@@__crt_stdio_output@@AAE_NXZ 00451f20 f i libucrtd:output.obj
 0001:00051190       ?type_case_n@?$output_processor@_WV?$stream_output_adapter@_W@__crt_stdio_output@@V?$standard_base@_WV?$stream_output_adapter@_W@__crt_stdio_output@@@2@@__crt_stdio_output@@AAE_NXZ 00452190 f i libucrtd:output.obj
 0001:00051400       ?type_case_n@?$output_processor@_WV?$string_output_adapter@_W@__crt_stdio_output@@V?$format_validation_base@_WV?$string_output_adapter@_W@__crt_stdio_output@@@2@@__crt_stdio_output@@AAE_NXZ 00452400 f i libucrtd:output.obj
 0001:00051670       ?type_case_n@?$output_processor@_WV?$string_output_adapter@_W@__crt_stdio_output@@V?$positional_parameter_base@_WV?$string_output_adapter@_W@__crt_stdio_output@@@2@@__crt_stdio_output@@AAE_NXZ 00452670 f i libucrtd:output.obj
 0001:000518e0       ?type_case_n@?$output_processor@_WV?$string_output_adapter@_W@__crt_stdio_output@@V?$standard_base@_WV?$string_output_adapter@_W@__crt_stdio_output@@@2@@__crt_stdio_output@@AAE_NXZ 004528e0 f i libucrtd:output.obj
 0001:00051b50       ?type_case_o@?$output_processor@DV?$stream_output_adapter@D@__crt_stdio_output@@V?$format_validation_base@DV?$stream_output_adapter@D@__crt_stdio_output@@@2@@__crt_stdio_output@@AAE_NXZ 00452b50 f i libucrtd:output.obj
 0001:00051ba0       ?type_case_o@?$output_processor@DV?$stream_output_adapter@D@__crt_stdio_output@@V?$positional_parameter_base@DV?$stream_output_adapter@D@__crt_stdio_output@@@2@@__crt_stdio_output@@AAE_NXZ 00452ba0 f i libucrtd:output.obj
 0001:00051bf0       ?type_case_o@?$output_processor@DV?$stream_output_adapter@D@__crt_stdio_output@@V?$standard_base@DV?$stream_output_adapter@D@__crt_stdio_output@@@2@@__crt_stdio_output@@AAE_NXZ 00452bf0 f i libucrtd:output.obj
 0001:00051c40       ?type_case_o@?$output_processor@DV?$string_output_adapter@D@__crt_stdio_output@@V?$format_validation_base@DV?$string_output_adapter@D@__crt_stdio_output@@@2@@__crt_stdio_output@@AAE_NXZ 00452c40 f i libucrtd:output.obj
 0001:00051c90       ?type_case_o@?$output_processor@DV?$string_output_adapter@D@__crt_stdio_output@@V?$positional_parameter_base@DV?$string_output_adapter@D@__crt_stdio_output@@@2@@__crt_stdio_output@@AAE_NXZ 00452c90 f i libucrtd:output.obj
 0001:00051ce0       ?type_case_o@?$output_processor@DV?$string_output_adapter@D@__crt_stdio_output@@V?$standard_base@DV?$string_output_adapter@D@__crt_stdio_output@@@2@@__crt_stdio_output@@AAE_NXZ 00452ce0 f i libucrtd:output.obj
 0001:00051d30       ?type_case_o@?$output_processor@_WV?$stream_output_adapter@_W@__crt_stdio_output@@V?$format_validation_base@_WV?$stream_output_adapter@_W@__crt_stdio_output@@@2@@__crt_stdio_output@@AAE_NXZ 00452d30 f i libucrtd:output.obj
 0001:00051d80       ?type_case_o@?$output_processor@_WV?$stream_output_adapter@_W@__crt_stdio_output@@V?$positional_parameter_base@_WV?$stream_output_adapter@_W@__crt_stdio_output@@@2@@__crt_stdio_output@@AAE_NXZ 00452d80 f i libucrtd:output.obj
 0001:00051dd0       ?type_case_o@?$output_processor@_WV?$stream_output_adapter@_W@__crt_stdio_output@@V?$standard_base@_WV?$stream_output_adapter@_W@__crt_stdio_output@@@2@@__crt_stdio_output@@AAE_NXZ 00452dd0 f i libucrtd:output.obj
 0001:00051e20       ?type_case_o@?$output_processor@_WV?$string_output_adapter@_W@__crt_stdio_output@@V?$format_validation_base@_WV?$string_output_adapter@_W@__crt_stdio_output@@@2@@__crt_stdio_output@@AAE_NXZ 00452e20 f i libucrtd:output.obj
 0001:00051e70       ?type_case_o@?$output_processor@_WV?$string_output_adapter@_W@__crt_stdio_output@@V?$positional_parameter_base@_WV?$string_output_adapter@_W@__crt_stdio_output@@@2@@__crt_stdio_output@@AAE_NXZ 00452e70 f i libucrtd:output.obj
 0001:00051ec0       ?type_case_o@?$output_processor@_WV?$string_output_adapter@_W@__crt_stdio_output@@V?$standard_base@_WV?$string_output_adapter@_W@__crt_stdio_output@@@2@@__crt_stdio_output@@AAE_NXZ 00452ec0 f i libucrtd:output.obj
 0001:00051f10       ?type_case_p@?$output_processor@DV?$stream_output_adapter@D@__crt_stdio_output@@V?$format_validation_base@DV?$stream_output_adapter@D@__crt_stdio_output@@@2@@__crt_stdio_output@@AAE_NXZ 00452f10 f i libucrtd:output.obj
 0001:00051f50       ?type_case_p@?$output_processor@DV?$stream_output_adapter@D@__crt_stdio_output@@V?$positional_parameter_base@DV?$stream_output_adapter@D@__crt_stdio_output@@@2@@__crt_stdio_output@@AAE_NXZ 00452f50 f i libucrtd:output.obj
 0001:00051f90       ?type_case_p@?$output_processor@DV?$stream_output_adapter@D@__crt_stdio_output@@V?$standard_base@DV?$stream_output_adapter@D@__crt_stdio_output@@@2@@__crt_stdio_output@@AAE_NXZ 00452f90 f i libucrtd:output.obj
 0001:00051fd0       ?type_case_p@?$output_processor@DV?$string_output_adapter@D@__crt_stdio_output@@V?$format_validation_base@DV?$string_output_adapter@D@__crt_stdio_output@@@2@@__crt_stdio_output@@AAE_NXZ 00452fd0 f i libucrtd:output.obj
 0001:00052010       ?type_case_p@?$output_processor@DV?$string_output_adapter@D@__crt_stdio_output@@V?$positional_parameter_base@DV?$string_output_adapter@D@__crt_stdio_output@@@2@@__crt_stdio_output@@AAE_NXZ 00453010 f i libucrtd:output.obj
 0001:00052050       ?type_case_p@?$output_processor@DV?$string_output_adapter@D@__crt_stdio_output@@V?$standard_base@DV?$string_output_adapter@D@__crt_stdio_output@@@2@@__crt_stdio_output@@AAE_NXZ 00453050 f i libucrtd:output.obj
 0001:00052090       ?type_case_p@?$output_processor@_WV?$stream_output_adapter@_W@__crt_stdio_output@@V?$format_validation_base@_WV?$stream_output_adapter@_W@__crt_stdio_output@@@2@@__crt_stdio_output@@AAE_NXZ 00453090 f i libucrtd:output.obj
 0001:000520d0       ?type_case_p@?$output_processor@_WV?$stream_output_adapter@_W@__crt_stdio_output@@V?$positional_parameter_base@_WV?$stream_output_adapter@_W@__crt_stdio_output@@@2@@__crt_stdio_output@@AAE_NXZ 004530d0 f i libucrtd:output.obj
 0001:00052110       ?type_case_p@?$output_processor@_WV?$stream_output_adapter@_W@__crt_stdio_output@@V?$standard_base@_WV?$stream_output_adapter@_W@__crt_stdio_output@@@2@@__crt_stdio_output@@AAE_NXZ 00453110 f i libucrtd:output.obj
 0001:00052150       ?type_case_p@?$output_processor@_WV?$string_output_adapter@_W@__crt_stdio_output@@V?$format_validation_base@_WV?$string_output_adapter@_W@__crt_stdio_output@@@2@@__crt_stdio_output@@AAE_NXZ 00453150 f i libucrtd:output.obj
 0001:00052190       ?type_case_p@?$output_processor@_WV?$string_output_adapter@_W@__crt_stdio_output@@V?$positional_parameter_base@_WV?$string_output_adapter@_W@__crt_stdio_output@@@2@@__crt_stdio_output@@AAE_NXZ 00453190 f i libucrtd:output.obj
 0001:000521d0       ?type_case_p@?$output_processor@_WV?$string_output_adapter@_W@__crt_stdio_output@@V?$standard_base@_WV?$string_output_adapter@_W@__crt_stdio_output@@@2@@__crt_stdio_output@@AAE_NXZ 004531d0 f i libucrtd:output.obj
 0001:00052210       ?type_case_s@?$output_processor@DV?$stream_output_adapter@D@__crt_stdio_output@@V?$format_validation_base@DV?$stream_output_adapter@D@__crt_stdio_output@@@2@@__crt_stdio_output@@AAE_NXZ 00453210 f i libucrtd:output.obj
 0001:00052340       ?type_case_s@?$output_processor@DV?$stream_output_adapter@D@__crt_stdio_output@@V?$positional_parameter_base@DV?$stream_output_adapter@D@__crt_stdio_output@@@2@@__crt_stdio_output@@AAE_NXZ 00453340 f i libucrtd:output.obj
 0001:00052470       ?type_case_s@?$output_processor@DV?$stream_output_adapter@D@__crt_stdio_output@@V?$standard_base@DV?$stream_output_adapter@D@__crt_stdio_output@@@2@@__crt_stdio_output@@AAE_NXZ 00453470 f i libucrtd:output.obj
 0001:000525a0       ?type_case_s@?$output_processor@DV?$string_output_adapter@D@__crt_stdio_output@@V?$format_validation_base@DV?$string_output_adapter@D@__crt_stdio_output@@@2@@__crt_stdio_output@@AAE_NXZ 004535a0 f i libucrtd:output.obj
 0001:000526d0       ?type_case_s@?$output_processor@DV?$string_output_adapter@D@__crt_stdio_output@@V?$positional_parameter_base@DV?$string_output_adapter@D@__crt_stdio_output@@@2@@__crt_stdio_output@@AAE_NXZ 004536d0 f i libucrtd:output.obj
 0001:00052800       ?type_case_s@?$output_processor@DV?$string_output_adapter@D@__crt_stdio_output@@V?$standard_base@DV?$string_output_adapter@D@__crt_stdio_output@@@2@@__crt_stdio_output@@AAE_NXZ 00453800 f i libucrtd:output.obj
 0001:00052930       ?type_case_s@?$output_processor@_WV?$stream_output_adapter@_W@__crt_stdio_output@@V?$format_validation_base@_WV?$stream_output_adapter@_W@__crt_stdio_output@@@2@@__crt_stdio_output@@AAE_NXZ 00453930 f i libucrtd:output.obj
 0001:00052a60       ?type_case_s@?$output_processor@_WV?$stream_output_adapter@_W@__crt_stdio_output@@V?$positional_parameter_base@_WV?$stream_output_adapter@_W@__crt_stdio_output@@@2@@__crt_stdio_output@@AAE_NXZ 00453a60 f i libucrtd:output.obj
 0001:00052b90       ?type_case_s@?$output_processor@_WV?$stream_output_adapter@_W@__crt_stdio_output@@V?$standard_base@_WV?$stream_output_adapter@_W@__crt_stdio_output@@@2@@__crt_stdio_output@@AAE_NXZ 00453b90 f i libucrtd:output.obj
 0001:00052cc0       ?type_case_s@?$output_processor@_WV?$string_output_adapter@_W@__crt_stdio_output@@V?$format_validation_base@_WV?$string_output_adapter@_W@__crt_stdio_output@@@2@@__crt_stdio_output@@AAE_NXZ 00453cc0 f i libucrtd:output.obj
 0001:00052df0       ?type_case_s@?$output_processor@_WV?$string_output_adapter@_W@__crt_stdio_output@@V?$positional_parameter_base@_WV?$string_output_adapter@_W@__crt_stdio_output@@@2@@__crt_stdio_output@@AAE_NXZ 00453df0 f i libucrtd:output.obj
 0001:00052f20       ?type_case_s@?$output_processor@_WV?$string_output_adapter@_W@__crt_stdio_output@@V?$standard_base@_WV?$string_output_adapter@_W@__crt_stdio_output@@@2@@__crt_stdio_output@@AAE_NXZ 00453f20 f i libucrtd:output.obj
 0001:00053050       ?type_case_s_compute_narrow_string_length@?$output_processor@DV?$stream_output_adapter@D@__crt_stdio_output@@V?$format_validation_base@DV?$stream_output_adapter@D@__crt_stdio_output@@@2@@__crt_stdio_output@@ABEHHD@Z 00454050 f i libucrtd:output.obj
 0001:00053080       ?type_case_s_compute_narrow_string_length@?$output_processor@DV?$stream_output_adapter@D@__crt_stdio_output@@V?$positional_parameter_base@DV?$stream_output_adapter@D@__crt_stdio_output@@@2@@__crt_stdio_output@@ABEHHD@Z 00454080 f i libucrtd:output.obj
 0001:000530b0       ?type_case_s_compute_narrow_string_length@?$output_processor@DV?$stream_output_adapter@D@__crt_stdio_output@@V?$standard_base@DV?$stream_output_adapter@D@__crt_stdio_output@@@2@@__crt_stdio_output@@ABEHHD@Z 004540b0 f i libucrtd:output.obj
 0001:000530e0       ?type_case_s_compute_narrow_string_length@?$output_processor@DV?$string_output_adapter@D@__crt_stdio_output@@V?$format_validation_base@DV?$string_output_adapter@D@__crt_stdio_output@@@2@@__crt_stdio_output@@ABEHHD@Z 004540e0 f i libucrtd:output.obj
 0001:00053110       ?type_case_s_compute_narrow_string_length@?$output_processor@DV?$string_output_adapter@D@__crt_stdio_output@@V?$positional_parameter_base@DV?$string_output_adapter@D@__crt_stdio_output@@@2@@__crt_stdio_output@@ABEHHD@Z 00454110 f i libucrtd:output.obj
 0001:00053140       ?type_case_s_compute_narrow_string_length@?$output_processor@DV?$string_output_adapter@D@__crt_stdio_output@@V?$standard_base@DV?$string_output_adapter@D@__crt_stdio_output@@@2@@__crt_stdio_output@@ABEHHD@Z 00454140 f i libucrtd:output.obj
 0001:00053170       ?type_case_s_compute_narrow_string_length@?$output_processor@_WV?$stream_output_adapter@_W@__crt_stdio_output@@V?$format_validation_base@_WV?$stream_output_adapter@_W@__crt_stdio_output@@@2@@__crt_stdio_output@@ABEHH_W@Z 00454170 f i libucrtd:output.obj
 0001:00053200       ?type_case_s_compute_narrow_string_length@?$output_processor@_WV?$stream_output_adapter@_W@__crt_stdio_output@@V?$positional_parameter_base@_WV?$stream_output_adapter@_W@__crt_stdio_output@@@2@@__crt_stdio_output@@ABEHH_W@Z 00454200 f i libucrtd:output.obj
 0001:00053290       ?type_case_s_compute_narrow_string_length@?$output_processor@_WV?$stream_output_adapter@_W@__crt_stdio_output@@V?$standard_base@_WV?$stream_output_adapter@_W@__crt_stdio_output@@@2@@__crt_stdio_output@@ABEHH_W@Z 00454290 f i libucrtd:output.obj
 0001:00053320       ?type_case_s_compute_narrow_string_length@?$output_processor@_WV?$string_output_adapter@_W@__crt_stdio_output@@V?$format_validation_base@_WV?$string_output_adapter@_W@__crt_stdio_output@@@2@@__crt_stdio_output@@ABEHH_W@Z 00454320 f i libucrtd:output.obj
 0001:000533b0       ?type_case_s_compute_narrow_string_length@?$output_processor@_WV?$string_output_adapter@_W@__crt_stdio_output@@V?$positional_parameter_base@_WV?$string_output_adapter@_W@__crt_stdio_output@@@2@@__crt_stdio_output@@ABEHH_W@Z 004543b0 f i libucrtd:output.obj
 0001:00053440       ?type_case_s_compute_narrow_string_length@?$output_processor@_WV?$string_output_adapter@_W@__crt_stdio_output@@V?$standard_base@_WV?$string_output_adapter@_W@__crt_stdio_output@@@2@@__crt_stdio_output@@ABEHH_W@Z 00454440 f i libucrtd:output.obj
 0001:000534d0       ?type_case_u@?$output_processor@DV?$stream_output_adapter@D@__crt_stdio_output@@V?$format_validation_base@DV?$stream_output_adapter@D@__crt_stdio_output@@@2@@__crt_stdio_output@@AAE_NXZ 004544d0 f i libucrtd:output.obj
 0001:000534f0       ?type_case_u@?$output_processor@DV?$stream_output_adapter@D@__crt_stdio_output@@V?$positional_parameter_base@DV?$stream_output_adapter@D@__crt_stdio_output@@@2@@__crt_stdio_output@@AAE_NXZ 004544f0 f i libucrtd:output.obj
 0001:00053510       ?type_case_u@?$output_processor@DV?$stream_output_adapter@D@__crt_stdio_output@@V?$standard_base@DV?$stream_output_adapter@D@__crt_stdio_output@@@2@@__crt_stdio_output@@AAE_NXZ 00454510 f i libucrtd:output.obj
 0001:00053530       ?type_case_u@?$output_processor@DV?$string_output_adapter@D@__crt_stdio_output@@V?$format_validation_base@DV?$string_output_adapter@D@__crt_stdio_output@@@2@@__crt_stdio_output@@AAE_NXZ 00454530 f i libucrtd:output.obj
 0001:00053550       ?type_case_u@?$output_processor@DV?$string_output_adapter@D@__crt_stdio_output@@V?$positional_parameter_base@DV?$string_output_adapter@D@__crt_stdio_output@@@2@@__crt_stdio_output@@AAE_NXZ 00454550 f i libucrtd:output.obj
 0001:00053570       ?type_case_u@?$output_processor@DV?$string_output_adapter@D@__crt_stdio_output@@V?$standard_base@DV?$string_output_adapter@D@__crt_stdio_output@@@2@@__crt_stdio_output@@AAE_NXZ 00454570 f i libucrtd:output.obj
 0001:00053590       ?type_case_u@?$output_processor@_WV?$stream_output_adapter@_W@__crt_stdio_output@@V?$format_validation_base@_WV?$stream_output_adapter@_W@__crt_stdio_output@@@2@@__crt_stdio_output@@AAE_NXZ 00454590 f i libucrtd:output.obj
 0001:000535b0       ?type_case_u@?$output_processor@_WV?$stream_output_adapter@_W@__crt_stdio_output@@V?$positional_parameter_base@_WV?$stream_output_adapter@_W@__crt_stdio_output@@@2@@__crt_stdio_output@@AAE_NXZ 004545b0 f i libucrtd:output.obj
 0001:000535d0       ?type_case_u@?$output_processor@_WV?$stream_output_adapter@_W@__crt_stdio_output@@V?$standard_base@_WV?$stream_output_adapter@_W@__crt_stdio_output@@@2@@__crt_stdio_output@@AAE_NXZ 004545d0 f i libucrtd:output.obj
 0001:000535f0       ?type_case_u@?$output_processor@_WV?$string_output_adapter@_W@__crt_stdio_output@@V?$format_validation_base@_WV?$string_output_adapter@_W@__crt_stdio_output@@@2@@__crt_stdio_output@@AAE_NXZ 004545f0 f i libucrtd:output.obj
 0001:00053610       ?type_case_u@?$output_processor@_WV?$string_output_adapter@_W@__crt_stdio_output@@V?$positional_parameter_base@_WV?$string_output_adapter@_W@__crt_stdio_output@@@2@@__crt_stdio_output@@AAE_NXZ 00454610 f i libucrtd:output.obj
 0001:00053630       ?type_case_u@?$output_processor@_WV?$string_output_adapter@_W@__crt_stdio_output@@V?$standard_base@_WV?$string_output_adapter@_W@__crt_stdio_output@@@2@@__crt_stdio_output@@AAE_NXZ 00454630 f i libucrtd:output.obj
 0001:00053650       ?type_case_x@?$output_processor@DV?$stream_output_adapter@D@__crt_stdio_output@@V?$format_validation_base@DV?$stream_output_adapter@D@__crt_stdio_output@@@2@@__crt_stdio_output@@AAE_NXZ 00454650 f i libucrtd:output.obj
 0001:00053670       ?type_case_x@?$output_processor@DV?$stream_output_adapter@D@__crt_stdio_output@@V?$positional_parameter_base@DV?$stream_output_adapter@D@__crt_stdio_output@@@2@@__crt_stdio_output@@AAE_NXZ 00454670 f i libucrtd:output.obj
 0001:00053690       ?type_case_x@?$output_processor@DV?$stream_output_adapter@D@__crt_stdio_output@@V?$standard_base@DV?$stream_output_adapter@D@__crt_stdio_output@@@2@@__crt_stdio_output@@AAE_NXZ 00454690 f i libucrtd:output.obj
 0001:000536b0       ?type_case_x@?$output_processor@DV?$string_output_adapter@D@__crt_stdio_output@@V?$format_validation_base@DV?$string_output_adapter@D@__crt_stdio_output@@@2@@__crt_stdio_output@@AAE_NXZ 004546b0 f i libucrtd:output.obj
 0001:000536d0       ?type_case_x@?$output_processor@DV?$string_output_adapter@D@__crt_stdio_output@@V?$positional_parameter_base@DV?$string_output_adapter@D@__crt_stdio_output@@@2@@__crt_stdio_output@@AAE_NXZ 004546d0 f i libucrtd:output.obj
 0001:000536f0       ?type_case_x@?$output_processor@DV?$string_output_adapter@D@__crt_stdio_output@@V?$standard_base@DV?$string_output_adapter@D@__crt_stdio_output@@@2@@__crt_stdio_output@@AAE_NXZ 004546f0 f i libucrtd:output.obj
 0001:00053710       ?type_case_x@?$output_processor@_WV?$stream_output_adapter@_W@__crt_stdio_output@@V?$format_validation_base@_WV?$stream_output_adapter@_W@__crt_stdio_output@@@2@@__crt_stdio_output@@AAE_NXZ 00454710 f i libucrtd:output.obj
 0001:00053730       ?type_case_x@?$output_processor@_WV?$stream_output_adapter@_W@__crt_stdio_output@@V?$positional_parameter_base@_WV?$stream_output_adapter@_W@__crt_stdio_output@@@2@@__crt_stdio_output@@AAE_NXZ 00454730 f i libucrtd:output.obj
 0001:00053750       ?type_case_x@?$output_processor@_WV?$stream_output_adapter@_W@__crt_stdio_output@@V?$standard_base@_WV?$stream_output_adapter@_W@__crt_stdio_output@@@2@@__crt_stdio_output@@AAE_NXZ 00454750 f i libucrtd:output.obj
 0001:00053770       ?type_case_x@?$output_processor@_WV?$string_output_adapter@_W@__crt_stdio_output@@V?$format_validation_base@_WV?$string_output_adapter@_W@__crt_stdio_output@@@2@@__crt_stdio_output@@AAE_NXZ 00454770 f i libucrtd:output.obj
 0001:00053790       ?type_case_x@?$output_processor@_WV?$string_output_adapter@_W@__crt_stdio_output@@V?$positional_parameter_base@_WV?$string_output_adapter@_W@__crt_stdio_output@@@2@@__crt_stdio_output@@AAE_NXZ 00454790 f i libucrtd:output.obj
 0001:000537b0       ?type_case_x@?$output_processor@_WV?$string_output_adapter@_W@__crt_stdio_output@@V?$standard_base@_WV?$string_output_adapter@_W@__crt_stdio_output@@@2@@__crt_stdio_output@@AAE_NXZ 004547b0 f i libucrtd:output.obj
 0001:000537d0       ?unset_flag@?$output_processor@DV?$stream_output_adapter@D@__crt_stdio_output@@V?$format_validation_base@DV?$stream_output_adapter@D@__crt_stdio_output@@@2@@__crt_stdio_output@@AAEXI@Z 004547d0 f i libucrtd:output.obj
 0001:00053800       ?unset_flag@?$output_processor@DV?$stream_output_adapter@D@__crt_stdio_output@@V?$positional_parameter_base@DV?$stream_output_adapter@D@__crt_stdio_output@@@2@@__crt_stdio_output@@AAEXI@Z 00454800 f i libucrtd:output.obj
 0001:00053830       ?unset_flag@?$output_processor@DV?$stream_output_adapter@D@__crt_stdio_output@@V?$standard_base@DV?$stream_output_adapter@D@__crt_stdio_output@@@2@@__crt_stdio_output@@AAEXI@Z 00454830 f i libucrtd:output.obj
 0001:00053860       ?unset_flag@?$output_processor@DV?$string_output_adapter@D@__crt_stdio_output@@V?$format_validation_base@DV?$string_output_adapter@D@__crt_stdio_output@@@2@@__crt_stdio_output@@AAEXI@Z 00454860 f i libucrtd:output.obj
 0001:00053890       ?unset_flag@?$output_processor@DV?$string_output_adapter@D@__crt_stdio_output@@V?$positional_parameter_base@DV?$string_output_adapter@D@__crt_stdio_output@@@2@@__crt_stdio_output@@AAEXI@Z 00454890 f i libucrtd:output.obj
 0001:000538c0       ?unset_flag@?$output_processor@DV?$string_output_adapter@D@__crt_stdio_output@@V?$standard_base@DV?$string_output_adapter@D@__crt_stdio_output@@@2@@__crt_stdio_output@@AAEXI@Z 004548c0 f i libucrtd:output.obj
 0001:000538f0       ?unset_flag@?$output_processor@_WV?$stream_output_adapter@_W@__crt_stdio_output@@V?$format_validation_base@_WV?$stream_output_adapter@_W@__crt_stdio_output@@@2@@__crt_stdio_output@@AAEXI@Z 004548f0 f i libucrtd:output.obj
 0001:00053920       ?unset_flag@?$output_processor@_WV?$stream_output_adapter@_W@__crt_stdio_output@@V?$positional_parameter_base@_WV?$stream_output_adapter@_W@__crt_stdio_output@@@2@@__crt_stdio_output@@AAEXI@Z 00454920 f i libucrtd:output.obj
 0001:00053950       ?unset_flag@?$output_processor@_WV?$stream_output_adapter@_W@__crt_stdio_output@@V?$standard_base@_WV?$stream_output_adapter@_W@__crt_stdio_output@@@2@@__crt_stdio_output@@AAEXI@Z 00454950 f i libucrtd:output.obj
 0001:00053980       ?unset_flag@?$output_processor@_WV?$string_output_adapter@_W@__crt_stdio_output@@V?$format_validation_base@_WV?$string_output_adapter@_W@__crt_stdio_output@@@2@@__crt_stdio_output@@AAEXI@Z 00454980 f i libucrtd:output.obj
 0001:000539b0       ?unset_flag@?$output_processor@_WV?$string_output_adapter@_W@__crt_stdio_output@@V?$positional_parameter_base@_WV?$string_output_adapter@_W@__crt_stdio_output@@@2@@__crt_stdio_output@@AAEXI@Z 004549b0 f i libucrtd:output.obj
 0001:000539e0       ?unset_flag@?$output_processor@_WV?$string_output_adapter@_W@__crt_stdio_output@@V?$standard_base@_WV?$string_output_adapter@_W@__crt_stdio_output@@@2@@__crt_stdio_output@@AAEXI@Z 004549e0 f i libucrtd:output.obj
 0001:00053a10       ?update_field_width@?$positional_parameter_base@DV?$stream_output_adapter@D@__crt_stdio_output@@@__crt_stdio_output@@IAE_NXZ 00454a10 f i libucrtd:output.obj
 0001:00053bf0       ?update_field_width@?$positional_parameter_base@DV?$string_output_adapter@D@__crt_stdio_output@@@__crt_stdio_output@@IAE_NXZ 00454bf0 f i libucrtd:output.obj
 0001:00053dd0       ?update_field_width@?$positional_parameter_base@_WV?$stream_output_adapter@_W@__crt_stdio_output@@@__crt_stdio_output@@IAE_NXZ 00454dd0 f i libucrtd:output.obj
 0001:00053fb0       ?update_field_width@?$positional_parameter_base@_WV?$string_output_adapter@_W@__crt_stdio_output@@@__crt_stdio_output@@IAE_NXZ 00454fb0 f i libucrtd:output.obj
 0001:00054190       ?update_field_width@?$standard_base@DV?$stream_output_adapter@D@__crt_stdio_output@@@__crt_stdio_output@@IAE_NXZ 00455190 f i libucrtd:output.obj
 0001:000541c0       ?update_field_width@?$standard_base@DV?$string_output_adapter@D@__crt_stdio_output@@@__crt_stdio_output@@IAE_NXZ 004551c0 f i libucrtd:output.obj
 0001:000541f0       ?update_field_width@?$standard_base@_WV?$stream_output_adapter@_W@__crt_stdio_output@@@__crt_stdio_output@@IAE_NXZ 004551f0 f i libucrtd:output.obj
 0001:00054220       ?update_field_width@?$standard_base@_WV?$string_output_adapter@_W@__crt_stdio_output@@@__crt_stdio_output@@IAE_NXZ 00455220 f i libucrtd:output.obj
 0001:00054250       ?update_precision@?$positional_parameter_base@DV?$stream_output_adapter@D@__crt_stdio_output@@@__crt_stdio_output@@IAE_NXZ 00455250 f i libucrtd:output.obj
 0001:00054430       ?update_precision@?$positional_parameter_base@DV?$string_output_adapter@D@__crt_stdio_output@@@__crt_stdio_output@@IAE_NXZ 00455430 f i libucrtd:output.obj
 0001:00054610       ?update_precision@?$positional_parameter_base@_WV?$stream_output_adapter@_W@__crt_stdio_output@@@__crt_stdio_output@@IAE_NXZ 00455610 f i libucrtd:output.obj
 0001:000547f0       ?update_precision@?$positional_parameter_base@_WV?$string_output_adapter@_W@__crt_stdio_output@@@__crt_stdio_output@@IAE_NXZ 004557f0 f i libucrtd:output.obj
 0001:000549d0       ?update_precision@?$standard_base@DV?$stream_output_adapter@D@__crt_stdio_output@@@__crt_stdio_output@@IAE_NXZ 004559d0 f i libucrtd:output.obj
 0001:00054a00       ?update_precision@?$standard_base@DV?$string_output_adapter@D@__crt_stdio_output@@@__crt_stdio_output@@IAE_NXZ 00455a00 f i libucrtd:output.obj
 0001:00054a30       ?update_precision@?$standard_base@_WV?$stream_output_adapter@_W@__crt_stdio_output@@@__crt_stdio_output@@IAE_NXZ 00455a30 f i libucrtd:output.obj
 0001:00054a60       ?update_precision@?$standard_base@_WV?$string_output_adapter@_W@__crt_stdio_output@@@__crt_stdio_output@@IAE_NXZ 00455a60 f i libucrtd:output.obj
 0001:00054a90       ?validate@?$stream_output_adapter@D@__crt_stdio_output@@QBE_NXZ 00455a90 f i libucrtd:output.obj
 0001:00054b60       ?validate@?$stream_output_adapter@_W@__crt_stdio_output@@QBE_NXZ 00455b60 f i libucrtd:output.obj
 0001:00054c30       ?validate@?$string_output_adapter@D@__crt_stdio_output@@QBE_NXZ 00455c30 f i libucrtd:output.obj
 0001:00054cf0       ?validate@?$string_output_adapter@_W@__crt_stdio_output@@QBE_NXZ 00455cf0 f i libucrtd:output.obj
 0001:00054db0       ?validate_and_store_parameter_data@?$positional_parameter_base@DV?$stream_output_adapter@D@__crt_stdio_output@@@__crt_stdio_output@@AAE_NAAUparameter_data@12@W4parameter_type@12@DW4length_modifier@2@@Z 00455db0 f i libucrtd:output.obj
 0001:00054ec0       ?validate_and_store_parameter_data@?$positional_parameter_base@DV?$string_output_adapter@D@__crt_stdio_output@@@__crt_stdio_output@@AAE_NAAUparameter_data@12@W4parameter_type@12@DW4length_modifier@2@@Z 00455ec0 f i libucrtd:output.obj
 0001:00054fd0       ?validate_and_store_parameter_data@?$positional_parameter_base@_WV?$stream_output_adapter@_W@__crt_stdio_output@@@__crt_stdio_output@@AAE_NAAUparameter_data@12@W4parameter_type@12@_WW4length_modifier@2@@Z 00455fd0 f i libucrtd:output.obj
 0001:000550e0       ?validate_and_store_parameter_data@?$positional_parameter_base@_WV?$string_output_adapter@_W@__crt_stdio_output@@@__crt_stdio_output@@AAE_NAAUparameter_data@12@W4parameter_type@12@_WW4length_modifier@2@@Z 004560e0 f i libucrtd:output.obj
 0001:000551f0       ?validate_and_update_state_at_beginning_of_format_character@?$positional_parameter_base@DV?$stream_output_adapter@D@__crt_stdio_output@@@__crt_stdio_output@@IAE_NXZ 004561f0 f i libucrtd:output.obj
 0001:000554a0       ?validate_and_update_state_at_beginning_of_format_character@?$positional_parameter_base@DV?$string_output_adapter@D@__crt_stdio_output@@@__crt_stdio_output@@IAE_NXZ 004564a0 f i libucrtd:output.obj
 0001:00055750       ?validate_and_update_state_at_beginning_of_format_character@?$positional_parameter_base@_WV?$stream_output_adapter@_W@__crt_stdio_output@@@__crt_stdio_output@@IAE_NXZ 00456750 f i libucrtd:output.obj
 0001:00055a00       ?validate_and_update_state_at_beginning_of_format_character@?$positional_parameter_base@_WV?$string_output_adapter@_W@__crt_stdio_output@@@__crt_stdio_output@@IAE_NXZ 00456a00 f i libucrtd:output.obj
 0001:00055cb0       ?validate_and_update_state_at_beginning_of_format_character@?$standard_base@DV?$stream_output_adapter@D@__crt_stdio_output@@@__crt_stdio_output@@IAE_NXZ 00456cb0 f i libucrtd:output.obj
 0001:00055cd0       ?validate_and_update_state_at_beginning_of_format_character@?$standard_base@DV?$string_output_adapter@D@__crt_stdio_output@@@__crt_stdio_output@@IAE_NXZ 00456cd0 f i libucrtd:output.obj
 0001:00055cf0       ?validate_and_update_state_at_beginning_of_format_character@?$standard_base@_WV?$stream_output_adapter@_W@__crt_stdio_output@@@__crt_stdio_output@@IAE_NXZ 00456cf0 f i libucrtd:output.obj
 0001:00055d10       ?validate_and_update_state_at_beginning_of_format_character@?$standard_base@_WV?$string_output_adapter@_W@__crt_stdio_output@@@__crt_stdio_output@@IAE_NXZ 00456d10 f i libucrtd:output.obj
 0001:00055d30       ?validate_and_update_state_at_end_of_format_string@?$format_validation_base@DV?$stream_output_adapter@D@__crt_stdio_output@@@__crt_stdio_output@@IBE_NXZ 00456d30 f i libucrtd:output.obj
 0001:00055df0       ?validate_and_update_state_at_end_of_format_string@?$format_validation_base@DV?$string_output_adapter@D@__crt_stdio_output@@@__crt_stdio_output@@IBE_NXZ 00456df0 f i libucrtd:output.obj
 0001:00055eb0       ?validate_and_update_state_at_end_of_format_string@?$format_validation_base@_WV?$stream_output_adapter@_W@__crt_stdio_output@@@__crt_stdio_output@@IBE_NXZ 00456eb0 f i libucrtd:output.obj
 0001:00055f70       ?validate_and_update_state_at_end_of_format_string@?$format_validation_base@_WV?$string_output_adapter@_W@__crt_stdio_output@@@__crt_stdio_output@@IBE_NXZ 00456f70 f i libucrtd:output.obj
 0001:00056030       ?validate_and_update_state_at_end_of_format_string@?$positional_parameter_base@DV?$stream_output_adapter@D@__crt_stdio_output@@@__crt_stdio_output@@IAE_NXZ 00457030 f i libucrtd:output.obj
 0001:00056230       ?validate_and_update_state_at_end_of_format_string@?$positional_parameter_base@DV?$string_output_adapter@D@__crt_stdio_output@@@__crt_stdio_output@@IAE_NXZ 00457230 f i libucrtd:output.obj
 0001:00056430       ?validate_and_update_state_at_end_of_format_string@?$positional_parameter_base@_WV?$stream_output_adapter@_W@__crt_stdio_output@@@__crt_stdio_output@@IAE_NXZ 00457430 f i libucrtd:output.obj
 0001:00056630       ?validate_and_update_state_at_end_of_format_string@?$positional_parameter_base@_WV?$string_output_adapter@_W@__crt_stdio_output@@@__crt_stdio_output@@IAE_NXZ 00457630 f i libucrtd:output.obj
 0001:00056830       ?validate_and_update_state_at_end_of_format_string@?$standard_base@DV?$stream_output_adapter@D@__crt_stdio_output@@@__crt_stdio_output@@IBE_NXZ 00457830 f i libucrtd:output.obj
 0001:00056850       ?validate_and_update_state_at_end_of_format_string@?$standard_base@DV?$string_output_adapter@D@__crt_stdio_output@@@__crt_stdio_output@@IBE_NXZ 00457850 f i libucrtd:output.obj
 0001:00056870       ?validate_and_update_state_at_end_of_format_string@?$standard_base@_WV?$stream_output_adapter@_W@__crt_stdio_output@@@__crt_stdio_output@@IBE_NXZ 00457870 f i libucrtd:output.obj
 0001:00056890       ?validate_and_update_state_at_end_of_format_string@?$standard_base@_WV?$string_output_adapter@_W@__crt_stdio_output@@@__crt_stdio_output@@IBE_NXZ 00457890 f i libucrtd:output.obj
 0001:000568b0       ?validate_state_for_type_case_a@?$positional_parameter_base@DV?$stream_output_adapter@D@__crt_stdio_output@@@__crt_stdio_output@@IAE_NXZ 004578b0 f i libucrtd:output.obj
 0001:000569e0       ?validate_state_for_type_case_a@?$positional_parameter_base@DV?$string_output_adapter@D@__crt_stdio_output@@@__crt_stdio_output@@IAE_NXZ 004579e0 f i libucrtd:output.obj
 0001:00056b10       ?validate_state_for_type_case_a@?$positional_parameter_base@_WV?$stream_output_adapter@_W@__crt_stdio_output@@@__crt_stdio_output@@IAE_NXZ 00457b10 f i libucrtd:output.obj
 0001:00056c40       ?validate_state_for_type_case_a@?$positional_parameter_base@_WV?$string_output_adapter@_W@__crt_stdio_output@@@__crt_stdio_output@@IAE_NXZ 00457c40 f i libucrtd:output.obj
 0001:00056d70       ?validate_state_for_type_case_a@?$standard_base@DV?$stream_output_adapter@D@__crt_stdio_output@@@__crt_stdio_output@@IBE_NXZ 00457d70 f i libucrtd:output.obj
 0001:00056d90       ?validate_state_for_type_case_a@?$standard_base@DV?$string_output_adapter@D@__crt_stdio_output@@@__crt_stdio_output@@IBE_NXZ 00457d90 f i libucrtd:output.obj
 0001:00056db0       ?validate_state_for_type_case_a@?$standard_base@_WV?$stream_output_adapter@_W@__crt_stdio_output@@@__crt_stdio_output@@IBE_NXZ 00457db0 f i libucrtd:output.obj
 0001:00056dd0       ?validate_state_for_type_case_a@?$standard_base@_WV?$string_output_adapter@_W@__crt_stdio_output@@@__crt_stdio_output@@IBE_NXZ 00457dd0 f i libucrtd:output.obj
 0001:00056df0       ?validate_stream_is_ansi_if_required@?$__acrt_stdio_char_traits@D@@SA_NQAU_iobuf@@@Z 00457df0 f i libucrtd:output.obj
 0001:00056f70       ?validate_stream_is_ansi_if_required@?$__acrt_stdio_char_traits@_W@@SA_NQAU_iobuf@@@Z 00457f70 f i libucrtd:output.obj
 0001:00056f80       ?wide_null_string@?$output_processor@DV?$stream_output_adapter@D@__crt_stdio_output@@V?$format_validation_base@DV?$stream_output_adapter@D@__crt_stdio_output@@@2@@__crt_stdio_output@@CAPA_WXZ 00457f80 f i libucrtd:output.obj
 0001:00056f90       ?wide_null_string@?$output_processor@DV?$stream_output_adapter@D@__crt_stdio_output@@V?$positional_parameter_base@DV?$stream_output_adapter@D@__crt_stdio_output@@@2@@__crt_stdio_output@@CAPA_WXZ 00457f90 f i libucrtd:output.obj
 0001:00056fa0       ?wide_null_string@?$output_processor@DV?$stream_output_adapter@D@__crt_stdio_output@@V?$standard_base@DV?$stream_output_adapter@D@__crt_stdio_output@@@2@@__crt_stdio_output@@CAPA_WXZ 00457fa0 f i libucrtd:output.obj
 0001:00056fb0       ?wide_null_string@?$output_processor@DV?$string_output_adapter@D@__crt_stdio_output@@V?$format_validation_base@DV?$string_output_adapter@D@__crt_stdio_output@@@2@@__crt_stdio_output@@CAPA_WXZ 00457fb0 f i libucrtd:output.obj
 0001:00056fc0       ?wide_null_string@?$output_processor@DV?$string_output_adapter@D@__crt_stdio_output@@V?$positional_parameter_base@DV?$string_output_adapter@D@__crt_stdio_output@@@2@@__crt_stdio_output@@CAPA_WXZ 00457fc0 f i libucrtd:output.obj
 0001:00056fd0       ?wide_null_string@?$output_processor@DV?$string_output_adapter@D@__crt_stdio_output@@V?$standard_base@DV?$string_output_adapter@D@__crt_stdio_output@@@2@@__crt_stdio_output@@CAPA_WXZ 00457fd0 f i libucrtd:output.obj
 0001:00056fe0       ?wide_null_string@?$output_processor@_WV?$stream_output_adapter@_W@__crt_stdio_output@@V?$format_validation_base@_WV?$stream_output_adapter@_W@__crt_stdio_output@@@2@@__crt_stdio_output@@CAPA_WXZ 00457fe0 f i libucrtd:output.obj
 0001:00056ff0       ?wide_null_string@?$output_processor@_WV?$stream_output_adapter@_W@__crt_stdio_output@@V?$positional_parameter_base@_WV?$stream_output_adapter@_W@__crt_stdio_output@@@2@@__crt_stdio_output@@CAPA_WXZ 00457ff0 f i libucrtd:output.obj
 0001:00057000       ?wide_null_string@?$output_processor@_WV?$stream_output_adapter@_W@__crt_stdio_output@@V?$standard_base@_WV?$stream_output_adapter@_W@__crt_stdio_output@@@2@@__crt_stdio_output@@CAPA_WXZ 00458000 f i libucrtd:output.obj
 0001:00057010       ?wide_null_string@?$output_processor@_WV?$string_output_adapter@_W@__crt_stdio_output@@V?$format_validation_base@_WV?$string_output_adapter@_W@__crt_stdio_output@@@2@@__crt_stdio_output@@CAPA_WXZ 00458010 f i libucrtd:output.obj
 0001:00057020       ?wide_null_string@?$output_processor@_WV?$string_output_adapter@_W@__crt_stdio_output@@V?$positional_parameter_base@_WV?$string_output_adapter@_W@__crt_stdio_output@@@2@@__crt_stdio_output@@CAPA_WXZ 00458020 f i libucrtd:output.obj
 0001:00057030       ?wide_null_string@?$output_processor@_WV?$string_output_adapter@_W@__crt_stdio_output@@V?$standard_base@_WV?$string_output_adapter@_W@__crt_stdio_output@@@2@@__crt_stdio_output@@CAPA_WXZ 00458030 f i libucrtd:output.obj
 0001:00057040       ?write_character@?$output_adapter_common@DV?$stream_output_adapter@D@__crt_stdio_output@@@__crt_stdio_output@@QBEXDQAH@Z 00458040 f i libucrtd:output.obj
 0001:00057090       ?write_character@?$output_adapter_common@_WV?$stream_output_adapter@_W@__crt_stdio_output@@@__crt_stdio_output@@QBEX_WQAH@Z 00458090 f i libucrtd:output.obj
 0001:000570e0       ?write_character@?$string_output_adapter@D@__crt_stdio_output@@QBE_NDQAH@Z 004580e0 f i libucrtd:output.obj
 0001:000571a0       ?write_character@?$string_output_adapter@_W@__crt_stdio_output@@QBE_N_WQAH@Z 004581a0 f i libucrtd:output.obj
 0001:00057260       ?write_character_without_count_update@?$stream_output_adapter@D@__crt_stdio_output@@QBE_ND@Z 00458260 f i libucrtd:output.obj
 0001:000572e0       ?write_character_without_count_update@?$stream_output_adapter@_W@__crt_stdio_output@@QBE_N_W@Z 004582e0 f i libucrtd:output.obj
 0001:00057370       ?write_stored_string_tchar@?$output_processor@DV?$stream_output_adapter@D@__crt_stdio_output@@V?$format_validation_base@DV?$stream_output_adapter@D@__crt_stdio_output@@@2@@__crt_stdio_output@@AAE_ND@Z 00458370 f i libucrtd:output.obj
 0001:000574d0       ?write_stored_string_tchar@?$output_processor@DV?$stream_output_adapter@D@__crt_stdio_output@@V?$positional_parameter_base@DV?$stream_output_adapter@D@__crt_stdio_output@@@2@@__crt_stdio_output@@AAE_ND@Z 004584d0 f i libucrtd:output.obj
 0001:00057630       ?write_stored_string_tchar@?$output_processor@DV?$stream_output_adapter@D@__crt_stdio_output@@V?$standard_base@DV?$stream_output_adapter@D@__crt_stdio_output@@@2@@__crt_stdio_output@@AAE_ND@Z 00458630 f i libucrtd:output.obj
 0001:00057790       ?write_stored_string_tchar@?$output_processor@DV?$string_output_adapter@D@__crt_stdio_output@@V?$format_validation_base@DV?$string_output_adapter@D@__crt_stdio_output@@@2@@__crt_stdio_output@@AAE_ND@Z 00458790 f i libucrtd:output.obj
 0001:000578f0       ?write_stored_string_tchar@?$output_processor@DV?$string_output_adapter@D@__crt_stdio_output@@V?$positional_parameter_base@DV?$string_output_adapter@D@__crt_stdio_output@@@2@@__crt_stdio_output@@AAE_ND@Z 004588f0 f i libucrtd:output.obj
 0001:00057a50       ?write_stored_string_tchar@?$output_processor@DV?$string_output_adapter@D@__crt_stdio_output@@V?$standard_base@DV?$string_output_adapter@D@__crt_stdio_output@@@2@@__crt_stdio_output@@AAE_ND@Z 00458a50 f i libucrtd:output.obj
 0001:00057bb0       ?write_stored_string_tchar@?$output_processor@_WV?$stream_output_adapter@_W@__crt_stdio_output@@V?$format_validation_base@_WV?$stream_output_adapter@_W@__crt_stdio_output@@@2@@__crt_stdio_output@@AAE_N_W@Z 00458bb0 f i libucrtd:output.obj
 0001:00057cd0       ?write_stored_string_tchar@?$output_processor@_WV?$stream_output_adapter@_W@__crt_stdio_output@@V?$positional_parameter_base@_WV?$stream_output_adapter@_W@__crt_stdio_output@@@2@@__crt_stdio_output@@AAE_N_W@Z 00458cd0 f i libucrtd:output.obj
 0001:00057df0       ?write_stored_string_tchar@?$output_processor@_WV?$stream_output_adapter@_W@__crt_stdio_output@@V?$standard_base@_WV?$stream_output_adapter@_W@__crt_stdio_output@@@2@@__crt_stdio_output@@AAE_N_W@Z 00458df0 f i libucrtd:output.obj
 0001:00057f10       ?write_stored_string_tchar@?$output_processor@_WV?$string_output_adapter@_W@__crt_stdio_output@@V?$format_validation_base@_WV?$string_output_adapter@_W@__crt_stdio_output@@@2@@__crt_stdio_output@@AAE_N_W@Z 00458f10 f i libucrtd:output.obj
 0001:00058030       ?write_stored_string_tchar@?$output_processor@_WV?$string_output_adapter@_W@__crt_stdio_output@@V?$positional_parameter_base@_WV?$string_output_adapter@_W@__crt_stdio_output@@@2@@__crt_stdio_output@@AAE_N_W@Z 00459030 f i libucrtd:output.obj
 0001:00058150       ?write_stored_string_tchar@?$output_processor@_WV?$string_output_adapter@_W@__crt_stdio_output@@V?$standard_base@_WV?$string_output_adapter@_W@__crt_stdio_output@@@2@@__crt_stdio_output@@AAE_N_W@Z 00459150 f i libucrtd:output.obj
 0001:00058270       ?write_string@?$stream_output_adapter@D@__crt_stdio_output@@QBEXQBDHQAHAAV__crt_deferred_errno_cache@@@Z 00459270 f i libucrtd:output.obj
 0001:000582e0       ?write_string@?$stream_output_adapter@_W@__crt_stdio_output@@QBEXQB_WHQAHAAV__crt_deferred_errno_cache@@@Z 004592e0 f i libucrtd:output.obj
 0001:00058350       ?write_string@?$string_output_adapter@D@__crt_stdio_output@@QBEXQBDHQAHAAV__crt_deferred_errno_cache@@@Z 00459350 f i libucrtd:output.obj
 0001:00058490       ?write_string@?$string_output_adapter@_W@__crt_stdio_output@@QBEXQB_WHQAHAAV__crt_deferred_errno_cache@@@Z 00459490 f i libucrtd:output.obj
 0001:000585e0       ?write_string_impl@?$output_adapter_common@DV?$stream_output_adapter@D@__crt_stdio_output@@@__crt_stdio_output@@IBEXQBDHQAHAAV__crt_deferred_errno_cache@@@Z 004595e0 f i libucrtd:output.obj
 0001:000586a0       ?write_string_impl@?$output_adapter_common@_WV?$stream_output_adapter@_W@__crt_stdio_output@@@__crt_stdio_output@@IBEXQB_WHQAHAAV__crt_deferred_errno_cache@@@Z 004596a0 f i libucrtd:output.obj
 0001:00058770       ___acrt_disable_global_locale_sync 00459770 f i libucrtd:output.obj
 0001:000587a0       ___acrt_enable_global_locale_sync 004597a0 f i libucrtd:output.obj
 0001:000587d0       ___acrt_isleadbyte_l_noupdate 004597d0 f i libucrtd:output.obj
 0001:00058800       ___acrt_locale_changed     00459800 f i libucrtd:output.obj
 0001:00058830       ___acrt_locale_get_ctype_array_value 00459830 f i libucrtd:output.obj
 0001:00058860       ___stdio_common_vfprintf   00459860 f   libucrtd:output.obj
 0001:00058890       ___stdio_common_vfprintf_p 00459890 f   libucrtd:output.obj
 0001:000588c0       ___stdio_common_vfprintf_s 004598c0 f   libucrtd:output.obj
 0001:000588f0       ___stdio_common_vfwprintf  004598f0 f   libucrtd:output.obj
 0001:00058920       ___stdio_common_vfwprintf_p 00459920 f   libucrtd:output.obj
 0001:00058950       ___stdio_common_vfwprintf_s 00459950 f   libucrtd:output.obj
 0001:00058980       ___stdio_common_vsnprintf_s 00459980 f   libucrtd:output.obj
 0001:000589c0       ___stdio_common_vsnwprintf_s 004599c0 f   libucrtd:output.obj
 0001:00058a00       ___stdio_common_vsprintf   00459a00 f   libucrtd:output.obj
 0001:00058a40       ___stdio_common_vsprintf_p 00459a40 f   libucrtd:output.obj
 0001:00058a80       ___stdio_common_vsprintf_s 00459a80 f   libucrtd:output.obj
 0001:00058ac0       ___stdio_common_vswprintf  00459ac0 f   libucrtd:output.obj
 0001:00058b00       ___stdio_common_vswprintf_p 00459b00 f   libucrtd:output.obj
 0001:00058b40       ___stdio_common_vswprintf_s 00459b40 f   libucrtd:output.obj
 0001:00058b80       __ctype_fast_check_internal 00459b80 f i libucrtd:output.obj
 0001:00058ba0       __isdigit_fast_internal    00459ba0 f i libucrtd:output.obj
 0001:00058bc0       __tolower_fast_internal    00459bc0 f i libucrtd:output.obj
 0001:00058be0       _cos                       00459be0 f   libucrtd:cos.obj
 0001:00058c40       _pow                       00459c40 f   libucrtd:pow.obj
 0001:00058ca0       _sin                       00459ca0 f   libucrtd:sin.obj
 0001:00058d00       ??$?B$$A6GXPAXK0@Z@__crt_fast_encoded_nullptr_t@@QBEP6GXPAXK0@ZXZ 00459d00 f i libucrtd:exit.obj
 0001:00058e00       ??$__crt_fast_decode_pointer@P6GXPAXK0@Z@@YAP6GXPAXK0@ZQ6GX0K0@Z@Z 00459e00 f i libucrtd:exit.obj
 0001:00058e40       ??$__crt_fast_encode_pointer@P6GXPAXK0@Z@@YAP6GXPAXK0@ZQ6GX0K0@Z@Z 00459e40 f i libucrtd:exit.obj
 0001:00058e80       ??$__crt_get_proc_address@P6GXI@Z@@YAP6GXI@ZQAUHINSTANCE__@@QBD@Z 00459e80 f i libucrtd:exit.obj
 0001:00058f40       ??0?$__crt_unique_handle_t@U__crt_hmodule_traits@@@@QAE@QAUHINSTANCE__@@@Z 00459f40 f i libucrtd:exit.obj
 0001:00058f60       ??1?$__crt_unique_handle_t@U__crt_hmodule_traits@@@@QAE@XZ 00459f60 f i libucrtd:exit.obj
 0001:00059190       ?__acrt_select_exit_lock@@YA?AW4__acrt_lock_id@@XZ 0045a190 f i libucrtd:exit.obj
 0001:000591a0       ?__crt_fast_encode_pointer@@YA?AU__crt_fast_encoded_nullptr_t@@$$T@Z 0045a1a0 f i libucrtd:exit.obj
 0001:000591b0       ?__crt_rotate_pointer_value@@YAIIH@Z 0045a1b0 f i libucrtd:exit.obj
 0001:000591f0       ?close@?$__crt_unique_handle_t@U__crt_hmodule_traits@@@@QAEXXZ 0045a1f0 f i libucrtd:exit.obj
 0001:00059230       ?close@__crt_hmodule_traits@@SA_NPAUHINSTANCE__@@@Z 0045a230 f i libucrtd:exit.obj
 0001:00059360       ?get@?$__crt_unique_handle_t@U__crt_hmodule_traits@@@@QBEPAUHINSTANCE__@@XZ 0045a360 f i libucrtd:exit.obj
 0001:00059380       ?get_address_of@?$__crt_unique_handle_t@U__crt_hmodule_traits@@@@QAEPAPAUHINSTANCE__@@XZ 0045a380 f i libucrtd:exit.obj
 0001:000593a0       ?get_invalid_value@__crt_hmodule_traits@@SAPAUHINSTANCE__@@XZ 0045a3a0 f i libucrtd:exit.obj
 0001:00059570       __Exit                     0045a570 f   libucrtd:exit.obj
 0001:00059590       ___acrt_initialize_thread_local_exit_callback 0045a590 f   libucrtd:exit.obj
 0001:000595b0       __c_exit                   0045a5b0 f   libucrtd:exit.obj
 0001:000595d0       __cexit                    0045a5d0 f   libucrtd:exit.obj
 0001:000595f0       __exit                     0045a5f0 f   libucrtd:exit.obj
 0001:00059610       __is_c_termination_complete 0045a610 f   libucrtd:exit.obj
 0001:00059630       __register_thread_local_exe_atexit_callback 0045a630 f   libucrtd:exit.obj
 0001:00059680       _exit                      0045a680 f   libucrtd:exit.obj
 0001:000596a0       _quick_exit                0045a6a0 f   libucrtd:exit.obj
 0001:000596c0       ??$?RU?$__crt_report_hook_node@D@@@__crt_internal_free_policy@@QBEXQBU?$__crt_report_hook_node@D@@@Z 0045a6c0 f i libucrtd:dbgrpt.obj
 0001:000596f0       ??$?RU?$__crt_report_hook_node@_W@@@__crt_internal_free_policy@@QBEXQBU?$__crt_report_hook_node@_W@@@Z 0045a6f0 f i libucrtd:dbgrpt.obj
 0001:0005a840       ??$get_module_file_name@AAPAUHINSTANCE__@@AAY0BAF@DK@?$__crt_char_traits@D@@SAKAAPAUHINSTANCE__@@AAY0BAF@D$$QAK@Z 0045b840 f i libucrtd:dbgrpt.obj
 0001:0005a870       ??$get_module_file_name@AAPAUHINSTANCE__@@AAY0BAF@_WK@?$__crt_char_traits@_W@@SAKAAPAUHINSTANCE__@@AAY0BAF@_W$$QAK@Z 0045b870 f i libucrtd:dbgrpt.obj
 0001:0005a8a0       ??$tcscpy_s@AAY0BAF@DIPBD@?$__crt_char_traits@D@@SAHAAY0BAF@D$$QAI$$QAPBD@Z 0045b8a0 f i libucrtd:dbgrpt.obj
 0001:0005a8d0       ??$tcscpy_s@AAY0BAF@_WIPB_W@?$__crt_char_traits@_W@@SAHAAY0BAF@_W$$QAI$$QAPB_W@Z 0045b8d0 f i libucrtd:dbgrpt.obj
 0001:0005a900       ??$tcslen@AAY0BAF@D@?$__crt_char_traits@D@@SAIAAY0BAF@D@Z 0045b900 f i libucrtd:dbgrpt.obj
 0001:0005a920       ??$tcslen@AAY0BAF@_W@?$__crt_char_traits@_W@@SAIAAY0BAF@_W@Z 0045b920 f i libucrtd:dbgrpt.obj
 0001:0005a940       ??$tcslen@ABQBD@?$__crt_char_traits@D@@SAIABQBD@Z 0045b940 f i libucrtd:dbgrpt.obj
 0001:0005a960       ??$tcslen@ABQB_W@?$__crt_char_traits@_W@@SAIABQB_W@Z 0045b960 f i libucrtd:dbgrpt.obj
 0001:0005aaa0       ??0?$__crt_unique_heap_ptr@U?$__crt_report_hook_node@D@@U__crt_internal_free_policy@@@@QAE@QAU?$__crt_report_hook_node@D@@@Z 0045baa0 f i libucrtd:dbgrpt.obj
 0001:0005aac0       ??0?$__crt_unique_heap_ptr@U?$__crt_report_hook_node@_W@@U__crt_internal_free_policy@@@@QAE@QAU?$__crt_report_hook_node@_W@@@Z 0045bac0 f i libucrtd:dbgrpt.obj
 0001:0005aae0       ??1?$__crt_unique_heap_ptr@U?$__crt_report_hook_node@D@@U__crt_internal_free_policy@@@@QAE@XZ 0045bae0 f i libucrtd:dbgrpt.obj
 0001:0005ab00       ??1?$__crt_unique_heap_ptr@U?$__crt_report_hook_node@_W@@U__crt_internal_free_policy@@@@QAE@XZ 0045bb00 f i libucrtd:dbgrpt.obj
 0001:0005ab20       ??B?$__crt_unique_heap_ptr@U?$__crt_report_hook_node@D@@U__crt_internal_free_policy@@@@QBE_NXZ 0045bb20 f i libucrtd:dbgrpt.obj
 0001:0005ab40       ??B?$__crt_unique_heap_ptr@U?$__crt_report_hook_node@_W@@U__crt_internal_free_policy@@@@QBE_NXZ 0045bb40 f i libucrtd:dbgrpt.obj
 0001:0005b1e0       ?detach@?$__crt_unique_heap_ptr@U?$__crt_report_hook_node@D@@U__crt_internal_free_policy@@@@QAEPAU?$__crt_report_hook_node@D@@XZ 0045c1e0 f i libucrtd:dbgrpt.obj
 0001:0005b210       ?detach@?$__crt_unique_heap_ptr@U?$__crt_report_hook_node@_W@@U__crt_internal_free_policy@@@@QAEPAU?$__crt_report_hook_node@_W@@XZ 0045c210 f i libucrtd:dbgrpt.obj
 0001:0005b240       ?get@?$__crt_unique_heap_ptr@U?$__crt_report_hook_node@D@@U__crt_internal_free_policy@@@@QBEPAU?$__crt_report_hook_node@D@@XZ 0045c240 f i libucrtd:dbgrpt.obj
 0001:0005b260       ?get@?$__crt_unique_heap_ptr@U?$__crt_report_hook_node@_W@@U__crt_internal_free_policy@@@@QBEPAU?$__crt_report_hook_node@_W@@XZ 0045c260 f i libucrtd:dbgrpt.obj
 0001:0005b2e0       ?is_valid@?$__crt_unique_heap_ptr@U?$__crt_report_hook_node@D@@U__crt_internal_free_policy@@@@QBE_NXZ 0045c2e0 f i libucrtd:dbgrpt.obj
 0001:0005b320       ?is_valid@?$__crt_unique_heap_ptr@U?$__crt_report_hook_node@_W@@U__crt_internal_free_policy@@@@QBE_NXZ 0045c320 f i libucrtd:dbgrpt.obj
 0001:0005b360       ?release@?$__crt_unique_heap_ptr@U?$__crt_report_hook_node@D@@U__crt_internal_free_policy@@@@QAEXXZ 0045c360 f i libucrtd:dbgrpt.obj
 0001:0005b390       ?release@?$__crt_unique_heap_ptr@U?$__crt_report_hook_node@_W@@U__crt_internal_free_policy@@@@QAEXXZ 0045c390 f i libucrtd:dbgrpt.obj
 0001:0005b3c0       __CrtDbgReport             0045c3c0 f   libucrtd:dbgrpt.obj
 0001:0005b420       __CrtDbgReportW            0045c420 f   libucrtd:dbgrpt.obj
 0001:0005b480       __CrtSetReportHook2        0045c480 f   libucrtd:dbgrpt.obj
 0001:0005b4a0       __CrtSetReportHookW2       0045c4a0 f   libucrtd:dbgrpt.obj
 0001:0005b4c0       ___acrt_MessageWindowA     0045c4c0 f   libucrtd:dbgrpt.obj
 0001:0005b4f0       ___acrt_MessageWindowW     0045c4f0 f   libucrtd:dbgrpt.obj
 0001:0005b520       __invoke_watson_if_error   0045c520 f i libucrtd:dbgrpt.obj
 0001:0005b560       __invoke_watson_if_oneof   0045c560 f i libucrtd:dbgrpt.obj
 0001:0005b5b0       __snwprintf_s              0045c5b0 f i libucrtd:dbgrpt.obj
 0001:0005b600       __vsnwprintf_s_l           0045c600 f i libucrtd:dbgrpt.obj
 0001:0005b6d0       __seh_filter_dll           0045c6d0 f   libucrtd:exception_filter.obj
 0001:0005b700       __seh_filter_exe           0045c700 f   libucrtd:exception_filter.obj
 0001:0005bba0       ___acrt_report_runtime_error 0045cba0 f   libucrtd:report_runtime_error.obj
 0001:0005be10       __query_app_type           0045ce10 f   libucrtd:report_runtime_error.obj
 0001:0005be20       __set_app_type             0045ce20 f   libucrtd:report_runtime_error.obj
 0001:0005be40       ??$__crt_fast_decode_pointer@P6AHPAU_exception@@@Z@@YAP6AHPAU_exception@@@ZQ6AH0@Z@Z 0045ce40 f i libucrtd:matherr.obj
 0001:0005be80       ??$__crt_fast_encode_pointer@P6AHPAU_exception@@@Z@@YAP6AHPAU_exception@@@ZQ6AH0@Z@Z 0045ce80 f i libucrtd:matherr.obj
 0001:0005bec0       ?get_current_state_index@__crt_state_management@@YAIXZ 0045cec0 f i libucrtd:matherr.obj
 0001:0005bed0       ?initialize@?$dual_state_global@P6AHPAU_exception@@@Z@__crt_state_management@@QAEXQ6AHPAU_exception@@@Z@Z 0045ced0 f i libucrtd:matherr.obj
 0001:0005bf20       ?value@?$dual_state_global@P6AHPAU_exception@@@Z@__crt_state_management@@QAEAAP6AHPAU_exception@@@ZXZ 0045cf20 f i libucrtd:matherr.obj
 0001:0005bf40       ___acrt_has_user_matherr   0045cf40 f   libucrtd:matherr.obj
 0001:0005bf90       ___acrt_initialize_user_matherr 0045cf90 f   libucrtd:matherr.obj
 0001:0005bfb0       ___acrt_invoke_user_matherr 0045cfb0 f   libucrtd:matherr.obj
 0001:0005c010       ___setusermatherr          0045d010 f   libucrtd:matherr.obj
 0001:0005c040       ??$?RE@__crt_internal_free_policy@@QBEXQBE@Z 0045d040 f i libucrtd:argv_parsing.obj
 0001:0005c070       ??$?RPAD@__crt_internal_free_policy@@QBEXQBQAD@Z 0045d070 f i libucrtd:argv_parsing.obj
 0001:0005c0a0       ??$?RPA_W@__crt_internal_free_policy@@QBEXQBQA_W@Z 0045d0a0 f i libucrtd:argv_parsing.obj
 0001:0005c770       ??$get_module_file_name@$$TAAY0BAF@DH@?$__crt_char_traits@D@@SAK$$QA$$TAAY0BAF@D$$QAH@Z 0045d770 f i libucrtd:argv_parsing.obj
 0001:0005c7a0       ??$get_module_file_name@$$TAAY0BAF@_WH@?$__crt_char_traits@_W@@SAK$$QA$$TAAY0BAF@_W$$QAH@Z 0045d7a0 f i libucrtd:argv_parsing.obj
 0001:0005d090       ??$set_program_name@PAD@?$__crt_char_traits@D@@SAX$$QAPAD@Z 0045e090 f i libucrtd:argv_parsing.obj
 0001:0005d0b0       ??$set_program_name@PA_W@?$__crt_char_traits@_W@@SAX$$QAPA_W@Z 0045e0b0 f i libucrtd:argv_parsing.obj
 0001:0005d110       ??0?$__crt_unique_heap_ptr@EU__crt_internal_free_policy@@@@QAE@QAE@Z 0045e110 f i libucrtd:argv_parsing.obj
 0001:0005d130       ??0?$__crt_unique_heap_ptr@PADU__crt_internal_free_policy@@@@QAE@QAPAD@Z 0045e130 f i libucrtd:argv_parsing.obj
 0001:0005d150       ??0?$__crt_unique_heap_ptr@PA_WU__crt_internal_free_policy@@@@QAE@QAPA_W@Z 0045e150 f i libucrtd:argv_parsing.obj
 0001:0005d170       ??1?$__crt_unique_heap_ptr@EU__crt_internal_free_policy@@@@QAE@XZ 0045e170 f i libucrtd:argv_parsing.obj
 0001:0005d190       ??1?$__crt_unique_heap_ptr@PADU__crt_internal_free_policy@@@@QAE@XZ 0045e190 f i libucrtd:argv_parsing.obj
 0001:0005d1b0       ??1?$__crt_unique_heap_ptr@PA_WU__crt_internal_free_policy@@@@QAE@XZ 0045e1b0 f i libucrtd:argv_parsing.obj
 0001:0005d1d0       ??B?$__crt_unique_heap_ptr@EU__crt_internal_free_policy@@@@QBE_NXZ 0045e1d0 f i libucrtd:argv_parsing.obj
 0001:0005d2b0       ?detach@?$__crt_unique_heap_ptr@EU__crt_internal_free_policy@@@@QAEPAEXZ 0045e2b0 f i libucrtd:argv_parsing.obj
 0001:0005d2e0       ?detach@?$__crt_unique_heap_ptr@PADU__crt_internal_free_policy@@@@QAEPAPADXZ 0045e2e0 f i libucrtd:argv_parsing.obj
 0001:0005d310       ?detach@?$__crt_unique_heap_ptr@PA_WU__crt_internal_free_policy@@@@QAEPAPA_WXZ 0045e310 f i libucrtd:argv_parsing.obj
 0001:0005d3a0       ?get@?$__crt_unique_heap_ptr@EU__crt_internal_free_policy@@@@QBEPAEXZ 0045e3a0 f i libucrtd:argv_parsing.obj
 0001:0005d3c0       ?get@?$__crt_unique_heap_ptr@PADU__crt_internal_free_policy@@@@QBEPAPADXZ 0045e3c0 f i libucrtd:argv_parsing.obj
 0001:0005d3e0       ?get@?$__crt_unique_heap_ptr@PA_WU__crt_internal_free_policy@@@@QBEPAPA_WXZ 0045e3e0 f i libucrtd:argv_parsing.obj
 0001:0005d400       ?get_address_of@?$__crt_unique_heap_ptr@PADU__crt_internal_free_policy@@@@QAEPAPAPADXZ 0045e400 f i libucrtd:argv_parsing.obj
 0001:0005d420       ?get_address_of@?$__crt_unique_heap_ptr@PA_WU__crt_internal_free_policy@@@@QAEPAPAPA_WXZ 0045e420 f i libucrtd:argv_parsing.obj
 0001:0005d480       ?is_valid@?$__crt_unique_heap_ptr@EU__crt_internal_free_policy@@@@QBE_NXZ 0045e480 f i libucrtd:argv_parsing.obj
 0001:0005d4c0       ?release@?$__crt_unique_heap_ptr@EU__crt_internal_free_policy@@@@QAEXXZ 0045e4c0 f i libucrtd:argv_parsing.obj
 0001:0005d4f0       ?release@?$__crt_unique_heap_ptr@PADU__crt_internal_free_policy@@@@QAEXXZ 0045e4f0 f i libucrtd:argv_parsing.obj
 0001:0005d520       ?release@?$__crt_unique_heap_ptr@PA_WU__crt_internal_free_policy@@@@QAEXXZ 0045e520 f i libucrtd:argv_parsing.obj
 0001:0005d5a0       ___acrt_allocate_buffer_for_argv 0045e5a0 f   libucrtd:argv_parsing.obj
 0001:0005d690       __configure_narrow_argv    0045e690 f   libucrtd:argv_parsing.obj
 0001:0005d6b0       __configure_wide_argv      0045e6b0 f   libucrtd:argv_parsing.obj
 0001:0005d6d0       __set_pgmptr               0045e6d0 f i libucrtd:argv_parsing.obj
 0001:0005d6f0       __set_wpgmptr              0045e6f0 f i libucrtd:argv_parsing.obj
 0001:0005d702       ??$?R_W@__crt_internal_free_policy@@QBEXQB_W@Z 0045e702 f i libucrtd:environment_initialization.obj
 0001:0005dc82       ??$get_environment_from_os@$$V@?$__crt_char_traits@D@@SAPADXZ 0045ec82 f i libucrtd:environment_initialization.obj
 0001:0005dc87       ??$get_environment_from_os@$$V@?$__crt_char_traits@_W@@SAPA_WXZ 0045ec87 f i libucrtd:environment_initialization.obj
 0001:0005ddf8       ??$set_variable_in_environment_nolock@PADH@?$__crt_char_traits@D@@SAH$$QAPAD$$QAH@Z 0045edf8 f i libucrtd:environment_initialization.obj
 0001:0005de16       ??$set_variable_in_environment_nolock@PA_WH@?$__crt_char_traits@_W@@SAH$$QAPA_W$$QAH@Z 0045ee16 f i libucrtd:environment_initialization.obj
 0001:0005de34       ??$tcscpy_s@PADABIAAPAD@?$__crt_char_traits@D@@SAH$$QAPADABIAAPAD@Z 0045ee34 f i libucrtd:environment_initialization.obj
 0001:0005de59       ??$tcscpy_s@PA_WABIAAPA_W@?$__crt_char_traits@_W@@SAH$$QAPA_WABIAAPA_W@Z 0045ee59 f i libucrtd:environment_initialization.obj
 0001:0005de7e       ??$tcslen@AAPAD@?$__crt_char_traits@D@@SAIAAPAD@Z 0045ee7e f i libucrtd:environment_initialization.obj
 0001:0005de9c       ??$tcslen@AAPA_W@?$__crt_char_traits@_W@@SAIAAPA_W@Z 0045ee9c f i libucrtd:environment_initialization.obj
 0001:0005dec1       ??$uninitialize@A6AXAAPAPAD@Z@?$dual_state_global@PAPAD@__crt_state_management@@QAEXA6AXAAPAPAD@Z@Z 0045eec1 f i libucrtd:environment_initialization.obj
 0001:0005def4       ??$uninitialize@A6AXAAPAPA_W@Z@?$dual_state_global@PAPA_W@__crt_state_management@@QAEXA6AXAAPAPA_W@Z@Z 0045eef4 f i libucrtd:environment_initialization.obj
 0001:0005df69       ??0?$__crt_unique_heap_ptr@_WU__crt_internal_free_policy@@@@QAE@QA_W@Z 0045ef69 f i libucrtd:environment_initialization.obj
 0001:0005df7d       ??1?$__crt_unique_heap_ptr@_WU__crt_internal_free_policy@@@@QAE@XZ 0045ef7d f i libucrtd:environment_initialization.obj
 0001:0005df97       ??B?$__crt_unique_heap_ptr@PADU__crt_internal_free_policy@@@@QBE_NXZ 0045ef97 f i libucrtd:environment_initialization.obj
 0001:0005df9e       ??B?$__crt_unique_heap_ptr@PA_WU__crt_internal_free_policy@@@@QBE_NXZ 0045ef9e f i libucrtd:environment_initialization.obj
 0001:0005dfa5       ??B?$__crt_unique_heap_ptr@_WU__crt_internal_free_policy@@@@QBE_NXZ 0045efa5 f i libucrtd:environment_initialization.obj
 0001:0005dfac       ?__crt_compute_required_transform_buffer_count@@YAIIQBD@Z 0045efac f i libucrtd:environment_initialization.obj
 0001:0005dfcf       ?__crt_compute_required_transform_buffer_count@@YAIIQB_W@Z 0045efcf f i libucrtd:environment_initialization.obj
 0001:0005dff4       ?__crt_transform_string@@YAIIQBDQA_WI@Z 0045eff4 f i libucrtd:environment_initialization.obj
 0001:0005e01a       ?__crt_transform_string@@YAIIQB_WQADI@Z 0045f01a f i libucrtd:environment_initialization.obj
 0001:0005e044       ?detach@?$__crt_unique_heap_ptr@DU__crt_internal_free_policy@@@@QAEPADXZ 0045f044 f i libucrtd:environment_initialization.obj
 0001:0005e04a       ?detach@?$__crt_unique_heap_ptr@_WU__crt_internal_free_policy@@@@QAEPA_WXZ 0045f04a f i libucrtd:environment_initialization.obj
 0001:0005e050       ?get@?$__crt_unique_heap_ptr@_WU__crt_internal_free_policy@@@@QBEPA_WXZ 0045f050 f i libucrtd:environment_initialization.obj
 0001:0005e077       ?initialize@?$dual_state_global@PAPAD@__crt_state_management@@QAEXQAPAD@Z 0045f077 f i libucrtd:environment_initialization.obj
 0001:0005e0a6       ?initialize@?$dual_state_global@PAPA_W@__crt_state_management@@QAEXQAPA_W@Z 0045f0a6 f i libucrtd:environment_initialization.obj
 0001:0005e0d5       ?is_valid@?$__crt_unique_heap_ptr@PADU__crt_internal_free_policy@@@@QBE_NXZ 0045f0d5 f i libucrtd:environment_initialization.obj
 0001:0005e0dc       ?is_valid@?$__crt_unique_heap_ptr@PA_WU__crt_internal_free_policy@@@@QBE_NXZ 0045f0dc f i libucrtd:environment_initialization.obj
 0001:0005e0e3       ?is_valid@?$__crt_unique_heap_ptr@_WU__crt_internal_free_policy@@@@QBE_NXZ 0045f0e3 f i libucrtd:environment_initialization.obj
 0001:0005e0f2       ?release@?$__crt_unique_heap_ptr@_WU__crt_internal_free_policy@@@@QAEXXZ 0045f0f2 f i libucrtd:environment_initialization.obj
 0001:0005e10c       ?value@?$dual_state_global@PAPAD@__crt_state_management@@QAEAAPAPADXZ 0045f10c f i libucrtd:environment_initialization.obj
 0001:0005e10f       ?value@?$dual_state_global@PAPA_W@__crt_state_management@@QAEAAPAPA_WXZ 0045f10f f i libucrtd:environment_initialization.obj
 0001:0005e112       ___dcrt_get_or_create_narrow_environment_nolock 0045f112 f   libucrtd:environment_initialization.obj
 0001:0005e117       ___dcrt_get_or_create_wide_environment_nolock 0045f117 f   libucrtd:environment_initialization.obj
 0001:0005e11c       ___dcrt_uninitialize_environments_nolock 0045f11c f   libucrtd:environment_initialization.obj
 0001:0005e160       ___p__environ              0045f160 f   libucrtd:environment_initialization.obj
 0001:0005e166       ___p__wenviron             0045f166 f   libucrtd:environment_initialization.obj
 0001:0005e16c       __get_initial_narrow_environment 0045f16c f   libucrtd:environment_initialization.obj
 0001:0005e185       __get_initial_wide_environment 0045f185 f   libucrtd:environment_initialization.obj
 0001:0005e19e       __initialize_narrow_environment 0045f19e f   libucrtd:environment_initialization.obj
 0001:0005e1a3       __initialize_wide_environment 0045f1a3 f   libucrtd:environment_initialization.obj
 0001:0005e1b0       __initterm                 0045f1b0 f   libucrtd:initterm.obj
 0001:0005e210       __initterm_e               0045f210 f   libucrtd:initterm.obj
 0001:0005e280       ??$__crt_interlocked_read@H@@YAHPDH@Z 0045f280 f i libucrtd:setmode.obj
 0001:0005e2a0       ?value@?$dual_state_global@H@__crt_state_management@@QAEAAHXZ 0045f2a0 f i libucrtd:setmode.obj
 0001:0005e2c0       __get_fmode                0045f2c0 f   libucrtd:setmode.obj
 0001:0005e390       __set_fmode                0045f390 f   libucrtd:setmode.obj
 0001:0005e470       __setmode                  0045f470 f   libucrtd:setmode.obj
 0001:0005e7d0       __setmode_nolock           0045f7d0 f   libucrtd:setmode.obj
 0001:0005ea70       ___acrt_initialize_command_line 0045fa70 f   libucrtd:argv_data.obj
 0001:0005eaa0       ___acrt_uninitialize_command_line 0045faa0 f   libucrtd:argv_data.obj
 0001:0005eab0       ___p___argc                0045fab0 f   libucrtd:argv_data.obj
 0001:0005eac0       ___p___argv                0045fac0 f   libucrtd:argv_data.obj
 0001:0005ead0       ___p___wargv               0045fad0 f   libucrtd:argv_data.obj
 0001:0005eae0       ___p__acmdln               0045fae0 f   libucrtd:argv_data.obj
 0001:0005eaf0       ___p__pgmptr               0045faf0 f   libucrtd:argv_data.obj
 0001:0005eb00       ___p__wcmdln               0045fb00 f   libucrtd:argv_data.obj
 0001:0005eb10       ___p__wpgmptr              0045fb10 f   libucrtd:argv_data.obj
 0001:0005eb20       __get_pgmptr               0045fb20 f   libucrtd:argv_data.obj
 0001:0005ec80       __get_wpgmptr              0045fc80 f   libucrtd:argv_data.obj
 0001:0005edf0       ??$?RU__crt_locale_data@@@__crt_internal_free_policy@@QBEXQBU__crt_locale_data@@@Z 0045fdf0 f i libucrtd:wsetlocale.obj
 0001:0005ee20       ??$?RU__crt_locale_pointers@@@__crt_internal_free_policy@@QBEXQBU__crt_locale_pointers@@@Z 0045fe20 f i libucrtd:wsetlocale.obj
 0001:0005ee50       ??$?RU__crt_multibyte_data@@@__crt_internal_free_policy@@QBEXQBU__crt_multibyte_data@@@Z 0045fe50 f i libucrtd:wsetlocale.obj
 0001:0005f5a0       ??0?$__crt_unique_heap_ptr@U__crt_locale_data@@U__crt_internal_free_policy@@@@QAE@QAU__crt_locale_data@@@Z 004605a0 f i libucrtd:wsetlocale.obj
 0001:0005f5c0       ??0?$__crt_unique_heap_ptr@U__crt_locale_pointers@@U__crt_internal_free_policy@@@@QAE@QAU__crt_locale_pointers@@@Z 004605c0 f i libucrtd:wsetlocale.obj
 0001:0005f5e0       ??0?$__crt_unique_heap_ptr@U__crt_multibyte_data@@U__crt_internal_free_policy@@@@QAE@QAU__crt_multibyte_data@@@Z 004605e0 f i libucrtd:wsetlocale.obj
 0001:0005f600       ??0_expandlocale_locale_name_cache@@QAE@QA_WIQAU__crt_qualified_locale_data@@@Z 00460600 f i libucrtd:wsetlocale.obj
 0001:0005f690       ??1?$__crt_unique_heap_ptr@U__crt_locale_data@@U__crt_internal_free_policy@@@@QAE@XZ 00460690 f i libucrtd:wsetlocale.obj
 0001:0005f6b0       ??1?$__crt_unique_heap_ptr@U__crt_locale_pointers@@U__crt_internal_free_policy@@@@QAE@XZ 004606b0 f i libucrtd:wsetlocale.obj
 0001:0005f6d0       ??1?$__crt_unique_heap_ptr@U__crt_multibyte_data@@U__crt_internal_free_policy@@@@QAE@XZ 004606d0 f i libucrtd:wsetlocale.obj
 0001:0005f6f0       ??1_expandlocale_locale_name_cache@@QAE@XZ 004606f0 f i libucrtd:wsetlocale.obj
 0001:0005f770       ??B?$__crt_unique_heap_ptr@U__crt_locale_data@@U__crt_internal_free_policy@@@@QBE_NXZ 00460770 f i libucrtd:wsetlocale.obj
 0001:0005f790       ??B?$__crt_unique_heap_ptr@U__crt_locale_pointers@@U__crt_internal_free_policy@@@@QBE_NXZ 00460790 f i libucrtd:wsetlocale.obj
 0001:0005f7b0       ??B?$__crt_unique_heap_ptr@U__crt_multibyte_data@@U__crt_internal_free_policy@@@@QBE_NXZ 004607b0 f i libucrtd:wsetlocale.obj
 0001:0005fcb0       ?commit_locale_name@_expandlocale_locale_name_cache@@QAEXQB_WI@Z 00460cb0 f i libucrtd:wsetlocale.obj
 0001:0005fd30       ?commit_locale_name_cache_already_updated@_expandlocale_locale_name_cache@@QAEXQB_WI@Z 00460d30 f i libucrtd:wsetlocale.obj
 0001:0005fda0       ?detach@?$__crt_unique_heap_ptr@U__crt_locale_data@@U__crt_internal_free_policy@@@@QAEPAU__crt_locale_data@@XZ 00460da0 f i libucrtd:wsetlocale.obj
 0001:0005fdd0       ?detach@?$__crt_unique_heap_ptr@U__crt_locale_pointers@@U__crt_internal_free_policy@@@@QAEPAU__crt_locale_pointers@@XZ 00460dd0 f i libucrtd:wsetlocale.obj
 0001:0005fe00       ?detach@?$__crt_unique_heap_ptr@U__crt_multibyte_data@@U__crt_internal_free_policy@@@@QAEPAU__crt_multibyte_data@@XZ 00460e00 f i libucrtd:wsetlocale.obj
 0001:0005fe30       ?get@?$__crt_unique_heap_ptr@U__crt_locale_data@@U__crt_internal_free_policy@@@@QBEPAU__crt_locale_data@@XZ 00460e30 f i libucrtd:wsetlocale.obj
 0001:0005fe50       ?get@?$__crt_unique_heap_ptr@U__crt_locale_pointers@@U__crt_internal_free_policy@@@@QBEPAU__crt_locale_pointers@@XZ 00460e50 f i libucrtd:wsetlocale.obj
 0001:0005fe70       ?get@?$__crt_unique_heap_ptr@U__crt_multibyte_data@@U__crt_internal_free_policy@@@@QBEPAU__crt_multibyte_data@@XZ 00460e70 f i libucrtd:wsetlocale.obj
 0001:0005fe90       ?is_valid@?$__crt_unique_heap_ptr@U__crt_locale_data@@U__crt_internal_free_policy@@@@QBE_NXZ 00460e90 f i libucrtd:wsetlocale.obj
 0001:0005fed0       ?is_valid@?$__crt_unique_heap_ptr@U__crt_locale_pointers@@U__crt_internal_free_policy@@@@QBE_NXZ 00460ed0 f i libucrtd:wsetlocale.obj
 0001:0005ff10       ?is_valid@?$__crt_unique_heap_ptr@U__crt_multibyte_data@@U__crt_internal_free_policy@@@@QBE_NXZ 00460f10 f i libucrtd:wsetlocale.obj
 0001:0005ff50       ?release@?$__crt_unique_heap_ptr@U__crt_locale_data@@U__crt_internal_free_policy@@@@QAEXXZ 00460f50 f i libucrtd:wsetlocale.obj
 0001:0005ff80       ?release@?$__crt_unique_heap_ptr@U__crt_locale_pointers@@U__crt_internal_free_policy@@@@QAEXXZ 00460f80 f i libucrtd:wsetlocale.obj
 0001:0005ffb0       ?release@?$__crt_unique_heap_ptr@U__crt_multibyte_data@@U__crt_internal_free_policy@@@@QAEXXZ 00460fb0 f i libucrtd:wsetlocale.obj
 0001:0005ffe0       ?value@?$dual_state_global@PAU__crt_locale_data@@@__crt_state_management@@QAEAAPAU__crt_locale_data@@XZ 00460fe0 f i libucrtd:wsetlocale.obj
 0001:00060000       ___acrt_copy_locale_name   00461000 f   libucrtd:wsetlocale.obj
 0001:000600d0       ___acrt_set_locale_changed 004610d0 f   libucrtd:wsetlocale.obj
 0001:000600f0       ___acrt_uninitialize_locale 004610f0 f   libucrtd:wsetlocale.obj
 0001:00060120       ___ascii_tolower           00461120 f i libucrtd:wsetlocale.obj
 0001:00060150       ___ascii_towlower          00461150 f i libucrtd:wsetlocale.obj
 0001:00060170       ___lc_lctowcs              00461170 f   libucrtd:wsetlocale.obj
 0001:00060250       ___lc_wcstolc              00461250 f   libucrtd:wsetlocale.obj
 0001:00060510       __configthreadlocale       00461510 f   libucrtd:wsetlocale.obj
 0001:000606e0       __create_locale            004616e0 f   libucrtd:wsetlocale.obj
 0001:00060ea0       __free_locale              00461ea0 f   libucrtd:wsetlocale.obj
 0001:00061020       __get_current_locale       00462020 f   libucrtd:wsetlocale.obj
 0001:00061120       __wcreate_locale           00462120 f   libucrtd:wsetlocale.obj
 0001:000613e0       __wcscats                  004623e0 f   libucrtd:wsetlocale.obj
 0001:00061480       __wsetlocale               00462480 f   libucrtd:wsetlocale.obj
 0001:00063110       ?value@?$dual_state_global@J@__crt_state_management@@QAEAAJXZ 00464110 f i libucrtd:new_mode.obj
 0001:00063130       __query_new_mode           00464130 f   libucrtd:new_mode.obj
 0001:00063150       __set_new_mode             00464150 f   libucrtd:new_mode.obj
 0001:00063220       ___p__commode              00464220 f   libucrtd:ncommode.obj
 0001:00063230       ??$?B$$A6AHI@Z@__crt_fast_encoded_nullptr_t@@QBEP6AHI@ZXZ 00464230 f i libucrtd:new_handler.obj
 0001:00063250       ??$__crt_fast_decode_pointer@P6AHI@Z@@YAP6AHI@ZQ6AHI@Z@Z 00464250 f i libucrtd:new_handler.obj
 0001:00063290       ??$__crt_fast_encode_pointer@P6AHI@Z@@YAP6AHI@ZQ6AHI@Z@Z 00464290 f i libucrtd:new_handler.obj
 0001:000632d0       ?_set_new_handler@@YAP6AHI@ZH@Z 004642d0 f   libucrtd:new_handler.obj
 0001:00063340       ?initialize@?$dual_state_global@P6AHI@Z@__crt_state_management@@QAEXQ6AHI@Z@Z 00464340 f i libucrtd:new_handler.obj
 0001:00063390       ?value@?$dual_state_global@P6AHI@Z@__crt_state_management@@QAEAAP6AHI@ZXZ 00464390 f i libucrtd:new_handler.obj
 0001:000633b0       ___acrt_initialize_new_handler 004643b0 f   libucrtd:new_handler.obj
 0001:000633d0       __callnewh                 004643d0 f   libucrtd:new_handler.obj
 0001:00063420       __query_new_handler        00464420 f   libucrtd:new_handler.obj
 0001:000634e0       __set_new_handler          004644e0 f   libucrtd:new_handler.obj
 0001:000635c0       _malloc                    004645c0 f   libucrtd:malloc.obj
 0001:00065420       __CrtCheckMemory           00466420 f   libucrtd:debug_heap.obj
 0001:00065610       __CrtDoForAllClientObjects 00466610 f   libucrtd:debug_heap.obj
 0001:000657b0       __CrtDumpMemoryLeaks       004667b0 f   libucrtd:debug_heap.obj
 0001:00065870       __CrtGetAllocHook          00466870 f   libucrtd:debug_heap.obj
 0001:00065880       __CrtGetDumpClient         00466880 f   libucrtd:debug_heap.obj
 0001:00065890       __CrtIsMemoryBlock         00466890 f   libucrtd:debug_heap.obj
 0001:00065a30       __CrtIsValidHeapPointer    00466a30 f   libucrtd:debug_heap.obj
 0001:00065a70       __CrtIsValidPointer        00466a70 f   libucrtd:debug_heap.obj
 0001:00065aa0       __CrtMemCheckpoint         00466aa0 f   libucrtd:debug_heap.obj
 0001:00065d60       __CrtMemDifference         00466d60 f   libucrtd:debug_heap.obj
 0001:00066070       __CrtMemDumpAllObjectsSince 00467070 f   libucrtd:debug_heap.obj
 0001:00066130       __CrtMemDumpStatistics     00467130 f   libucrtd:debug_heap.obj
 0001:000662a0       __CrtReportBlockType       004672a0 f   libucrtd:debug_heap.obj
 0001:000662e0       __CrtSetAllocHook          004672e0 f   libucrtd:debug_heap.obj
 0001:00066310       __CrtSetBreakAlloc         00467310 f   libucrtd:debug_heap.obj
 0001:00066340       __CrtSetDbgBlockType       00467340 f   libucrtd:debug_heap.obj
 0001:00066450       __CrtSetDbgFlag            00467450 f   libucrtd:debug_heap.obj
 0001:00066620       __CrtSetDumpClient         00467620 f   libucrtd:debug_heap.obj
 0001:00066650       ___acrt_get_locale_data_prefix 00467650 f i libucrtd:debug_heap.obj
 0001:00066670       ___p__crtBreakAlloc        00467670 f   libucrtd:debug_heap.obj
 0001:00066680       ___p__crtDbgFlag           00467680 f   libucrtd:debug_heap.obj
 0001:00066690       __aligned_free_dbg         00467690 f   libucrtd:debug_heap.obj
 0001:00066770       __aligned_malloc_dbg       00467770 f   libucrtd:debug_heap.obj
 0001:000667a0       __aligned_msize_dbg        004677a0 f   libucrtd:debug_heap.obj
 0001:00066910       __aligned_offset_malloc_dbg 00467910 f   libucrtd:debug_heap.obj
 0001:00066b60       __aligned_offset_realloc_dbg 00467b60 f   libucrtd:debug_heap.obj
 0001:00066f30       __aligned_offset_recalloc_dbg 00467f30 f   libucrtd:debug_heap.obj
 0001:00067020       __aligned_realloc_dbg      00468020 f   libucrtd:debug_heap.obj
 0001:00067050       __aligned_recalloc_dbg     00468050 f   libucrtd:debug_heap.obj
 0001:00067090       __calloc_dbg               00468090 f   libucrtd:debug_heap.obj
 0001:00067120       __chvalidchk_l             00468120 f i libucrtd:debug_heap.obj
 0001:00067150       __expand_dbg               00468150 f   libucrtd:debug_heap.obj
 0001:000672d0       __free_dbg                 004682d0 f   libucrtd:debug_heap.obj
 0001:000673b0       __ischartype_l             004683b0 f i libucrtd:debug_heap.obj
 0001:00067450       __malloc_dbg               00468450 f   libucrtd:debug_heap.obj
 0001:00067480       __msize_dbg                00468480 f   libucrtd:debug_heap.obj
 0001:00067670       __realloc_dbg              00468670 f   libucrtd:debug_heap.obj
 0001:00067740       __recalloc_dbg             00468740 f   libucrtd:debug_heap.obj
 0001:00067bf0       _strcpy_s                  00468bf0 f   libucrtd:strcpy_s.obj
 0001:00068130       _strcat_s                  00469130 f   libucrtd:strcat_s.obj
 0001:00068160       ??$?B$$A6AXXZ@__crt_fast_encoded_nullptr_t@@QBEP6AXXZXZ 00469160 f i libucrtd:onexit.obj
 0001:00068180       ??$?BP6AXXZ@__crt_fast_encoded_nullptr_t@@QBEPAP6AXXZXZ 00469180 f i libucrtd:onexit.obj
 0001:000681a0       ??$?RP6AXXZ@__crt_internal_free_policy@@QBEXQBQ6AXXZ@Z 004691a0 f i libucrtd:onexit.obj
 0001:000683b0       ??$__crt_fast_decode_pointer@P6AXXZ@@YAP6AXXZQ6AXXZ@Z 004693b0 f i libucrtd:onexit.obj
 0001:000683f0       ??$__crt_fast_decode_pointer@PAP6AXXZ@@YAPAP6AXXZQAP6AXXZ@Z 004693f0 f i libucrtd:onexit.obj
 0001:00068430       ??$__crt_fast_encode_pointer@P6AHXZ@@YAP6AHXZQ6AHXZ@Z 00469430 f i libucrtd:onexit.obj
 0001:00068470       ??$__crt_fast_encode_pointer@P6AXXZ@@YAP6AXXZQ6AXXZ@Z 00469470 f i libucrtd:onexit.obj
 0001:000684b0       ??$__crt_fast_encode_pointer@PAP6AXXZ@@YAPAP6AXXZQAP6AXXZ@Z 004694b0 f i libucrtd:onexit.obj
 0001:00068600       ??0?$__crt_unique_heap_ptr@P6AXXZU__crt_internal_free_policy@@@@QAE@QAP6AXXZ@Z 00469600 f i libucrtd:onexit.obj
 0001:00068620       ??1?$__crt_unique_heap_ptr@P6AXXZU__crt_internal_free_policy@@@@QAE@XZ 00469620 f i libucrtd:onexit.obj
 0001:00068640       ??1scoped_global_state_reset@__crt_state_management@@QAE@XZ 00469640 f i libucrtd:onexit.obj
 0001:00068be0       ?detach@?$__crt_unique_heap_ptr@P6AXXZU__crt_internal_free_policy@@@@QAEPAP6AXXZXZ 00469be0 f i libucrtd:onexit.obj
 0001:00068c10       ?release@?$__crt_unique_heap_ptr@P6AXXZU__crt_internal_free_policy@@@@QAEXXZ 00469c10 f i libucrtd:onexit.obj
 0001:00068c40       __crt_at_quick_exit        00469c40 f   libucrtd:onexit.obj
 0001:00068c60       __crt_atexit               00469c60 f   libucrtd:onexit.obj
 0001:00068c80       __execute_onexit_table     00469c80 f   libucrtd:onexit.obj
 0001:00068cb0       __initialize_onexit_table  00469cb0 f   libucrtd:onexit.obj
 0001:00068d30       __register_onexit_function 00469d30 f   libucrtd:onexit.obj
 0001:00068fb0       ??$?BX@__crt_fast_encoded_nullptr_t@@QBEPAXXZ 00469fb0 f i libucrtd:initialization.obj
 0001:00068fd0       ??$__crt_fast_encode_pointer@PAX@@YAPAXQAX@Z 00469fd0 f i libucrtd:initialization.obj
 0001:000690c0       ?initialize@?$dual_state_global@PAU__crt_locale_data@@@__crt_state_management@@QAEXQAU__crt_locale_data@@@Z 0046a0c0 f i libucrtd:initialization.obj
 0001:00069110       ___acrt_initialize         0046a110 f   libucrtd:initialization.obj
 0001:00069130       ___acrt_thread_attach      0046a130 f   libucrtd:initialization.obj
 0001:00069150       ___acrt_thread_detach      0046a150 f   libucrtd:initialization.obj
 0001:00069170       ___acrt_uninitialize       0046a170 f   libucrtd:initialization.obj
 0001:00069190       ___acrt_uninitialize_critical 0046a190 f   libucrtd:initialization.obj
 0001:000691b0       __controlfp_s              0046a1b0 f   libucrtd:contrlfp.obj
 0001:00069310       __get_terminate            0046a310 f   libucrtd:terminate.obj
 0001:00069330       _set_terminate             0046a330 f   libucrtd:terminate.obj
 0001:00069370       _terminate                 0046a370 f   libucrtd:terminate.obj
 0001:00069fb0       __makepath                 0046afb0 f   libucrtd:makepath.obj
 0001:00069fe0       __makepath_s               0046afe0 f   libucrtd:makepath.obj
 0001:0006a010       __wmakepath                0046b010 f   libucrtd:makepath.obj
 0001:0006a040       __wmakepath_s              0046b040 f   libucrtd:makepath.obj
 0001:0006bff0       ??$tcsncpy_s@AAPADIAAPBDABI@?$__crt_char_traits@D@@SAHAAPAD$$QAIAAPBDABI@Z 0046cff0 f i libucrtd:splitpath.obj
 0001:0006c020       ??$tcsncpy_s@AAPADIAAPBDH@?$__crt_char_traits@D@@SAHAAPAD$$QAIAAPBD$$QAH@Z 0046d020 f i libucrtd:splitpath.obj
 0001:0006c050       ??$tcsncpy_s@AAPA_WIAAPB_WABI@?$__crt_char_traits@_W@@SAHAAPA_W$$QAIAAPB_WABI@Z 0046d050 f i libucrtd:splitpath.obj
 0001:0006c080       ??$tcsncpy_s@AAPA_WIAAPB_WH@?$__crt_char_traits@_W@@SAHAAPA_W$$QAIAAPB_W$$QAH@Z 0046d080 f i libucrtd:splitpath.obj
 0001:0006c320       __splitpath                0046d320 f   libucrtd:splitpath.obj
 0001:0006c350       __splitpath_s              0046d350 f   libucrtd:splitpath.obj
 0001:0006c3b0       __wsplitpath               0046d3b0 f   libucrtd:splitpath.obj
 0001:0006c3e0       __wsplitpath_s             0046d3e0 f   libucrtd:splitpath.obj
 0001:0006c820       _wcscpy_s                  0046d820 f   libucrtd:wcscpy_s.obj
 0001:0006c850       _strcmp                    0046d850 f   libucrtd:strcmp.obj
 0001:0006c900       _strlen                    0046d900 f   libucrtd:strlen.obj
 0001:0006c9b0       __set_abort_behavior       0046d9b0 f   libucrtd:abort.obj
 0001:0006c9f0       _abort                     0046d9f0 f   libucrtd:abort.obj
 0001:0006ca80       _free                      0046da80 f   libucrtd:free.obj
 0001:0006cab0       ??$__crt_fast_decode_pointer@P6AXPB_W00II@Z@@YAP6AXPB_W00II@ZQ6AX000II@Z@Z 0046dab0 f i libucrtd:invalid_parameter.obj
 0001:0006caf0       ??$__crt_fast_encode_pointer@P6AXPB_W00II@Z@@YAP6AXPB_W00II@ZQ6AX000II@Z@Z 0046daf0 f i libucrtd:invalid_parameter.obj
 0001:0006cb30       ??$initialize_from_array@$$BY00Q6AXPB_W00II@Z@?$dual_state_global@P6AXPB_W00II@Z@__crt_state_management@@QAAXAAY00Q6AXPB_W00II@Z@Z 0046db30 f i libucrtd:invalid_parameter.obj
 0001:0006cb90       ?dangerous_get_state_array@?$dual_state_global@P6AXPB_W00II@Z@__crt_state_management@@QAEPAP6AXPB_W00II@ZXZ 0046db90 f i libucrtd:invalid_parameter.obj
 0001:0006cbb0       ?value@?$dual_state_global@P6AXPB_W00II@Z@__crt_state_management@@QAEAAP6AXPB_W00II@ZXZ 0046dbb0 f i libucrtd:invalid_parameter.obj
 0001:0006cbd0       ___acrt_call_reportfault   0046dbd0 f   libucrtd:invalid_parameter.obj
 0001:0006cd80       ___acrt_initialize_invalid_parameter_handler 0046dd80 f   libucrtd:invalid_parameter.obj
 0001:0006cdb0       __get_invalid_parameter_handler 0046ddb0 f   libucrtd:invalid_parameter.obj
 0001:0006cde0       __get_thread_local_invalid_parameter_handler 0046dde0 f   libucrtd:invalid_parameter.obj
 0001:0006ce10       __invalid_parameter        0046de10 f   libucrtd:invalid_parameter.obj
 0001:0006cf00       __invalid_parameter_noinfo 0046df00 f   libucrtd:invalid_parameter.obj
 0001:0006cf20       __invalid_parameter_noinfo_noreturn 0046df20 f   libucrtd:invalid_parameter.obj
 0001:0006cf60       __invoke_watson            0046df60 f   libucrtd:invalid_parameter.obj
 0001:0006cfb0       __set_invalid_parameter_handler 0046dfb0 f   libucrtd:invalid_parameter.obj
 0001:0006d010       __set_thread_local_invalid_parameter_handler 0046e010 f   libucrtd:invalid_parameter.obj
 0001:0006d050       ??$is_overflow_condition@K@__crt_strtox@@YA_NIK@Z 0046e050 f i libucrtd:atox.obj
 0001:0006d0c0       ??$is_overflow_condition@_K@__crt_strtox@@YA_NI_K@Z 0046e0c0 f i libucrtd:atox.obj
 0001:0006d170       ??$make_c_string_character_source@D$$T@__crt_strtox@@YA?AV?$c_string_character_source@D@0@QBD$$T@Z 0046e170 f i libucrtd:atox.obj
 0001:0006d190       ??$make_c_string_character_source@_W$$T@__crt_strtox@@YA?AV?$c_string_character_source@_W@0@QB_W$$T@Z 0046e190 f i libucrtd:atox.obj
 0001:0006d1b0       ??$parse_integer@KV?$c_string_character_source@D@__crt_strtox@@@__crt_strtox@@YAKQAU__crt_locale_pointers@@V?$c_string_character_source@D@0@H_N@Z 0046e1b0 f i libucrtd:atox.obj
 0001:0006d600       ??$parse_integer@KV?$c_string_character_source@_W@__crt_strtox@@@__crt_strtox@@YAKQAU__crt_locale_pointers@@V?$c_string_character_source@_W@0@H_N@Z 0046e600 f i libucrtd:atox.obj
 0001:0006da50       ??$parse_integer@_KV?$c_string_character_source@D@__crt_strtox@@@__crt_strtox@@YA_KQAU__crt_locale_pointers@@V?$c_string_character_source@D@0@H_N@Z 0046ea50 f i libucrtd:atox.obj
 0001:0006df70       ??$parse_integer@_KV?$c_string_character_source@_W@__crt_strtox@@@__crt_strtox@@YA_KQAU__crt_locale_pointers@@V?$c_string_character_source@_W@0@H_N@Z 0046ef70 f i libucrtd:atox.obj
 0001:0006e4b0       ??$parse_integer_from_string@JD$$T@__crt_strtox@@YAJQBD$$THQAU__crt_locale_pointers@@@Z 0046f4b0 f i libucrtd:atox.obj
 0001:0006e500       ??$parse_integer_from_string@J_W$$T@__crt_strtox@@YAJQB_W$$THQAU__crt_locale_pointers@@@Z 0046f500 f i libucrtd:atox.obj
 0001:0006e550       ??$parse_integer_from_string@_JD$$T@__crt_strtox@@YA_JQBD$$THQAU__crt_locale_pointers@@@Z 0046f550 f i libucrtd:atox.obj
 0001:0006e5a0       ??$parse_integer_from_string@_J_W$$T@__crt_strtox@@YA_JQB_W$$THQAU__crt_locale_pointers@@@Z 0046f5a0 f i libucrtd:atox.obj
 0001:0006e5f0       ??0?$c_string_character_source@D@__crt_strtox@@QAE@QBDQAPBD@Z 0046f5f0 f i libucrtd:atox.obj
 0001:0006e630       ??0?$c_string_character_source@_W@__crt_strtox@@QAE@QB_WQAPB_W@Z 0046f630 f i libucrtd:atox.obj
 0001:0006e670       ??1?$c_string_character_source@D@__crt_strtox@@QAE@XZ 0046f670 f i libucrtd:atox.obj
 0001:0006e6a0       ??1?$c_string_character_source@_W@__crt_strtox@@QAE@XZ 0046f6a0 f i libucrtd:atox.obj
 0001:0006e6d0       ?get@?$c_string_character_source@D@__crt_strtox@@QAEDXZ 0046f6d0 f i libucrtd:atox.obj
 0001:0006e710       ?get@?$c_string_character_source@_W@__crt_strtox@@QAE_WXZ 0046f710 f i libucrtd:atox.obj
 0001:0006e750       ?is_space@__crt_strtox@@YA_NDQAU__crt_locale_pointers@@@Z 0046f750 f i libucrtd:atox.obj
 0001:0006e7a0       ?is_space@__crt_strtox@@YA_N_WPAU__crt_locale_pointers@@@Z 0046f7a0 f i libucrtd:atox.obj
 0001:0006e7e0       ?maximum_signed_value@__crt_strtox@@YAJK@Z 0046f7e0 f i libucrtd:atox.obj
 0001:0006e7f0       ?maximum_signed_value@__crt_strtox@@YA_J_K@Z 0046f7f0 f i libucrtd:atox.obj
 0001:0006e810       ?minimum_signed_value@__crt_strtox@@YAJK@Z 0046f810 f i libucrtd:atox.obj
 0001:0006e820       ?minimum_signed_value@__crt_strtox@@YA_J_K@Z 0046f820 f i libucrtd:atox.obj
 0001:0006e840       ?parse_digit@__crt_strtox@@YAID@Z 0046f840 f i libucrtd:atox.obj
 0001:0006e8c0       ?parse_digit@__crt_strtox@@YAI_W@Z 0046f8c0 f i libucrtd:atox.obj
 0001:0006e920       ?restore_state@?$c_string_character_source@D@__crt_strtox@@QAE_NQBD@Z 0046f920 f i libucrtd:atox.obj
 0001:0006e940       ?restore_state@?$c_string_character_source@_W@__crt_strtox@@QAE_NQB_W@Z 0046f940 f i libucrtd:atox.obj
 0001:0006e960       ?save_state@?$c_string_character_source@D@__crt_strtox@@QBEPBDXZ 0046f960 f i libucrtd:atox.obj
 0001:0006e980       ?save_state@?$c_string_character_source@_W@__crt_strtox@@QBEPB_WXZ 0046f980 f i libucrtd:atox.obj
 0001:0006e9a0       ?unget@?$c_string_character_source@D@__crt_strtox@@QAEXD@Z 0046f9a0 f i libucrtd:atox.obj
 0001:0006ea70       ?unget@?$c_string_character_source@_W@__crt_strtox@@QAEX_W@Z 0046fa70 f i libucrtd:atox.obj
 0001:0006eb40       ?validate@?$c_string_character_source@D@__crt_strtox@@QBE_NXZ 0046fb40 f i libucrtd:atox.obj
 0001:0006ec00       ?validate@?$c_string_character_source@_W@__crt_strtox@@QBE_NXZ 0046fc00 f i libucrtd:atox.obj
 0001:0006ecc0       ?wide_character_to_digit@__crt_strtox@@YAH_W@Z 0046fcc0 f i libucrtd:atox.obj
 0001:0006f0b0       ___ascii_iswalpha          004700b0 f i libucrtd:atox.obj
 0001:0006f100       ___ascii_toupper           00470100 f i libucrtd:atox.obj
 0001:0006f130       ___ascii_towupper          00470130 f i libucrtd:atox.obj
 0001:0006f150       __atoi64                   00470150 f   libucrtd:atox.obj
 0001:0006f170       __atoi64_l                 00470170 f   libucrtd:atox.obj
 0001:0006f1a0       __atoi_l                   004701a0 f   libucrtd:atox.obj
 0001:0006f1d0       __atol_l                   004701d0 f   libucrtd:atox.obj
 0001:0006f200       __atoll_l                  00470200 f   libucrtd:atox.obj
 0001:0006f230       __wtoi                     00470230 f   libucrtd:atox.obj
 0001:0006f250       __wtoi64                   00470250 f   libucrtd:atox.obj
 0001:0006f270       __wtoi64_l                 00470270 f   libucrtd:atox.obj
 0001:0006f2a0       __wtoi_l                   004702a0 f   libucrtd:atox.obj
 0001:0006f2d0       __wtol                     004702d0 f   libucrtd:atox.obj
 0001:0006f2f0       __wtol_l                   004702f0 f   libucrtd:atox.obj
 0001:0006f320       __wtoll                    00470320 f   libucrtd:atox.obj
 0001:0006f340       __wtoll_l                  00470340 f   libucrtd:atox.obj
 0001:0006f370       _atoi                      00470370 f   libucrtd:atox.obj
 0001:0006f390       _atol                      00470390 f   libucrtd:atox.obj
 0001:0006f3b0       _atoll                     004703b0 f   libucrtd:atox.obj
 0001:0006f3d0       _strncmp                   004703d0 f   libucrtd:strncmp.obj
 0001:0006f470       _wcsncmp                   00470470 f   libucrtd:wcsncmp.obj
 0001:0006f4e0       ___acrt_errno_from_os_error 004704e0 f   libucrtd:errno.obj
 0001:0006f580       ___acrt_errno_map_os_error 00470580 f   libucrtd:errno.obj
 0001:0006f5c0       ___doserrno                004705c0 f   libucrtd:errno.obj
 0001:0006f5f0       __errno                    004705f0 f   libucrtd:errno.obj
 0001:0006f620       __get_doserrno             00470620 f   libucrtd:errno.obj
 0001:0006f6d0       __get_errno                004706d0 f   libucrtd:errno.obj
 0001:0006f780       __set_doserrno             00470780 f   libucrtd:errno.obj
 0001:0006f7c0       __set_errno                004707c0 f   libucrtd:errno.obj
 0001:0006f820       ??$?B$$A6GHPA_WKJ@Z@__crt_fast_encoded_nullptr_t@@QBEP6GHPA_WKJ@ZXZ 00470820 f i libucrtd:winapi_thunks.obj
 0001:0006f930       ??$__crt_fast_decode_pointer@P6GHPA_WKJ@Z@@YAP6GHPA_WKJ@ZQ6GH0KJ@Z@Z 00470930 f i libucrtd:winapi_thunks.obj
 0001:0006f970       ??$__crt_fast_decode_pointer@PAX@@YAPAXQAX@Z 00470970 f i libucrtd:winapi_thunks.obj
 0001:0006f9b0       ??$__crt_fast_encode_pointer@P6GHPA_WKJ@Z@@YAP6GHPA_WKJ@ZQ6GH0KJ@Z@Z 004709b0 f i libucrtd:winapi_thunks.obj
 0001:00070670       _GetCurrentThreadEffectiveToken 00471670 f i libucrtd:winapi_thunks.obj
 0001:00070680       ___acrt_AppPolicyGetProcessTerminationMethodInternal@4 00471680 f   libucrtd:winapi_thunks.obj
 0001:000706d0       ___acrt_AppPolicyGetShowDeveloperDiagnosticInternal@4 004716d0 f   libucrtd:winapi_thunks.obj
 0001:00070720       ___acrt_AppPolicyGetThreadInitializationTypeInternal@4 00471720 f   libucrtd:winapi_thunks.obj
 0001:00070770       ___acrt_AppPolicyGetWindowingModelInternal@4 00471770 f   libucrtd:winapi_thunks.obj
 0001:000707c0       ___acrt_AreFileApisANSI@0  004717c0 f   libucrtd:winapi_thunks.obj
 0001:00070800       ___acrt_CompareStringEx@36 00471800 f   libucrtd:winapi_thunks.obj
 0001:000708a0       ___acrt_EnumSystemLocalesEx@16 004718a0 f   libucrtd:winapi_thunks.obj
 0001:00070910       ___acrt_FlsAlloc@4         00471910 f   libucrtd:winapi_thunks.obj
 0001:00070960       ___acrt_FlsFree@4          00471960 f   libucrtd:winapi_thunks.obj
 0001:000709b0       ___acrt_FlsGetValue@4      004719b0 f   libucrtd:winapi_thunks.obj
 0001:00070a00       ___acrt_FlsSetValue@8      00471a00 f   libucrtd:winapi_thunks.obj
 0001:00070a60       ___acrt_GetDateFormatEx@28 00471a60 f   libucrtd:winapi_thunks.obj
 0001:00070af0       ___acrt_GetEnabledXStateFeatures@0 00471af0 f   libucrtd:winapi_thunks.obj
 0001:00070b30       ___acrt_GetLocaleInfoEx@16 00471b30 f   libucrtd:winapi_thunks.obj
 0001:00070bb0       ___acrt_GetSystemTimePreciseAsFileTime@4 00471bb0 f   libucrtd:winapi_thunks.obj
 0001:00070c00       ___acrt_GetTimeFormatEx@24 00471c00 f   libucrtd:winapi_thunks.obj
 0001:00070c90       ___acrt_GetUserDefaultLocaleName@8 00471c90 f   libucrtd:winapi_thunks.obj
 0001:00070d00       ___acrt_GetXStateFeaturesMask@8 00471d00 f   libucrtd:winapi_thunks.obj
 0001:00070d50       ___acrt_InitializeCriticalSectionEx@12 00471d50 f   libucrtd:winapi_thunks.obj
 0001:00070db0       ___acrt_IsValidLocaleName@4 00471db0 f   libucrtd:winapi_thunks.obj
 0001:00070e10       ___acrt_LCIDToLocaleName@16 00471e10 f   libucrtd:winapi_thunks.obj
 0001:00070e80       ___acrt_LCMapStringEx@36   00471e80 f   libucrtd:winapi_thunks.obj
 0001:00070f20       ___acrt_LocaleNameToLCID@8 00471f20 f   libucrtd:winapi_thunks.obj
 0001:00070f80       ___acrt_LocateXStateFeature@12 00471f80 f   libucrtd:winapi_thunks.obj
 0001:00070fe0       ___acrt_MessageBoxA@16     00471fe0 f   libucrtd:winapi_thunks.obj
 0001:00071040       ___acrt_MessageBoxW@16     00472040 f   libucrtd:winapi_thunks.obj
 0001:000710a0       ___acrt_RoInitialize@4     004720a0 f   libucrtd:winapi_thunks.obj
 0001:000710f0       ___acrt_RoUninitialize@0   004720f0 f   libucrtd:winapi_thunks.obj
 0001:00071130       ___acrt_RtlGenRandom@8     00472130 f   libucrtd:winapi_thunks.obj
 0001:00071180       ___acrt_SetThreadStackGuarantee@4 00472180 f   libucrtd:winapi_thunks.obj
 0001:000711d0       ___acrt_can_show_message_box 004721d0 f   libucrtd:winapi_thunks.obj
 0001:00071210       ___acrt_can_use_vista_locale_apis 00472210 f   libucrtd:winapi_thunks.obj
 0001:00071240       ___acrt_can_use_xstate_apis 00472240 f   libucrtd:winapi_thunks.obj
 0001:00071270       ___acrt_eagerly_load_locale_apis 00472270 f   libucrtd:winapi_thunks.obj
 0001:000712c0       ___acrt_get_parent_window  004722c0 f   libucrtd:winapi_thunks.obj
 0001:00071340       ___acrt_initialize_winapi_thunks 00472340 f   libucrtd:winapi_thunks.obj
 0001:000713c0       ___acrt_is_interactive     004723c0 f   libucrtd:winapi_thunks.obj
 0001:00071490       ___acrt_uninitialize_winapi_thunks 00472490 f   libucrtd:winapi_thunks.obj
 0001:00071520       ??0__crt_stdio_stream@@QAE@QAU__crt_stdio_stream_data@@@Z 00472520 f i libucrtd:closeall.obj
 0001:00071540       __fcloseall                00472540 f   libucrtd:closeall.obj
 0001:00071f00       ?has_all_of@__crt_stdio_stream@@QBE_NJ@Z 00472f00 f i libucrtd:fflush.obj
 0001:00071ff0       ?unset_flags@__crt_stdio_stream@@QBE_NJ@Z 00472ff0 f i libucrtd:fflush.obj
 0001:00072050       ___acrt_stdio_flush_nolock 00473050 f   libucrtd:fflush.obj
 0001:00072150       __fflush_nolock            00473150 f   libucrtd:fflush.obj
 0001:000721f0       __flushall                 004731f0 f   libucrtd:fflush.obj
 0001:00072210       _fflush                    00473210 f   libucrtd:fflush.obj
 0001:000722a0       ?has_crt_buffer@__crt_stdio_stream@@QBE_NXZ 004732a0 f i libucrtd:_freebuf.obj
 0001:000722c0       ___acrt_stdio_free_buffer_nolock 004732c0 f   libucrtd:_freebuf.obj
 0001:00072710       ___acrt_initialize_lowio   00473710 f   libucrtd:ioinit.obj
 0001:000727d0       ___acrt_uninitialize_lowio 004737d0 f   libucrtd:ioinit.obj
 0001:00072ba0       __close                    00473ba0 f   libucrtd:close.obj
 0001:00072d70       __close_nolock             00473d70 f   libucrtd:close.obj
 0001:00072de0       ?lowio_handle@__crt_stdio_stream@@QBEHXZ 00473de0 f i libucrtd:fileno.obj
 0001:00072e10       __fileno                   00473e10 f   libucrtd:fileno.obj
 0001:00072ee0       ??$?RU__crt_stdio_stream_data@@@__crt_internal_free_policy@@QBEXQBU__crt_stdio_stream_data@@@Z 00473ee0 f i libucrtd:stream.obj
 0001:00072f10       ??0?$__crt_unique_heap_ptr@U__crt_stdio_stream_data@@U__crt_internal_free_policy@@@@QAE@QAU__crt_stdio_stream_data@@@Z 00473f10 f i libucrtd:stream.obj
 0001:00072f30       ??0__crt_stdio_stream@@QAE@XZ 00473f30 f i libucrtd:stream.obj
 0001:00072f50       ??1?$__crt_unique_heap_ptr@U__crt_stdio_stream_data@@U__crt_internal_free_policy@@@@QAE@XZ 00473f50 f i libucrtd:stream.obj
 0001:00072f70       ?__acrt_stdio_allocate_stream@@YA?AV__crt_stdio_stream@@XZ 00473f70 f   libucrtd:stream.obj
 0001:000730a0       ?__acrt_stdio_free_stream@@YAXV__crt_stdio_stream@@@Z 004740a0 f   libucrtd:stream.obj
 0001:00073140       ?deallocate@__crt_stdio_stream@@QAEXXZ 00474140 f i libucrtd:stream.obj
 0001:00073160       ?detach@?$__crt_unique_heap_ptr@U__crt_stdio_stream_data@@U__crt_internal_free_policy@@@@QAEPAU__crt_stdio_stream_data@@XZ 00474160 f i libucrtd:stream.obj
 0001:00073320       ?lock@__crt_stdio_stream@@QBEXXZ 00474320 f i libucrtd:stream.obj
 0001:00073350       ?release@?$__crt_unique_heap_ptr@U__crt_stdio_stream_data@@U__crt_internal_free_policy@@@@QAEXXZ 00474350 f i libucrtd:stream.obj
 0001:00073380       ?try_allocate@__crt_stdio_stream@@QAE_NXZ 00474380 f i libucrtd:stream.obj
 0001:000733e0       ??$__acrt_stdio_parse_mode@D@@YA?AU__acrt_stdio_stream_mode@@QBD@Z 004743e0 f i libucrtd:openfile.obj
 0001:00073e70       ??$__acrt_stdio_parse_mode@_W@@YA?AU__acrt_stdio_stream_mode@@QB_W@Z 00474e70 f i libucrtd:openfile.obj
 0001:00074ce0       ??$tcsncmp@AAPBDAAY02$$CBDI@?$__crt_char_traits@D@@SAHAAPBDAAY02$$CBD$$QAI@Z 00475ce0 f i libucrtd:openfile.obj
 0001:00074d10       ??$tcsncmp@AAPB_WAAY02$$CB_WI@?$__crt_char_traits@_W@@SAHAAPB_WAAY02$$CB_W$$QAI@Z 00475d10 f i libucrtd:openfile.obj
 0001:00074d40       ??$tcsnicmp@AAPBDAAY04$$CBDI@?$__crt_char_traits@D@@SAHAAPBDAAY04$$CBD$$QAI@Z 00475d40 f i libucrtd:openfile.obj
 0001:00074d70       ??$tcsnicmp@AAPBDAAY06$$CBDI@?$__crt_char_traits@D@@SAHAAPBDAAY06$$CBD$$QAI@Z 00475d70 f i libucrtd:openfile.obj
 0001:00074da0       ??$tcsnicmp@AAPBDAAY07$$CBDI@?$__crt_char_traits@D@@SAHAAPBDAAY07$$CBD$$QAI@Z 00475da0 f i libucrtd:openfile.obj
 0001:00074dd0       ??$tcsnicmp@AAPB_WAAY04$$CB_WI@?$__crt_char_traits@_W@@SAHAAPB_WAAY04$$CB_W$$QAI@Z 00475dd0 f i libucrtd:openfile.obj
 0001:00074e00       ??$tcsnicmp@AAPB_WAAY06$$CB_WI@?$__crt_char_traits@_W@@SAHAAPB_WAAY06$$CB_W$$QAI@Z 00475e00 f i libucrtd:openfile.obj
 0001:00074e30       ??$tcsnicmp@AAPB_WAAY07$$CB_WI@?$__crt_char_traits@_W@@SAHAAPB_WAAY07$$CB_W$$QAI@Z 00475e30 f i libucrtd:openfile.obj
 0001:00074e60       ??$tsopen_s@PAHABQBDABHABHH@?$__crt_char_traits@D@@SAH$$QAPAHABQBDABH2$$QAH@Z 00475e60 f i libucrtd:openfile.obj
 0001:00074ea0       ??$tsopen_s@PAHABQB_WABHABHH@?$__crt_char_traits@_W@@SAH$$QAPAHABQB_WABH2$$QAH@Z 00475ea0 f i libucrtd:openfile.obj
 0001:00074ee0       ?__acrt_stdio_parse_mode_D@@YA_NAAU__acrt_stdio_stream_mode@@@Z 00475ee0 f i libucrtd:openfile.obj
 0001:00074f10       ?__acrt_stdio_parse_mode_N@@YA_NAAU__acrt_stdio_stream_mode@@@Z 00475f10 f i libucrtd:openfile.obj
 0001:00074f30       ?__acrt_stdio_parse_mode_R@@YA_NAAU__acrt_stdio_stream_mode@@AA_N@Z 00475f30 f i libucrtd:openfile.obj
 0001:00074f70       ?__acrt_stdio_parse_mode_S@@YA_NAAU__acrt_stdio_stream_mode@@AA_N@Z 00475f70 f i libucrtd:openfile.obj
 0001:00074fb0       ?__acrt_stdio_parse_mode_T@@YA_NAAU__acrt_stdio_stream_mode@@@Z 00475fb0 f i libucrtd:openfile.obj
 0001:00074ff0       ?__acrt_stdio_parse_mode_b@@YA_NAAU__acrt_stdio_stream_mode@@@Z 00475ff0 f i libucrtd:openfile.obj
 0001:00075030       ?__acrt_stdio_parse_mode_c@@YA_NAAU__acrt_stdio_stream_mode@@AA_N@Z 00476030 f i libucrtd:openfile.obj
 0001:00075070       ?__acrt_stdio_parse_mode_n@@YA_NAAU__acrt_stdio_stream_mode@@AA_N@Z 00476070 f i libucrtd:openfile.obj
 0001:000750b0       ?__acrt_stdio_parse_mode_plus@@YA_NAAU__acrt_stdio_stream_mode@@AA_N@Z 004760b0 f i libucrtd:openfile.obj
 0001:00075130       ?__acrt_stdio_parse_mode_t@@YA_NAAU__acrt_stdio_stream_mode@@@Z 00476130 f i libucrtd:openfile.obj
 0001:00075170       ?__acrt_stdio_parse_mode_x@@YA_NAAU__acrt_stdio_stream_mode@@@Z 00476170 f i libucrtd:openfile.obj
 0001:000751b0       __openfile                 004761b0 f   libucrtd:openfile.obj
 0001:000751f0       __wopenfile                004761f0 f   libucrtd:openfile.obj
 0001:00075ea0       __read                     00476ea0 f   libucrtd:read.obj
 0001:00076240       __read_nolock              00477240 f   libucrtd:read.obj
 0001:00076e50       __utf8_no_of_trailbytes    00477e50 f i libucrtd:read.obj
 0001:000777c0       ___acrt_stdio_refill_and_read_narrow_nolock 004787c0 f   libucrtd:_filbuf.obj
 0001:000777f0       ___acrt_stdio_refill_and_read_wide_nolock 004787f0 f   libucrtd:_filbuf.obj
 0001:00077820       __CrtGetDebugFillThreshold 00478820 f   libucrtd:debug_fill_threshold.obj
 0001:00077830       __CrtSetDebugFillThreshold 00478830 f   libucrtd:debug_fill_threshold.obj
 0001:00077860       ??$make_c_string_character_source@DPAPAD@__crt_strtox@@YA?AV?$c_string_character_source@D@0@QBDQAPAD@Z 00478860 f i libucrtd:strtox.obj
 0001:00077880       ??$make_c_string_character_source@_WPAPA_W@__crt_strtox@@YA?AV?$c_string_character_source@_W@0@QB_WQAPA_W@Z 00478880 f i libucrtd:strtox.obj
 0001:000778a0       ??$parse_integer_from_string@JDPAPAD@__crt_strtox@@YAJQBDQAPADHQAU__crt_locale_pointers@@@Z 004788a0 f i libucrtd:strtox.obj
 0001:000778f0       ??$parse_integer_from_string@J_WPAPA_W@__crt_strtox@@YAJQB_WQAPA_WHQAU__crt_locale_pointers@@@Z 004788f0 f i libucrtd:strtox.obj
 0001:00077940       ??$parse_integer_from_string@KDPAPAD@__crt_strtox@@YAKQBDQAPADHQAU__crt_locale_pointers@@@Z 00478940 f i libucrtd:strtox.obj
 0001:00077990       ??$parse_integer_from_string@K_WPAPA_W@__crt_strtox@@YAKQB_WQAPA_WHQAU__crt_locale_pointers@@@Z 00478990 f i libucrtd:strtox.obj
 0001:000779e0       ??$parse_integer_from_string@_JDPAPAD@__crt_strtox@@YA_JQBDQAPADHQAU__crt_locale_pointers@@@Z 004789e0 f i libucrtd:strtox.obj
 0001:00077a30       ??$parse_integer_from_string@_J_WPAPA_W@__crt_strtox@@YA_JQB_WQAPA_WHQAU__crt_locale_pointers@@@Z 00478a30 f i libucrtd:strtox.obj
 0001:00077a80       ??$parse_integer_from_string@_KDPAPAD@__crt_strtox@@YA_KQBDQAPADHQAU__crt_locale_pointers@@@Z 00478a80 f i libucrtd:strtox.obj
 0001:00077ad0       ??$parse_integer_from_string@_K_WPAPA_W@__crt_strtox@@YA_KQB_WQAPA_WHQAU__crt_locale_pointers@@@Z 00478ad0 f i libucrtd:strtox.obj
 0001:00077b20       __strtoi64                 00478b20 f   libucrtd:strtox.obj
 0001:00077b50       __strtoi64_l               00478b50 f   libucrtd:strtox.obj
 0001:00077b80       __strtoimax_l              00478b80 f   libucrtd:strtox.obj
 0001:00077bb0       __strtol_l                 00478bb0 f   libucrtd:strtox.obj
 0001:00077be0       __strtoll_l                00478be0 f   libucrtd:strtox.obj
 0001:00077c10       __strtoui64                00478c10 f   libucrtd:strtox.obj
 0001:00077c40       __strtoui64_l              00478c40 f   libucrtd:strtox.obj
 0001:00077c70       __strtoul_l                00478c70 f   libucrtd:strtox.obj
 0001:00077ca0       __strtoull_l               00478ca0 f   libucrtd:strtox.obj
 0001:00077cd0       __strtoumax_l              00478cd0 f   libucrtd:strtox.obj
 0001:00077d00       __wcstoi64                 00478d00 f   libucrtd:strtox.obj
 0001:00077d30       __wcstoi64_l               00478d30 f   libucrtd:strtox.obj
 0001:00077d60       __wcstoimax_l              00478d60 f   libucrtd:strtox.obj
 0001:00077d90       __wcstol_l                 00478d90 f   libucrtd:strtox.obj
 0001:00077dc0       __wcstoll_l                00478dc0 f   libucrtd:strtox.obj
 0001:00077df0       __wcstoui64                00478df0 f   libucrtd:strtox.obj
 0001:00077e20       __wcstoui64_l              00478e20 f   libucrtd:strtox.obj
 0001:00077e50       __wcstoul_l                00478e50 f   libucrtd:strtox.obj
 0001:00077e80       __wcstoull_l               00478e80 f   libucrtd:strtox.obj
 0001:00077eb0       __wcstoumax_l              00478eb0 f   libucrtd:strtox.obj
 0001:00077ee0       _strtoimax                 00478ee0 f   libucrtd:strtox.obj
 0001:00077f10       _strtol                    00478f10 f   libucrtd:strtox.obj
 0001:00077f40       _strtoll                   00478f40 f   libucrtd:strtox.obj
 0001:00077f70       _strtoul                   00478f70 f   libucrtd:strtox.obj
 0001:00077fa0       _strtoull                  00478fa0 f   libucrtd:strtox.obj
 0001:00077fd0       _strtoumax                 00478fd0 f   libucrtd:strtox.obj
 0001:00078000       _wcstoimax                 00479000 f   libucrtd:strtox.obj
 0001:00078030       _wcstol                    00479030 f   libucrtd:strtox.obj
 0001:00078060       _wcstoll                   00479060 f   libucrtd:strtox.obj
 0001:00078090       _wcstoul                   00479090 f   libucrtd:strtox.obj
 0001:000780c0       _wcstoull                  004790c0 f   libucrtd:strtox.obj
 0001:000780f0       _wcstoumax                 004790f0 f   libucrtd:strtox.obj
 0001:00078120       __mbtowc_l                 00479120 f   libucrtd:mbtowc.obj
 0001:00078500       _mbtowc                    00479500 f   libucrtd:mbtowc.obj
 0001:00078530       __wctomb_l                 00479530 f   libucrtd:wctomb.obj
 0001:000785d0       __wctomb_s_l               004795d0 f   libucrtd:wctomb.obj
 0001:00078a80       _wctomb                    00479a80 f   libucrtd:wctomb.obj
 0001:00078ae0       _wctomb_s                  00479ae0 f   libucrtd:wctomb.obj
 0001:00079b50       ??1?$__crt_simd_cleanup_guard@$00@@QAE@XZ 0047ab50 f i libucrtd:strnlen.obj
 0001:00079b70       ??1?$__crt_simd_cleanup_guard@$0A@@@QAE@XZ 0047ab70 f i libucrtd:strnlen.obj
 0001:00079b80       ?compare_equals@?$__crt_simd_traits@$00E@@SA?AT__m256i@@T2@0@Z 0047ab80 f i libucrtd:strnlen.obj
 0001:00079bd0       ?compare_equals@?$__crt_simd_traits@$00G@@SA?AT__m256i@@T2@0@Z 0047abd0 f i libucrtd:strnlen.obj
 0001:00079c20       ?compare_equals@?$__crt_simd_traits@$0A@E@@SA?AT__m128i@@T2@0@Z 0047ac20 f i libucrtd:strnlen.obj
 0001:00079c70       ?compare_equals@?$__crt_simd_traits@$0A@G@@SA?AT__m128i@@T2@0@Z 0047ac70 f i libucrtd:strnlen.obj
 0001:00079cc0       ?compute_byte_mask@?$__crt_simd_pack_traits@$00@@SAHT__m256i@@@Z 0047acc0 f i libucrtd:strnlen.obj
 0001:00079d00       ?compute_byte_mask@?$__crt_simd_pack_traits@$0A@@@SAHT__m128i@@@Z 0047ad00 f i libucrtd:strnlen.obj
 0001:00079d40       ?get_zero_pack@?$__crt_simd_pack_traits@$00@@SA?AT__m256i@@XZ 0047ad40 f i libucrtd:strnlen.obj
 0001:00079d80       ?get_zero_pack@?$__crt_simd_pack_traits@$0A@@@SA?AT__m128i@@XZ 0047ad80 f i libucrtd:strnlen.obj
 0001:00079dc0       _strnlen                   0047adc0 f   libucrtd:strnlen.obj
 0001:00079de0       _wcslen                    0047ade0 f   libucrtd:strnlen.obj
 0001:00079e00       _wcsnlen                   0047ae00 f   libucrtd:strnlen.obj
 0001:00079e20       ??$?RU__acrt_ptd@@@__crt_internal_free_policy@@QBEXQBU__acrt_ptd@@@Z 0047ae20 f i libucrtd:per_thread_data.obj
 0001:0007a3e0       ??0?$__crt_unique_heap_ptr@U__acrt_ptd@@U__crt_internal_free_policy@@@@QAE@QAU__acrt_ptd@@@Z 0047b3e0 f i libucrtd:per_thread_data.obj
 0001:0007a400       ??0__crt_scoped_get_last_error_reset@@QAE@XZ 0047b400 f i libucrtd:per_thread_data.obj
 0001:0007a430       ??1?$__crt_unique_heap_ptr@U__acrt_ptd@@U__crt_internal_free_policy@@@@QAE@XZ 0047b430 f i libucrtd:per_thread_data.obj
 0001:0007a450       ??1__crt_scoped_get_last_error_reset@@QAE@XZ 0047b450 f i libucrtd:per_thread_data.obj
 0001:0007a470       ??B?$__crt_unique_heap_ptr@U__acrt_ptd@@U__crt_internal_free_policy@@@@QBE_NXZ 0047b470 f i libucrtd:per_thread_data.obj
 0001:0007a830       ?dangerous_get_state_array@?$dual_state_global@PAU__crt_locale_data@@@__crt_state_management@@QAEPAPAU__crt_locale_data@@XZ 0047b830 f i libucrtd:per_thread_data.obj
 0001:0007aa10       ?detach@?$__crt_unique_heap_ptr@U__acrt_ptd@@U__crt_internal_free_policy@@@@QAEPAU__acrt_ptd@@XZ 0047ba10 f i libucrtd:per_thread_data.obj
 0001:0007aa40       ?get@?$__crt_unique_heap_ptr@U__acrt_ptd@@U__crt_internal_free_policy@@@@QBEPAU__acrt_ptd@@XZ 0047ba40 f i libucrtd:per_thread_data.obj
 0001:0007aa60       ?get_current_state_index@__crt_state_management@@YAIABV__crt_scoped_get_last_error_reset@@@Z 0047ba60 f i libucrtd:per_thread_data.obj
 0001:0007ac20       ?is_valid@?$__crt_unique_heap_ptr@U__acrt_ptd@@U__crt_internal_free_policy@@@@QBE_NXZ 0047bc20 f i libucrtd:per_thread_data.obj
 0001:0007ac60       ?release@?$__crt_unique_heap_ptr@U__acrt_ptd@@U__crt_internal_free_policy@@@@QAEXXZ 0047bc60 f i libucrtd:per_thread_data.obj
 0001:0007ad70       ___acrt_freeptd            0047bd70 f   libucrtd:per_thread_data.obj
 0001:0007adb0       ___acrt_getptd             0047bdb0 f   libucrtd:per_thread_data.obj
 0001:0007ade0       ___acrt_getptd_head        0047bde0 f   libucrtd:per_thread_data.obj
 0001:0007ae10       ___acrt_getptd_noexit      0047be10 f   libucrtd:per_thread_data.obj
 0001:0007ae20       ___acrt_initialize_ptd     0047be20 f   libucrtd:per_thread_data.obj
 0001:0007ae70       ___acrt_uninitialize_ptd   0047be70 f   libucrtd:per_thread_data.obj
 0001:0007aea0       ___threadhandle            0047bea0 f   libucrtd:per_thread_data.obj
 0001:0007aeb0       ___threadid                0047beb0 f   libucrtd:per_thread_data.obj
 0001:0007aec0       ?value@?$dual_state_global@PAU__crt_multibyte_data@@@__crt_state_management@@QAEAAPAU__crt_multibyte_data@@XZ 0047bec0 f i libucrtd:locale_update.obj
 0001:0007aee0       ___acrt_should_sync_with_global_locale 0047bee0 f i libucrtd:locale_update.obj
 0001:0007af20       ___acrt_update_locale_info 0047bf20 f   libucrtd:locale_update.obj
 0001:0007af70       ___acrt_update_multibyte_info 0047bf70 f   libucrtd:locale_update.obj
 0001:0007afc0       ?__acrt_fp_classify@@YA?AW4__acrt_fp_class@@ABN@Z 0047bfc0 f i libucrtd:cvt.obj
 0001:0007b120       ?__acrt_fp_is_negative@@YA_NABN@Z 0047c120 f i libucrtd:cvt.obj
 0001:0007c8c0       ?strrchr@@YAPADQADH@Z      0047d8c0 f i libucrtd:cvt.obj
 0001:0007c8e0       ___acrt_fp_format          0047d8e0 f   libucrtd:cvt.obj
 0001:0007ced0       __fputwc_nolock            0047ded0 f   libucrtd:fputwc.obj
 0001:0007d130       __fputwchar                0047e130 f   libucrtd:fputwc.obj
 0001:0007d160       __putwc_nolock             0047e160 f   libucrtd:fputwc.obj
 0001:0007d180       _fputwc                    0047e180 f   libucrtd:fputwc.obj
 0001:0007d2d0       _putwc                     0047e2d0 f   libucrtd:fputwc.obj
 0001:0007d2f0       _putwchar                  0047e2f0 f   libucrtd:fputwc.obj
 0001:0007d310       __fputc_nolock             0047e310 f   libucrtd:fputc.obj
 0001:0007d3c0       __fputchar                 0047e3c0 f   libucrtd:fputc.obj
 0001:0007d3f0       __putc_nolock              0047e3f0 f   libucrtd:fputc.obj
 0001:0007d410       _fputc                     0047e410 f   libucrtd:fputc.obj
 0001:0007d6e0       _putc                      0047e6e0 f   libucrtd:fputc.obj
 0001:0007d700       _putchar                   0047e700 f   libucrtd:fputc.obj
 0001:0007d720       __get_printf_count_output  0047e720 f   libucrtd:printf_count_output.obj
 0001:0007d760       __set_printf_count_output  0047e760 f   libucrtd:printf_count_output.obj
 0001:0007d7d0       ?has_temporary_buffer@__crt_stdio_stream@@QBE_NXZ 0047e7d0 f i libucrtd:_sftbuf.obj
 0001:0007d7f0       ___acrt_should_use_temporary_buffer 0047e7f0 f   libucrtd:_sftbuf.obj
 0001:0007d850       ___acrt_stdio_begin_temporary_buffering_nolock 0047e850 f   libucrtd:_sftbuf.obj
 0001:0007da70       ___acrt_stdio_end_temporary_buffering_nolock 0047ea70 f   libucrtd:_sftbuf.obj
 0001:0007db10       ___p___mb_cur_max          0047eb10 f   libucrtd:nlsdata.obj
 0001:0007db50       ___acrt_initialize_sse2    0047eb50 f   libucrtd:mathfcns.obj
 0001:0007db70       __set_SSE2_enable          0047eb70 f   libucrtd:mathfcns.obj
 0001:0007dbd0       __CIcos                    0047ebd0 f   libucrtd:cos_impl.obj
 0001:0007dc0b       __CIcos_default            0047ec0b f   libucrtd:cos_impl.obj
 0001:0007dc1f       __cos_default              0047ec1f     libucrtd:cos_impl.obj
 0001:0007dcf0       __CIcos_pentium4           0047ecf0 f   libucrtd:cos_pentium4.obj
 0001:0007dd08       __cos_pentium4             0047ed08     libucrtd:cos_pentium4.obj
 0001:0007df10       __CIpow                    0047ef10 f   libucrtd:pow_impl.obj
 0001:0007df4b       __CIpow_default            0047ef4b f   libucrtd:pow_impl.obj
 0001:0007df64       __pow_default              0047ef64     libucrtd:pow_impl.obj
 0001:0007e1f0       __CIpow_pentium4           0047f1f0 f   libucrtd:pow_pentium4.obj
 0001:0007e209       __pow_pentium4             0047f209     libucrtd:pow_pentium4.obj
 0001:0007efe0       __CIsin                    0047ffe0 f   libucrtd:sin_impl.obj
 0001:0007f01b       __CIsin_default            0048001b f   libucrtd:sin_impl.obj
 0001:0007f02f       __sin_default              0048002f     libucrtd:sin_impl.obj
 0001:0007f100       __CIsin_pentium4           00480100 f   libucrtd:sin_pentium4.obj
 0001:0007f118       __sin_pentium4             00480118     libucrtd:sin_pentium4.obj
 0001:0007f340       ___acrt_initialize_locks   00480340 f   libucrtd:locks.obj
 0001:0007f3c0       ___acrt_lock               004803c0 f   libucrtd:locks.obj
 0001:0007f3e0       ___acrt_uninitialize_locks 004803e0 f   libucrtd:locks.obj
 0001:0007f440       ___acrt_unlock             00480440 f   libucrtd:locks.obj
 0001:0007f460       __lock_locales             00480460 f   libucrtd:locks.obj
 0001:0007f480       __unlock_locales           00480480 f   libucrtd:locks.obj
 0001:0007f8b0       ___acrt_get_begin_thread_init_policy 004808b0 f   libucrtd:win_policies.obj
 0001:0007f8d0       ___acrt_get_developer_information_policy 004808d0 f   libucrtd:win_policies.obj
 0001:0007f8f0       ___acrt_get_process_end_policy 004808f0 f   libucrtd:win_policies.obj
 0001:0007f910       ___acrt_get_windowing_model_policy 00480910 f   libucrtd:win_policies.obj
 0001:0007f930       __CrtGetReportHook         00480930 f   libucrtd:dbgrptt.obj
 0001:0007f940       __CrtSetReportFile         00480940 f   libucrtd:dbgrptt.obj
 0001:0007fa70       __CrtSetReportHook         00480a70 f   libucrtd:dbgrptt.obj
 0001:0007faa0       __CrtSetReportMode         00480aa0 f   libucrtd:dbgrptt.obj
 0001:0007fc30       __VCrtDbgReportA           00480c30 f   libucrtd:dbgrptt.obj
 0001:000806d0       __VCrtDbgReportW           004816d0 f   libucrtd:dbgrptt.obj
 0001:000812f0       __snprintf_s               004822f0 f i libucrtd:dbgrptt.obj
 0001:00081340       __vsnprintf_s              00482340 f i libucrtd:dbgrptt.obj
 0001:00081370       __vsnprintf_s_l            00482370 f i libucrtd:dbgrptt.obj
 0001:00081560       ??$__acrt_wcs_to_mbs_cp@U__crt_win32_buffer_no_resizing@@@@YAHQB_WAAV?$__crt_win32_buffer@DU__crt_win32_buffer_no_resizing@@@@I@Z 00482560 f i libucrtd:getmodulefilenamea.obj
 0001:00081590       ??0?$__crt_win32_buffer@DU__crt_win32_buffer_no_resizing@@@@QAE@QADI@Z 00482590 f i libucrtd:getmodulefilenamea.obj
 0001:000815f0       ??1?$__crt_win32_buffer@DU__crt_win32_buffer_no_resizing@@@@QAE@XZ 004825f0 f i libucrtd:getmodulefilenamea.obj
 0001:00081680       ?__acrt_get_utf8_acp_compatibility_codepage@@YAIXZ 00482680 f i libucrtd:getmodulefilenamea.obj
 0001:00081730       ?_deallocate@?$__crt_win32_buffer@DU__crt_win32_buffer_no_resizing@@@@AAEXXZ 00482730 f i libucrtd:getmodulefilenamea.obj
 0001:00081780       ?allocate@?$__crt_win32_buffer@DU__crt_win32_buffer_no_resizing@@@@QAEHI@Z 00482780 f i libucrtd:getmodulefilenamea.obj
 0001:00081800       ?allocate@__crt_win32_buffer_no_resizing@@SAHQAPAXIABV__crt_win32_buffer_empty_debug_info@@@Z 00482800 f i libucrtd:getmodulefilenamea.obj
 0001:00081820       ?capacity@?$__crt_win32_buffer@DU__crt_win32_buffer_no_resizing@@@@QBEIXZ 00482820 f i libucrtd:getmodulefilenamea.obj
 0001:00081840       ?data@?$__crt_win32_buffer@DU__crt_win32_buffer_no_resizing@@@@QAEPADXZ 00482840 f i libucrtd:getmodulefilenamea.obj
 0001:00081860       ?deallocate@__crt_win32_buffer_no_resizing@@SAXQAXABV__crt_win32_buffer_empty_debug_info@@@Z 00482860 f i libucrtd:getmodulefilenamea.obj
 0001:00081870       ?debug_info@?$__crt_win32_buffer@DU__crt_win32_buffer_no_resizing@@@@QBEABV__crt_win32_buffer_empty_debug_info@@XZ 00482870 f i libucrtd:getmodulefilenamea.obj
 0001:00081890       ?set_to_nullptr@?$__crt_win32_buffer@DU__crt_win32_buffer_no_resizing@@@@QAEXXZ 00482890 f i libucrtd:getmodulefilenamea.obj
 0001:000818d0       ?size@?$__crt_win32_buffer@DU__crt_win32_buffer_no_resizing@@@@QAEXI@Z 004828d0 f i libucrtd:getmodulefilenamea.obj
 0001:000818f0       ?size@?$__crt_win32_buffer@DU__crt_win32_buffer_no_resizing@@@@QBEIXZ 004828f0 f i libucrtd:getmodulefilenamea.obj
 0001:00081910       ___acrt_GetModuleFileNameA 00482910 f   libucrtd:getmodulefilenamea.obj
 0001:00081cc0       ??$message_box@$$TABQBDABQBDK@?$__crt_char_traits@D@@SAH$$QA$$TABQBD1$$QAK@Z 00482cc0 f i libucrtd:crtmbox.obj
 0001:00081cf0       ??$message_box@$$TABQB_WABQB_WK@?$__crt_char_traits@_W@@SAH$$QA$$TABQB_W1$$QAK@Z 00482cf0 f i libucrtd:crtmbox.obj
 0001:00081d20       ??$message_box@PAUHWND__@@ABQBDABQBDABI@?$__crt_char_traits@D@@SAH$$QAPAUHWND__@@ABQBD1ABI@Z 00482d20 f i libucrtd:crtmbox.obj
 0001:00081d50       ??$message_box@PAUHWND__@@ABQB_WABQB_WABI@?$__crt_char_traits@_W@@SAH$$QAPAUHWND__@@ABQB_W1ABI@Z 00482d50 f i libucrtd:crtmbox.obj
 0001:00081d80       ??$output_debug_string@ABQBD@?$__crt_char_traits@D@@SAXABQBD@Z 00482d80 f i libucrtd:crtmbox.obj
 0001:00081da0       ??$output_debug_string@ABQB_W@?$__crt_char_traits@_W@@SAXABQB_W@Z 00482da0 f i libucrtd:crtmbox.obj
 0001:00081dc0       ___acrt_show_narrow_message_box 00482dc0 f   libucrtd:crtmbox.obj
 0001:00081df0       ___acrt_show_wide_message_box 00482df0 f   libucrtd:crtmbox.obj
 0001:00081e20       ??$?B$$A6AXH@Z@__crt_fast_encoded_nullptr_t@@QBEP6AXH@ZXZ 00482e20 f i libucrtd:signal.obj
 0001:00081f30       ??$__crt_fast_decode_pointer@P6AXH@Z@@YAP6AXH@ZQ6AXH@Z@Z 00482f30 f i libucrtd:signal.obj
 0001:00081f70       ??$__crt_fast_encode_pointer@P6AXH@Z@@YAP6AXH@ZQ6AXH@Z@Z 00482f70 f i libucrtd:signal.obj
 0001:000822e0       ?initialize@?$dual_state_global@P6AXH@Z@__crt_state_management@@QAEXQ6AXH@Z@Z 004832e0 f i libucrtd:signal.obj
 0001:00082480       ?value@?$dual_state_global@P6AXH@Z@__crt_state_management@@QAEAAP6AXH@ZXZ 00483480 f i libucrtd:signal.obj
 0001:000824a0       ___acrt_get_sigabrt_handler 004834a0 f   libucrtd:signal.obj
 0001:000824d0       ___acrt_initialize_signal_handlers 004834d0 f   libucrtd:signal.obj
 0001:00082520       ___fpecode                 00483520 f   libucrtd:signal.obj
 0001:00082540       ___pxcptinfoptrs           00483540 f   libucrtd:signal.obj
 0001:00082560       _raise                     00483560 f   libucrtd:signal.obj
 0001:00082a20       _signal                    00483a20 f   libucrtd:signal.obj
 0001:00082d40       __set_error_mode           00483d40 f   libucrtd:set_error_mode.obj
 0001:00083360       _wcscat_s                  00484360 f   libucrtd:wcscat_s.obj
 0001:000838c0       _wcsncpy_s                 004848c0 f   libucrtd:wcsncpy_s.obj
 0001:00083c30       ??$__acrt_mbs_to_wcs_cp@U__crt_win32_buffer_internal_dynamic_resizing@@@@YAHQBDAAV?$__crt_win32_buffer@_WU__crt_win32_buffer_internal_dynamic_resizing@@@@I@Z 00484c30 f i libucrtd:argv_wildcards.obj
 0001:00083c60       ??$__acrt_wcs_to_mbs_cp@U__crt_win32_buffer_internal_dynamic_resizing@@@@YAHQB_WAAV?$__crt_win32_buffer@DU__crt_win32_buffer_internal_dynamic_resizing@@@@I@Z 00484c60 f i libucrtd:argv_wildcards.obj
 0001:00084f70       ??$tcsncpy_s@AAPADIAAPADABI@?$__crt_char_traits@D@@SAHAAPAD$$QAI0ABI@Z 00485f70 f i libucrtd:argv_wildcards.obj
 0001:00084fa0       ??$tcsncpy_s@AAPA_WIAAPA_WABI@?$__crt_char_traits@_W@@SAHAAPA_W$$QAI0ABI@Z 00485fa0 f i libucrtd:argv_wildcards.obj
 0001:00084fd0       ??$tcsncpy_s@PADABIABQBDABI@?$__crt_char_traits@D@@SAH$$QAPADABIABQBD1@Z 00485fd0 f i libucrtd:argv_wildcards.obj
 0001:00085000       ??$tcsncpy_s@PADIABQBDABI@?$__crt_char_traits@D@@SAH$$QAPAD$$QAIABQBDABI@Z 00486000 f i libucrtd:argv_wildcards.obj
 0001:00085030       ??$tcsncpy_s@PA_WABIABQB_WABI@?$__crt_char_traits@_W@@SAH$$QAPA_WABIABQB_W1@Z 00486030 f i libucrtd:argv_wildcards.obj
 0001:00085060       ??$tcsncpy_s@PA_WIABQB_WABI@?$__crt_char_traits@_W@@SAH$$QAPA_W$$QAIABQB_WABI@Z 00486060 f i libucrtd:argv_wildcards.obj
 0001:00085090       ??$tcspbrk@AAPADAAY02$$CBD@?$__crt_char_traits@D@@SAPADAAPADAAY02$$CBD@Z 00486090 f i libucrtd:argv_wildcards.obj
 0001:000850b0       ??$tcspbrk@AAPA_WAAY02$$CB_W@?$__crt_char_traits@_W@@SAPA_WAAPA_WAAY02$$CB_W@Z 004860b0 f i libucrtd:argv_wildcards.obj
 0001:000850d0       ??0?$__crt_unique_handle_t@U__crt_findfile_traits@@@@QAE@QAX@Z 004860d0 f i libucrtd:argv_wildcards.obj
 0001:000850f0       ??0?$__crt_win32_buffer@DU__crt_win32_buffer_internal_dynamic_resizing@@@@QAE@XZ 004860f0 f i libucrtd:argv_wildcards.obj
 0001:00085150       ??0?$__crt_win32_buffer@_WU__crt_win32_buffer_internal_dynamic_resizing@@@@QAE@XZ 00486150 f i libucrtd:argv_wildcards.obj
 0001:00085230       ??1?$__crt_unique_handle_t@U__crt_findfile_traits@@@@QAE@XZ 00486230 f i libucrtd:argv_wildcards.obj
 0001:00085250       ??1?$__crt_win32_buffer@DU__crt_win32_buffer_internal_dynamic_resizing@@@@QAE@XZ 00486250 f i libucrtd:argv_wildcards.obj
 0001:000852a0       ??1?$__crt_win32_buffer@_WU__crt_win32_buffer_internal_dynamic_resizing@@@@QAE@XZ 004862a0 f i libucrtd:argv_wildcards.obj
 0001:000855b0       ?_deallocate@?$__crt_win32_buffer@DU__crt_win32_buffer_internal_dynamic_resizing@@@@AAEXXZ 004865b0 f i libucrtd:argv_wildcards.obj
 0001:00085600       ?_deallocate@?$__crt_win32_buffer@_WU__crt_win32_buffer_internal_dynamic_resizing@@@@AAEXXZ 00486600 f i libucrtd:argv_wildcards.obj
 0001:00085650       ?allocate@?$__crt_win32_buffer@DU__crt_win32_buffer_internal_dynamic_resizing@@@@QAEHI@Z 00486650 f i libucrtd:argv_wildcards.obj
 0001:000856d0       ?allocate@?$__crt_win32_buffer@_WU__crt_win32_buffer_internal_dynamic_resizing@@@@QAEHI@Z 004866d0 f i libucrtd:argv_wildcards.obj
 0001:00085760       ?allocate@__crt_win32_buffer_internal_dynamic_resizing@@SAHQAPAXIABV__crt_win32_buffer_empty_debug_info@@@Z 00486760 f i libucrtd:argv_wildcards.obj
 0001:000858d0       ?capacity@?$__crt_win32_buffer@DU__crt_win32_buffer_internal_dynamic_resizing@@@@QBEIXZ 004868d0 f i libucrtd:argv_wildcards.obj
 0001:000858f0       ?capacity@?$__crt_win32_buffer@_WU__crt_win32_buffer_internal_dynamic_resizing@@@@QBEIXZ 004868f0 f i libucrtd:argv_wildcards.obj
 0001:00085910       ?close@?$__crt_unique_handle_t@U__crt_findfile_traits@@@@QAEXXZ 00486910 f i libucrtd:argv_wildcards.obj
 0001:00085950       ?close@__crt_findfile_traits@@SA_NPAX@Z 00486950 f i libucrtd:argv_wildcards.obj
 0001:00085990       ?data@?$__crt_win32_buffer@DU__crt_win32_buffer_internal_dynamic_resizing@@@@QAEPADXZ 00486990 f i libucrtd:argv_wildcards.obj
 0001:000859b0       ?data@?$__crt_win32_buffer@_WU__crt_win32_buffer_internal_dynamic_resizing@@@@QAEPA_WXZ 004869b0 f i libucrtd:argv_wildcards.obj
 0001:000859d0       ?deallocate@__crt_win32_buffer_internal_dynamic_resizing@@SAXQAXABV__crt_win32_buffer_empty_debug_info@@@Z 004869d0 f i libucrtd:argv_wildcards.obj
 0001:000859f0       ?debug_info@?$__crt_win32_buffer@DU__crt_win32_buffer_internal_dynamic_resizing@@@@QBEABV__crt_win32_buffer_empty_debug_info@@XZ 004869f0 f i libucrtd:argv_wildcards.obj
 0001:00085a10       ?debug_info@?$__crt_win32_buffer@_WU__crt_win32_buffer_internal_dynamic_resizing@@@@QBEABV__crt_win32_buffer_empty_debug_info@@XZ 00486a10 f i libucrtd:argv_wildcards.obj
 0001:00085dd0       ?get@?$__crt_unique_handle_t@U__crt_findfile_traits@@@@QBEPAXXZ 00486dd0 f i libucrtd:argv_wildcards.obj
 0001:00085e50       ?get_invalid_value@__crt_findfile_traits@@SAPAXXZ 00486e50 f i libucrtd:argv_wildcards.obj
 0001:00085ef0       ?set_to_nullptr@?$__crt_win32_buffer@DU__crt_win32_buffer_internal_dynamic_resizing@@@@QAEXXZ 00486ef0 f i libucrtd:argv_wildcards.obj
 0001:00085f30       ?set_to_nullptr@?$__crt_win32_buffer@_WU__crt_win32_buffer_internal_dynamic_resizing@@@@QAEXXZ 00486f30 f i libucrtd:argv_wildcards.obj
 0001:00085f70       ?size@?$__crt_win32_buffer@DU__crt_win32_buffer_internal_dynamic_resizing@@@@QAEXI@Z 00486f70 f i libucrtd:argv_wildcards.obj
 0001:00085f90       ?size@?$__crt_win32_buffer@_WU__crt_win32_buffer_internal_dynamic_resizing@@@@QAEXI@Z 00486f90 f i libucrtd:argv_wildcards.obj
 0001:00086010       ?strpbrk@@YAPADQADQBD@Z    00487010 f i libucrtd:argv_wildcards.obj
 0001:00086030       ?wcspbrk@@YAPA_WPA_WPB_W@Z 00487030 f i libucrtd:argv_wildcards.obj
 0001:00086050       ___acrt_expand_narrow_argv_wildcards 00487050 f   libucrtd:argv_wildcards.obj
 0001:00086070       ___acrt_expand_wide_argv_wildcards 00487070 f   libucrtd:argv_wildcards.obj
 0001:00086170       ??$initialize_from_array@$$BY10BAA@E@?$dual_state_global@PAE@__crt_state_management@@QAAXAAY10BAA@E@Z 00487170 f i libucrtd:mbctype.obj
 0001:000861d0       ??$initialize_from_array@$$BY10BAB@E@?$dual_state_global@PAE@__crt_state_management@@QAAXAAY10BAB@E@Z 004871d0 f i libucrtd:mbctype.obj
 0001:000864f0       ?dangerous_get_state_array@?$dual_state_global@PAE@__crt_state_management@@QAEPAPAEXZ 004874f0 f i libucrtd:mbctype.obj
 0001:00086510       ?dangerous_get_state_array@?$dual_state_global@PAU__crt_multibyte_data@@@__crt_state_management@@QAEPAPAU__crt_multibyte_data@@XZ 00487510 f i libucrtd:mbctype.obj
 0001:00086620       ?initialize@?$dual_state_global@PAU__crt_multibyte_data@@@__crt_state_management@@QAEXQAU__crt_multibyte_data@@@Z 00487620 f i libucrtd:mbctype.obj
 0001:00086f40       ?value@?$dual_state_global@PAE@__crt_state_management@@QAEAAPAEXZ 00487f40 f i libucrtd:mbctype.obj
 0001:00086f60       ___acrt_initialize_multibyte 00487f60 f   libucrtd:mbctype.obj
 0001:00087030       ___acrt_update_thread_multibyte_data 00488030 f   libucrtd:mbctype.obj
 0001:00087060       ___p__mbcasemap            00488060 f   libucrtd:mbctype.obj
 0001:00087080       ___p__mbctype              00488080 f   libucrtd:mbctype.obj
 0001:000870a0       __getmbcp                  004880a0 f   libucrtd:mbctype.obj
 0001:00087130       __setmbcp                  00488130 f   libucrtd:mbctype.obj
 0001:00087160       __setmbcp_nolock           00488160 f   libucrtd:mbctype.obj
 0001:00087828       __ismbbalnum               00488828 f   libucrtd:ismbbyte.obj
 0001:00087849       __ismbbalnum_l             00488849 f   libucrtd:ismbbyte.obj
 0001:0008786c       __ismbbalpha               0048886c f   libucrtd:ismbbyte.obj
 0001:0008788d       __ismbbalpha_l             0048888d f   libucrtd:ismbbyte.obj
 0001:000878b0       __ismbbblank               004888b0 f   libucrtd:ismbbyte.obj
 0001:000878db       __ismbbblank_l             004888db f   libucrtd:ismbbyte.obj
 0001:00087908       __ismbbgraph               00488908 f   libucrtd:ismbbyte.obj
 0001:00087929       __ismbbgraph_l             00488929 f   libucrtd:ismbbyte.obj
 0001:0008794c       __ismbbkalnum              0048894c f   libucrtd:ismbbyte.obj
 0001:0008796a       __ismbbkalnum_l            0048896a f   libucrtd:ismbbyte.obj
 0001:00087989       __ismbbkana                00488989 f   libucrtd:ismbbyte.obj
 0001:000879a0       __ismbbkana_l              004889a0 f   libucrtd:ismbbyte.obj
 0001:00087a02       __ismbbkprint              00488a02 f   libucrtd:ismbbyte.obj
 0001:00087a20       __ismbbkprint_l            00488a20 f   libucrtd:ismbbyte.obj
 0001:00087a3f       __ismbbkpunct              00488a3f f   libucrtd:ismbbyte.obj
 0001:00087a5d       __ismbbkpunct_l            00488a5d f   libucrtd:ismbbyte.obj
 0001:00087a7c       __ismbblead                00488a7c f   libucrtd:ismbbyte.obj
 0001:00087a9a       __ismbblead_l              00488a9a f   libucrtd:ismbbyte.obj
 0001:00087ab9       __ismbbprint               00488ab9 f   libucrtd:ismbbyte.obj
 0001:00087ada       __ismbbprint_l             00488ada f   libucrtd:ismbbyte.obj
 0001:00087afd       __ismbbpunct               00488afd f   libucrtd:ismbbyte.obj
 0001:00087b1b       __ismbbpunct_l             00488b1b f   libucrtd:ismbbyte.obj
 0001:00087b3a       __ismbbtrail               00488b3a f   libucrtd:ismbbyte.obj
 0001:00087b58       __ismbbtrail_l             00488b58 f   libucrtd:ismbbyte.obj
 0001:00087c50       ___acrt_MultiByteToWideChar 00488c50 f   libucrtd:multibytetowidechar.obj
 0001:00087d80       ___acrt_WideCharToMultiByte 00488d80 f   libucrtd:widechartomultibyte.obj
 0001:00087f27       ___dcrt_get_narrow_environment_from_os 00488f27 f   libucrtd:get_environment_from_os.obj
 0001:00087fdd       ___dcrt_get_wide_environment_from_os 00488fdd f   libucrtd:get_environment_from_os.obj
 0001:00088bd4       ??$get_or_create_environment_nolock@$$V@?$__crt_char_traits@D@@SAPAPADXZ 00489bd4 f i libucrtd:setenv.obj
 0001:00088bd9       ??$get_or_create_environment_nolock@$$V@?$__crt_char_traits@_W@@SAPAPA_WXZ 00489bd9 f i libucrtd:setenv.obj
 0001:00088bde       ??$set_environment_variable@ABQADQAD@?$__crt_char_traits@D@@SAHABQAD$$QBQAD@Z 00489bde f i libucrtd:setenv.obj
 0001:00088bfc       ??$set_environment_variable@ABQA_WQA_W@?$__crt_char_traits@_W@@SAHABQA_W$$QBQA_W@Z 00489bfc f i libucrtd:setenv.obj
 0001:00088c18       ??$tcschr@ABQADD@?$__crt_char_traits@D@@SAPADABQAD$$QAD@Z 00489c18 f i libucrtd:setenv.obj
 0001:00088c38       ??$tcschr@ABQA_WD@?$__crt_char_traits@_W@@SAPA_WABQA_W$$QAD@Z 00489c38 f i libucrtd:setenv.obj
 0001:00088c5d       ??$tcscpy_s@AAPADABIAAPAD@?$__crt_char_traits@D@@SAHAAPADABI0@Z 00489c5d f i libucrtd:setenv.obj
 0001:00088c82       ??$tcscpy_s@AAPA_WABIAAPA_W@?$__crt_char_traits@_W@@SAHAAPA_WABI0@Z 00489c82 f i libucrtd:setenv.obj
 0001:00088ca7       ??$tcscpy_s@ABQADABIABQAD@?$__crt_char_traits@D@@SAHABQADABI0@Z 00489ca7 f i libucrtd:setenv.obj
 0001:00088ccc       ??$tcscpy_s@ABQA_WABIABQA_W@?$__crt_char_traits@_W@@SAHABQA_WABI0@Z 00489ccc f i libucrtd:setenv.obj
 0001:00088cf1       ??$tcslen@ABQAD@?$__crt_char_traits@D@@SAIABQAD@Z 00489cf1 f i libucrtd:setenv.obj
 0001:00088d0f       ??$tcslen@ABQA_W@?$__crt_char_traits@_W@@SAIABQA_W@Z 00489d0f f i libucrtd:setenv.obj
 0001:00088d34       ??$tcsnicoll@ABQBDAAPADABI@?$__crt_char_traits@D@@SAHABQBDAAPADABI@Z 00489d34 f i libucrtd:setenv.obj
 0001:00088d59       ??$tcsnicoll@ABQB_WAAPA_WABI@?$__crt_char_traits@_W@@SAHABQB_WAAPA_WABI@Z 00489d59 f i libucrtd:setenv.obj
 0001:00088d7e       ??$tcsnlen@PADH@?$__crt_char_traits@D@@SAI$$QAPAD$$QAH@Z 00489d7e f i libucrtd:setenv.obj
 0001:00088d9c       ??$tcsnlen@PA_WH@?$__crt_char_traits@_W@@SAI$$QAPA_W$$QAH@Z 00489d9c f i libucrtd:setenv.obj
 0001:00088dde       ?strchr@@YAPADQADH@Z       00489dde f i libucrtd:setenv.obj
 0001:00088deb       ?wcschr@@YAPA_WPA_W_W@Z    00489deb f i libucrtd:setenv.obj
 0001:00088df8       ___dcrt_set_variable_in_narrow_environment_nolock 00489df8 f   libucrtd:setenv.obj
 0001:00088e05       ___dcrt_set_variable_in_wide_environment_nolock 00489e05 f   libucrtd:setenv.obj
 0001:00088e20       ??$?RU__crt_lowio_handle_data@@@__crt_internal_free_policy@@QBEXQBU__crt_lowio_handle_data@@@Z 00489e20 f i libucrtd:osfinfo.obj
 0001:00088e50       ??0?$__crt_unique_heap_ptr@U__crt_lowio_handle_data@@U__crt_internal_free_policy@@@@QAE@QAU__crt_lowio_handle_data@@@Z 00489e50 f i libucrtd:osfinfo.obj
 0001:00088e70       ??1?$__crt_unique_heap_ptr@U__crt_lowio_handle_data@@U__crt_internal_free_policy@@@@QAE@XZ 00489e70 f i libucrtd:osfinfo.obj
 0001:00088e90       ??B?$__crt_unique_heap_ptr@U__crt_lowio_handle_data@@U__crt_internal_free_policy@@@@QBE_NXZ 00489e90 f i libucrtd:osfinfo.obj
 0001:00088eb0       ?detach@?$__crt_unique_heap_ptr@U__crt_lowio_handle_data@@U__crt_internal_free_policy@@@@QAEPAU__crt_lowio_handle_data@@XZ 00489eb0 f i libucrtd:osfinfo.obj
 0001:00088ee0       ?get@?$__crt_unique_heap_ptr@U__crt_lowio_handle_data@@U__crt_internal_free_policy@@@@QBEPAU__crt_lowio_handle_data@@XZ 00489ee0 f i libucrtd:osfinfo.obj
 0001:00088f00       ?is_valid@?$__crt_unique_heap_ptr@U__crt_lowio_handle_data@@U__crt_internal_free_policy@@@@QBE_NXZ 00489f00 f i libucrtd:osfinfo.obj
 0001:00088f40       ?release@?$__crt_unique_heap_ptr@U__crt_lowio_handle_data@@U__crt_internal_free_policy@@@@QAEXXZ 00489f40 f i libucrtd:osfinfo.obj
 0001:00088f70       ___acrt_lowio_create_handle_array 00489f70 f   libucrtd:osfinfo.obj
 0001:00089120       ___acrt_lowio_destroy_handle_array 0048a120 f   libucrtd:osfinfo.obj
 0001:00089190       ___acrt_lowio_ensure_fh_exists 0048a190 f   libucrtd:osfinfo.obj
 0001:00089340       ___acrt_lowio_lock_fh      0048a340 f   libucrtd:osfinfo.obj
 0001:00089370       ___acrt_lowio_set_os_handle 0048a370 f   libucrtd:osfinfo.obj
 0001:00089480       ___acrt_lowio_unlock_fh    0048a480 f   libucrtd:osfinfo.obj
 0001:000894b0       __alloc_osfhnd             0048a4b0 f   libucrtd:osfinfo.obj
 0001:00089700       __free_osfhnd              0048a700 f   libucrtd:osfinfo.obj
 0001:00089820       __get_osfhandle            0048a820 f   libucrtd:osfinfo.obj
 0001:00089a00       __open_osfhandle           0048aa00 f   libucrtd:osfinfo.obj
 0001:00089c80       ?dangerous_get_state_array@?$dual_state_global@H@__crt_state_management@@QAEPAHXZ 0048ac80 f i libucrtd:txtmode.obj
 0001:00089ca0       ___acrt_initialize_fmode   0048aca0 f   libucrtd:txtmode.obj
 0001:00089d10       ___p__fmode                0048ad10 f   libucrtd:txtmode.obj
 0001:00089d30       ??$?RG@__crt_internal_free_policy@@QBEXQBG@Z 0048ad30 f i libucrtd:initctype.obj
 0001:00089d60       ??$?RJ@__crt_internal_free_policy@@QBEXQBJ@Z 0048ad60 f i libucrtd:initctype.obj
 0001:00089d90       ??0?$__crt_unique_heap_ptr@GU__crt_internal_free_policy@@@@QAE@QAG@Z 0048ad90 f i libucrtd:initctype.obj
 0001:00089db0       ??0?$__crt_unique_heap_ptr@JU__crt_internal_free_policy@@@@QAE@QAJ@Z 0048adb0 f i libucrtd:initctype.obj
 0001:00089dd0       ??1?$__crt_unique_heap_ptr@GU__crt_internal_free_policy@@@@QAE@XZ 0048add0 f i libucrtd:initctype.obj
 0001:00089df0       ??1?$__crt_unique_heap_ptr@JU__crt_internal_free_policy@@@@QAE@XZ 0048adf0 f i libucrtd:initctype.obj
 0001:00089e10       ?detach@?$__crt_unique_heap_ptr@GU__crt_internal_free_policy@@@@QAEPAGXZ 0048ae10 f i libucrtd:initctype.obj
 0001:00089e40       ?detach@?$__crt_unique_heap_ptr@JU__crt_internal_free_policy@@@@QAEPAJXZ 0048ae40 f i libucrtd:initctype.obj
 0001:00089e70       ?release@?$__crt_unique_heap_ptr@GU__crt_internal_free_policy@@@@QAEXXZ 0048ae70 f i libucrtd:initctype.obj
 0001:00089ea0       ?release@?$__crt_unique_heap_ptr@JU__crt_internal_free_policy@@@@QAEXXZ 0048aea0 f i libucrtd:initctype.obj
 0001:00089ed0       ____lc_codepage_func       0048aed0 f   libucrtd:initctype.obj
 0001:00089f10       ____lc_collate_cp_func     0048af10 f   libucrtd:initctype.obj
 0001:00089f50       ____lc_locale_name_func    0048af50 f   libucrtd:initctype.obj
 0001:00089fa0       ____mb_cur_max_func        0048afa0 f   libucrtd:initctype.obj
 0001:00089fe0       ____mb_cur_max_l_func      0048afe0 f   libucrtd:initctype.obj
 0001:0008a020       ___acrt_locale_initialize_ctype 0048b020 f   libucrtd:initctype.obj
 0001:0008a980       ??$?RUlconv@@@__crt_internal_free_policy@@QBEXQBUlconv@@@Z 0048b980 f i libucrtd:initmon.obj
 0001:0008a9b0       ??0?$__crt_unique_heap_ptr@Ulconv@@U__crt_internal_free_policy@@@@QAE@QAUlconv@@@Z 0048b9b0 f i libucrtd:initmon.obj
 0001:0008a9d0       ??1?$__crt_unique_heap_ptr@Ulconv@@U__crt_internal_free_policy@@@@QAE@XZ 0048b9d0 f i libucrtd:initmon.obj
 0001:0008a9f0       ?detach@?$__crt_unique_heap_ptr@Ulconv@@U__crt_internal_free_policy@@@@QAEPAUlconv@@XZ 0048b9f0 f i libucrtd:initmon.obj
 0001:0008aa20       ?release@?$__crt_unique_heap_ptr@Ulconv@@U__crt_internal_free_policy@@@@QAEXXZ 0048ba20 f i libucrtd:initmon.obj
 0001:0008aa50       ___acrt_locale_free_monetary 0048ba50 f   libucrtd:initmon.obj
 0001:0008ac60       ___acrt_locale_initialize_monetary 0048bc60 f   libucrtd:initmon.obj
 0001:0008b4b0       ___acrt_locale_free_numeric 0048c4b0 f   libucrtd:initnum.obj
 0001:0008b590       ___acrt_locale_initialize_numeric 0048c590 f   libucrtd:initnum.obj
 0001:0008baf0       ??$?RU__crt_lc_time_data@@@__crt_internal_free_policy@@QBEXQBU__crt_lc_time_data@@@Z 0048caf0 f i libucrtd:inittime.obj
 0001:0008bbe0       ??0?$__crt_unique_heap_ptr@U__crt_lc_time_data@@U__crt_internal_free_policy@@@@QAE@QAU__crt_lc_time_data@@@Z 0048cbe0 f i libucrtd:inittime.obj
 0001:0008bc00       ??1?$__crt_unique_heap_ptr@U__crt_lc_time_data@@U__crt_internal_free_policy@@@@QAE@XZ 0048cc00 f i libucrtd:inittime.obj
 0001:0008bc20       ??B?$__crt_unique_heap_ptr@U__crt_lc_time_data@@U__crt_internal_free_policy@@@@QBE_NXZ 0048cc20 f i libucrtd:inittime.obj
 0001:0008bc40       ?detach@?$__crt_unique_heap_ptr@U__crt_lc_time_data@@U__crt_internal_free_policy@@@@QAEPAU__crt_lc_time_data@@XZ 0048cc40 f i libucrtd:inittime.obj
 0001:0008bcc0       ?get@?$__crt_unique_heap_ptr@U__crt_lc_time_data@@U__crt_internal_free_policy@@@@QBEPAU__crt_lc_time_data@@XZ 0048ccc0 f i libucrtd:inittime.obj
 0001:0008c2b0       ?is_valid@?$__crt_unique_heap_ptr@U__crt_lc_time_data@@U__crt_internal_free_policy@@@@QBE_NXZ 0048d2b0 f i libucrtd:inittime.obj
 0001:0008c2f0       ?release@?$__crt_unique_heap_ptr@U__crt_lc_time_data@@U__crt_internal_free_policy@@@@QAEXXZ 0048d2f0 f i libucrtd:inittime.obj
 0001:0008c320       ___acrt_locale_free_time   0048d320 f   libucrtd:inittime.obj
 0001:0008c4c0       ___acrt_locale_initialize_time 0048d4c0 f   libucrtd:inittime.obj
 0001:0008c550       ___pctype_func             0048d550 f   libucrtd:ctype.obj
 0001:0008c590       ___pwctype_func            0048d590 f   libucrtd:ctype.obj
 0001:0008c5a0       __chvalidator              0048d5a0 f   libucrtd:isctype.obj
 0001:0008c600       __chvalidator_l            0048d600 f   libucrtd:isctype.obj
 0001:0008c6a0       __isctype                  0048d6a0 f   libucrtd:isctype.obj
 0001:0008c6f0       __isctype_l                0048d6f0 f   libucrtd:isctype.obj
 0001:0008c8d0       __isleadbyte_fast_internal 0048d8d0 f i libucrtd:isctype.obj
 0001:0008cf00       _wcsncat_s                 0048df00 f   libucrtd:wcsncat_s.obj
 0001:0008cf30       _wcscmp                    0048df30 f   libucrtd:wcscmp.obj
 0001:0008cfd0       _wcscspn                   0048dfd0 f   libucrtd:wcscspn.obj
 0001:0008d060       _wcspbrk                   0048e060 f   libucrtd:wcspbrk.obj
 0001:0008d0e0       ??0?$__crt_scoped_stack_ptr@_W@@QAE@U?$__crt_scoped_stack_ptr_tag@_W@@@Z 0048e0e0 f i libucrtd:getstringtypea.obj
 0001:0008d100       ??0?$__crt_scoped_stack_ptr_tag@_W@@QAE@QA_W@Z 0048e100 f i libucrtd:getstringtypea.obj
 0001:0008d120       ??1?$__crt_scoped_stack_ptr@_W@@QAE@XZ 0048e120 f i libucrtd:getstringtypea.obj
 0001:0008d150       ?get@?$__crt_scoped_stack_ptr@_W@@QBEPA_WXZ 0048e150 f i libucrtd:getstringtypea.obj
 0001:0008d170       __MallocaComputeSize       0048e170 f i libucrtd:getstringtypea.obj
 0001:0008d1b0       __MarkAllocaS              0048e1b0 f i libucrtd:getstringtypea.obj
 0001:0008d1e0       ___acrt_GetStringTypeA     0048e1e0 f   libucrtd:getstringtypea.obj
 0001:0008d400       __freea_crt                0048e400 f i libucrtd:getstringtypea.obj
 0001:0008d490       ___acrt_add_locale_ref     0048e490 f   libucrtd:locale_refcounting.obj
 0001:0008d5e0       ___acrt_free_locale        0048e5e0 f   libucrtd:locale_refcounting.obj
 0001:0008d960       ___acrt_locale_add_lc_time_reference 0048e960 f   libucrtd:locale_refcounting.obj
 0001:0008d9a0       ___acrt_locale_free_lc_time_if_unreferenced 0048e9a0 f   libucrtd:locale_refcounting.obj
 0001:0008da00       ___acrt_locale_release_lc_time_reference 0048ea00 f   libucrtd:locale_refcounting.obj
 0001:0008da40       ___acrt_release_locale_ref 0048ea40 f   libucrtd:locale_refcounting.obj
 0001:0008db90       ___acrt_update_thread_locale_data 0048eb90 f   libucrtd:locale_refcounting.obj
 0001:0008dca0       __updatetlocinfoEx_nolock  0048eca0 f   libucrtd:locale_refcounting.obj
 0001:0008eb50       ___acrt_get_qualified_locale 0048fb50 f   libucrtd:get_qualified_locale.obj
 0001:0008ff60       ___acrt_get_qualified_locale_downlevel 00490f60 f   libucrtd:getqloc_downlevel.obj
 0001:000902b0       _localeconv                004912b0 f   libucrtd:localeconv.obj
 0001:00090310       __free_base                00491310 f   libucrtd:free_base.obj
 0001:00090370       __realloc_base             00491370 f   libucrtd:realloc_base.obj
 0001:000904a0       __expand                   004914a0 f   libucrtd:expand.obj
 0001:000904d0       __expand_base              004914d0 f   libucrtd:expand.obj
 0001:00090650       __CrtDefaultAllocHook      00491650 f   libucrtd:debug_heap_hook.obj
 0001:00090660       ___acrt_getheap            00491660 f   libucrtd:heap_handle.obj
 0001:000906b0       ___acrt_initialize_heap    004916b0 f   libucrtd:heap_handle.obj
 0001:000906e0       ___acrt_uninitialize_heap  004916e0 f   libucrtd:heap_handle.obj
 0001:00090700       __get_heap_handle          00491700 f   libucrtd:heap_handle.obj
 0001:00090750       ___acrt_execute_initializers 00491750 f   libucrtd:shared_initialization.obj
 0001:00090830       ___acrt_execute_uninitializers 00491830 f   libucrtd:shared_initialization.obj
 0001:00090b30       ___control87_2             00491b30 f   libucrtd:ieee87.obj
 0001:00090ca0       ___fpreset_sse2            00491ca0 f   libucrtd:ieee87.obj
 0001:000910f0       __clearfp                  004920f0 f   libucrtd:ieee87.obj
 0001:00091150       __control87                00492150 f   libucrtd:ieee87.obj
 0001:00091230       __controlfp                00492230 f   libucrtd:ieee87.obj
 0001:00091260       __fpreset                  00492260 f   libucrtd:ieee87.obj
 0001:00091490       __set_controlfp            00492490 f   libucrtd:ieee87.obj
 0001:00091540       __statusfp                 00492540 f   libucrtd:ieee87.obj
 0001:000915a0       __statusfp2                004925a0 f   libucrtd:ieee87.obj
 0001:000915e3       __mbsdec                   004925e3 f   libucrtd:mbsdec.obj
 0001:000915ff       __mbsdec_l                 004925ff f   libucrtd:mbsdec.obj
 0001:00091c20       _strncpy_s                 00492c20 f   libucrtd:strncpy_s.obj
 0001:00091c50       __iswctype_l               00492c50 f   libucrtd:iswctype.obj
 0001:00091c70       _iswctype                  00492c70 f   libucrtd:iswctype.obj
 0001:00091e30       ___acrt_DownlevelLCIDToLocaleName 00492e30 f   libucrtd:lcidtoname_downlevel.obj
 0001:00091f30       ___acrt_DownlevelLocaleNameToLCID 00492f30 f   libucrtd:lcidtoname_downlevel.obj
 0001:00092210       __commit                   00493210 f   libucrtd:commit.obj
 0001:00093e60       __write                    00494e60 f   libucrtd:write.obj
 0001:00094140       __write_nolock             00495140 f   libucrtd:write.obj
 0001:000946a0       ___ascii_wcsnicmp          004956a0 f   libucrtd:wcsnicmp.obj
 0001:00094750       __towlower_fast_internal   00495750 f i libucrtd:wcsnicmp.obj
 0001:000947a0       __towlower_internal        004957a0 f i libucrtd:wcsnicmp.obj
 0001:000947f0       __wcsnicmp                 004957f0 f   libucrtd:wcsnicmp.obj
 0001:00094980       __wcsnicmp_l               00495980 f   libucrtd:wcsnicmp.obj
 0001:00094c00       __strnicmp                 00495c00 f   libucrtd:strnicmp.obj
 0001:00094e30       __strnicmp_l               00495e30 f   libucrtd:strnicmp.obj
 0001:00095d10       ??$tsopen_nolock@PAHABQAHABQBDABHABHABHABH@?$__crt_char_traits@D@@SAH$$QAPAHABQAHABQBDABH333@Z 00496d10 f i libucrtd:open.obj
 0001:00095d60       ??$tsopen_nolock@PAHABQAHABQB_WABHABHABHABH@?$__crt_char_traits@_W@@SAH$$QAPAHABQAHABQB_WABH333@Z 00496d60 f i libucrtd:open.obj
 0001:00095db0       ??$tsopen_nolock@PAHPAHABQBDABHHABHH@?$__crt_char_traits@D@@SAH$$QAPAH0ABQBDABH$$QAH23@Z 00496db0 f i libucrtd:open.obj
 0001:00095e00       ??$tsopen_nolock@PAHPAHABQB_WABHHABHH@?$__crt_char_traits@_W@@SAH$$QAPAH0ABQB_WABH$$QAH23@Z 00496e00 f i libucrtd:open.obj
 0001:00096c80       __open                     00497c80 f   libucrtd:open.obj
 0001:00096cd0       __sopen                    00497cd0 f   libucrtd:open.obj
 0001:00096d60       __sopen_dispatch           00497d60 f   libucrtd:open.obj
 0001:00096d90       __sopen_nolock             00497d90 f   libucrtd:open.obj
 0001:00096e30       __sopen_s                  00497e30 f   libucrtd:open.obj
 0001:00096e60       __wopen                    00497e60 f   libucrtd:open.obj
 0001:00096eb0       __wsopen                   00497eb0 f   libucrtd:open.obj
 0001:00096f40       __wsopen_dispatch          00497f40 f   libucrtd:open.obj
 0001:00096f70       __wsopen_nolock            00497f70 f   libucrtd:open.obj
 0001:00097670       __wsopen_s                 00498670 f   libucrtd:open.obj
 0001:000976a0       __isatty                   004986a0 f   libucrtd:isatty.obj
 0001:000980e0       __lseek                    004990e0 f   libucrtd:lseek.obj
 0001:00098110       __lseek_nolock             00499110 f   libucrtd:lseek.obj
 0001:00098140       __lseeki64                 00499140 f   libucrtd:lseek.obj
 0001:00098170       __lseeki64_nolock          00499170 f   libucrtd:lseek.obj
 0001:000981a0       ___acrt_stdio_allocate_buffer_nolock 004991a0 f   libucrtd:_getbuf.obj
 0001:00098300       ___iswcsym                 00499300 f i libucrtd:_wctype.obj
 0001:00098350       ___iswcsymf                00499350 f i libucrtd:_wctype.obj
 0001:000983a0       __isleadbyte_l             004993a0 f i libucrtd:_wctype.obj
 0001:00098400       __iswalnum_l               00499400 f i libucrtd:_wctype.obj
 0001:00098420       __iswalpha_l               00499420 f i libucrtd:_wctype.obj
 0001:00098440       __iswblank_l               00499440 f i libucrtd:_wctype.obj
 0001:00098480       __iswcntrl_l               00499480 f i libucrtd:_wctype.obj
 0001:000984a0       __iswcsym_l                004994a0 f i libucrtd:_wctype.obj
 0001:000984f0       __iswcsymf_l               004994f0 f i libucrtd:_wctype.obj
 0001:00098540       __iswdigit_l               00499540 f i libucrtd:_wctype.obj
 0001:00098560       __iswgraph_l               00499560 f i libucrtd:_wctype.obj
 0001:00098580       __iswlower_l               00499580 f i libucrtd:_wctype.obj
 0001:000985a0       __iswprint_l               004995a0 f i libucrtd:_wctype.obj
 0001:000985c0       __iswpunct_l               004995c0 f i libucrtd:_wctype.obj
 0001:000985e0       __iswspace_l               004995e0 f i libucrtd:_wctype.obj
 0001:00098600       __iswupper_l               00499600 f i libucrtd:_wctype.obj
 0001:00098620       __iswxdigit_l              00499620 f i libucrtd:_wctype.obj
 0001:00098640       _isleadbyte                00499640 f i libucrtd:_wctype.obj
 0001:00098660       _iswalnum                  00499660 f i libucrtd:_wctype.obj
 0001:00098680       _iswalpha                  00499680 f i libucrtd:_wctype.obj
 0001:000986a0       _iswascii                  004996a0 f i libucrtd:_wctype.obj
 0001:000986e0       _iswblank                  004996e0 f i libucrtd:_wctype.obj
 0001:00098720       _iswcntrl                  00499720 f i libucrtd:_wctype.obj
 0001:00098740       _iswdigit                  00499740 f i libucrtd:_wctype.obj
 0001:00098760       _iswgraph                  00499760 f i libucrtd:_wctype.obj
 0001:00098780       _iswlower                  00499780 f i libucrtd:_wctype.obj
 0001:000987a0       _iswprint                  004997a0 f i libucrtd:_wctype.obj
 0001:000987c0       _iswpunct                  004997c0 f i libucrtd:_wctype.obj
 0001:000987e0       _iswspace                  004997e0 f i libucrtd:_wctype.obj
 0001:00098800       _iswupper                  00499800 f i libucrtd:_wctype.obj
 0001:00098820       _iswxdigit                 00499820 f i libucrtd:_wctype.obj
 0001:000988c0       ?__mbrtowc_utf8@__crt_mbstring@@YAIPA_WPBDIPAU_Mbstatet@@@Z 004998c0 f   libucrtd:mbrtowc.obj
 0001:00098930       ?__mbsrtowcs_utf8@__crt_mbstring@@YAIPA_WPAPBDIPAU_Mbstatet@@@Z 00499930 f   libucrtd:mbrtowc.obj
 0001:000993c0       _btowc                     0049a3c0 f   libucrtd:mbrtowc.obj
 0001:00099450       _mbrlen                    0049a450 f   libucrtd:mbrtowc.obj
 0001:000994b0       _mbrtowc                   0049a4b0 f   libucrtd:mbrtowc.obj
 0001:00099560       _mbsrtowcs                 0049a560 f   libucrtd:mbrtowc.obj
 0001:00099590       _mbsrtowcs_s               0049a590 f   libucrtd:mbrtowc.obj
 0001:000999b0       ?__c32rtomb_utf8@__crt_mbstring@@YAIPAD_UPAU_Mbstatet@@@Z 0049a9b0 f   libucrtd:c32rtomb.obj
 0001:00099c00       ?reset_and_return@__crt_mbstring@@YAIIPAU_Mbstatet@@@Z 0049ac00 f i libucrtd:c32rtomb.obj
 0001:00099c30       ?return_illegal_sequence@__crt_mbstring@@YAIPAU_Mbstatet@@@Z 0049ac30 f i libucrtd:c32rtomb.obj
 0001:00099c70       _c32rtomb                  0049ac70 f   libucrtd:c32rtomb.obj
 0001:00099e50       ___acrt_fp_strflt_to_string 0049ae50 f   libucrtd:_fptostr.obj
 0001:0009aa70       ??0big_integer@__crt_strtox@@QAE@ABU01@@Z 0049ba70 f i libucrtd:cfout.obj
 0001:0009aac0       ??0big_integer@__crt_strtox@@QAE@XZ 0049bac0 f i libucrtd:cfout.obj
 0001:0009ab90       ??4big_integer@__crt_strtox@@QAEAAU01@ABU01@@Z 0049bb90 f i libucrtd:cfout.obj
 0001:0009abe0       ??8__crt_strtox@@YA_NABUbig_integer@0@0@Z 0049bbe0 f i libucrtd:cfout.obj
 0001:0009ac50       ??9__crt_strtox@@YA_NABUbig_integer@0@0@Z 0049bc50 f i libucrtd:cfout.obj
 0001:0009aca0       ?add_carry@__crt_strtox@@YAIAAIII@Z 0049bca0 f i libucrtd:cfout.obj
 0001:0009acf0       ?add_multiply_carry@__crt_strtox@@YAIAAIIII@Z 0049bcf0 f i libucrtd:cfout.obj
 0001:0009ad40       ?bit_scan_reverse@__crt_strtox@@YAII@Z 0049bd40 f i libucrtd:cfout.obj
 0001:0009ad80       ?count_sequential_high_zeroes@__crt_strtox@@YAII@Z 0049bd80 f i libucrtd:cfout.obj
 0001:0009add0       ?divide@__crt_strtox@@YA_KAAUbig_integer@1@ABU21@@Z 0049bdd0 f i libucrtd:cfout.obj
 0001:0009baf0       ?is_zero@__crt_strtox@@YA_NABUbig_integer@1@@Z 0049caf0 f i libucrtd:cfout.obj
 0001:0009bb20       ?make_big_integer@__crt_strtox@@YA?AUbig_integer@1@_K@Z 0049cb20 f i libucrtd:cfout.obj
 0001:0009bbf0       ?make_big_integer_power_of_two@__crt_strtox@@YA?AUbig_integer@1@I@Z 0049cbf0 f i libucrtd:cfout.obj
 0001:0009bcd0       ?multiply@__crt_strtox@@YA_NAAUbig_integer@1@ABU21@@Z 0049ccd0 f i libucrtd:cfout.obj
 0001:0009c130       ?multiply@__crt_strtox@@YA_NAAUbig_integer@1@I@Z 0049d130 f i libucrtd:cfout.obj
 0001:0009c230       ?multiply_64_32@__crt_strtox@@YA_K_KI@Z 0049d230 f i libucrtd:cfout.obj
 0001:0009c250       ?multiply_by_power_of_ten@__crt_strtox@@YA_NAAUbig_integer@1@I@Z 0049d250 f i libucrtd:cfout.obj
 0001:0009c450       ?multiply_core@__crt_strtox@@YAIQAIII@Z 0049d450 f i libucrtd:cfout.obj
 0001:0009c4d0       ?shift_left@__crt_strtox@@YA_NAAUbig_integer@1@I@Z 0049d4d0 f i libucrtd:cfout.obj
 0001:0009c870       ___acrt_fltout             0049d870 f   libucrtd:cfout.obj
 0001:0009cd70       ___fpe_flt_rounds          0049dd70 f   libucrtd:fegetround.obj
 0001:0009cdf0       _fegetround                0049ddf0 f   libucrtd:fegetround.obj
 0001:0009d6a0       ?has_big_buffer@__crt_stdio_stream@@QBE_NXZ 0049e6a0 f i libucrtd:_flsbuf.obj
 0001:0009d7d0       ___acrt_stdio_flush_and_write_narrow_nolock 0049e7d0 f   libucrtd:_flsbuf.obj
 0001:0009d800       ___acrt_stdio_flush_and_write_wide_nolock 0049e800 f   libucrtd:_flsbuf.obj
 0001:0009d830       __trandisp1                0049e830 f   libucrtd:87disp.obj
 0001:0009d8a5       __trandisp2                0049e8a5 f   libucrtd:87disp.obj
 0001:0009d93f       __rttospopde               0049e93f     libucrtd:87disp.obj
 0001:0009d944       __rttospop                 0049e944     libucrtd:87disp.obj
 0001:0009d950       __rtnospop                 0049e950 f   libucrtd:87disp.obj
 0001:0009d960       __rttosnpop                0049e960 f   libucrtd:87disp.obj
 0001:0009d961       __rtnospopde               0049e961     libucrtd:87disp.obj
 0001:0009d968       __rtzeropop                0049e968     libucrtd:87disp.obj
 0001:0009d96a       __rtzeronpop               0049e96a     libucrtd:87disp.obj
 0001:0009d970       __rtzerospop               0049e970 f   libucrtd:87disp.obj
 0001:0009d97d       __rtonepop                 0049e97d     libucrtd:87disp.obj
 0001:0009d980       __rtonenpop                0049e980 f   libucrtd:87disp.obj
 0001:0009d990       __tosnan1                  0049e990 f   libucrtd:87disp.obj
 0001:0009d9c0       __nosnan2                  0049e9c0 f   libucrtd:87disp.obj
 0001:0009d9d0       __tosnan2                  0049e9d0 f   libucrtd:87disp.obj
 0001:0009da00       __nan2                     0049ea00 f   libucrtd:87disp.obj
 0001:0009da40       __rtindfpop                0049ea40 f   libucrtd:87disp.obj
 0001:0009da42       __rtindfnpop               0049ea42     libucrtd:87disp.obj
 0001:0009da53       __rttosnpopde              0049ea53     libucrtd:87disp.obj
 0001:0009da60       __rtatan2inf               0049ea60 f   libucrtd:87disp.obj
 0001:0009da7d       __rtchsifneg               0049ea7d     libucrtd:87disp.obj
 0001:0009db20       ___setfflag                0049eb20 f   libucrtd:fp_flags.obj
 0001:0009db50       __twoToTOS                 0049eb50 f   libucrtd:common.obj
 0001:0009db65       __load_CW                  0049eb65 f   libucrtd:common.obj
 0001:0009db7c       __convertTOStoQNaN         0049eb7c f   libucrtd:common.obj
 0001:0009db95       __fload_withFB             0049eb95 f   libucrtd:common.obj
 0001:0009dbd8       __checkTOS_withFB          0049ebd8 f   libucrtd:common.obj
 0001:0009dbee       __fast_exit                0049ebee f   libucrtd:common.obj
 0001:0009dbfb       __math_exit                0049ebfb f   libucrtd:common.obj
 0001:0009dc25       __check_overflow_exit      0049ec25 f   libucrtd:common.obj
 0001:0009dc39       __check_range_exit         0049ec39 f   libucrtd:common.obj
 0001:0009dd40       __startTwoArgErrorHandling 0049ed40 f   libucrtd:genexcep.obj
 0001:0009dd57       __startOneArgErrorHandling 0049ed57 f   libucrtd:genexcep.obj
 0001:0009ddd0       __fFEXP                    0049edd0 f   libucrtd:87tran.obj
 0001:0009de27       __rtinfpopse               0049ee27     libucrtd:87tran.obj
 0001:0009de29       __rtinfnpopse              0049ee29     libucrtd:87tran.obj
 0001:0009de39       __fFLN                     0049ee39     libucrtd:87tran.obj
 0001:0009deee       __rtinfpop                 0049eeee     libucrtd:87tran.obj
 0001:0009def0       __rtinfnpop                0049eef0     libucrtd:87tran.obj
 0001:0009df00       __rtforexpinf              0049ef00 f   libucrtd:87tran.obj
 0001:0009df0d       __ffexpm1                  0049ef0d     libucrtd:87tran.obj
 0001:0009e040       __d_inttype                0049f040 f   libucrtd:powhlp.obj
 0001:0009e0f0       __powhlp                   0049f0f0 f   libucrtd:powhlp.obj
 0001:0009e300       ___libm_error_support      0049f300 f   libucrtd:libm_error.obj
 0001:0009ea30       ___libm_setusermatherr     0049fa30 f   libucrtd:libm_error.obj
 0001:0009ffa0       __i64toa                   004a0fa0 f   libucrtd:xtoa.obj
 0001:000a0010       __i64toa_s                 004a1010 f   libucrtd:xtoa.obj
 0001:000a0080       __i64tow                   004a1080 f   libucrtd:xtoa.obj
 0001:000a00f0       __i64tow_s                 004a10f0 f   libucrtd:xtoa.obj
 0001:000a0160       __itoa                     004a1160 f   libucrtd:xtoa.obj
 0001:000a01c0       __itoa_s                   004a11c0 f   libucrtd:xtoa.obj
 0001:000a0220       __itow                     004a1220 f   libucrtd:xtoa.obj
 0001:000a0280       __itow_s                   004a1280 f   libucrtd:xtoa.obj
 0001:000a02e0       __ltoa                     004a12e0 f   libucrtd:xtoa.obj
 0001:000a0340       __ltoa_s                   004a1340 f   libucrtd:xtoa.obj
 0001:000a03a0       __ltow                     004a13a0 f   libucrtd:xtoa.obj
 0001:000a0400       __ltow_s                   004a1400 f   libucrtd:xtoa.obj
 0001:000a0460       __ui64toa                  004a1460 f   libucrtd:xtoa.obj
 0001:000a0490       __ui64toa_s                004a1490 f   libucrtd:xtoa.obj
 0001:000a04c0       __ui64tow                  004a14c0 f   libucrtd:xtoa.obj
 0001:000a04f0       __ui64tow_s                004a14f0 f   libucrtd:xtoa.obj
 0001:000a0520       __ultoa                    004a1520 f   libucrtd:xtoa.obj
 0001:000a0550       __ultoa_s                  004a1550 f   libucrtd:xtoa.obj
 0001:000a0580       __ultow                    004a1580 f   libucrtd:xtoa.obj
 0001:000a05b0       __ultow_s                  004a15b0 f   libucrtd:xtoa.obj
 0001:000a0ab0       __mbstowcs_l               004a1ab0 f   libucrtd:mbstowcs.obj
 0001:000a0ae0       __mbstowcs_s_l             004a1ae0 f   libucrtd:mbstowcs.obj
 0001:000a0f90       _mbstowcs                  004a1f90 f   libucrtd:mbstowcs.obj
 0001:000a0ff0       _mbstowcs_s                004a1ff0 f   libucrtd:mbstowcs.obj
 0001:000a1890       __wcstombs_l               004a2890 f   libucrtd:wcstombs.obj
 0001:000a18c0       __wcstombs_s_l             004a28c0 f   libucrtd:wcstombs.obj
 0001:000a1d00       _wcstombs                  004a2d00 f   libucrtd:wcstombs.obj
 0001:000a1d30       _wcstombs_s                004a2d30 f   libucrtd:wcstombs.obj
 0001:000a1d60       ___acrt_OutputDebugStringA@4 004a2d60 f   libucrtd:outputdebugstringa.obj
 0001:000a1f70       _qsort                     004a2f70 f   libucrtd:qsort.obj
 0001:000a27a0       _strpbrk                   004a37a0 f   libucrtd:strpbrk.obj
 0001:000a27f0       ??B?$__crt_scoped_stack_ptr@_W@@QBE_NXZ 004a37f0 f i libucrtd:lcmapstringa.obj
 0001:000a2ce0       ___acrt_LCMapStringA       004a3ce0 f   libucrtd:lcmapstringa.obj
 0001:000a2d90       __wcsnicoll                004a3d90 f   libucrtd:wcsnicol.obj
 0001:000a2fc0       __wcsnicoll_l              004a3fc0 f   libucrtd:wcsnicol.obj
 0001:000a32a0       __strnicoll                004a42a0 f   libucrtd:strnicol.obj
 0001:000a3300       __strnicoll_l              004a4300 f   libucrtd:strnicol.obj
 0001:000a3810       ___acrt_SetEnvironmentVariableA 004a4810 f   libucrtd:setenvironmentvariablea.obj
 0001:000a3ad0       ___acrt_GetLocaleInfoA     004a4ad0 f   libucrtd:getlocaleinfoa.obj
 0001:000a3f70       ___ascii_wcsicmp           004a4f70 f   libucrtd:wcsicmp.obj
 0001:000a4000       __wcsicmp                  004a5000 f   libucrtd:wcsicmp.obj
 0001:000a4180       __wcsicmp_l                004a5180 f   libucrtd:wcsicmp.obj
 0001:000a43d0       __malloc_base              004a53d0 f   libucrtd:malloc_base.obj
 0001:000a4480       ___clrfp_sse2              004a5480 f   libucrtd:fpctrl.obj
 0001:000a44d0       ___ctrlfp_sse2             004a54d0 f   libucrtd:fpctrl.obj
 0001:000a4540       ___fclrf_sse2              004a5540 f   libucrtd:fpctrl.obj
 0001:000a4570       ___get_fpsr_sse2           004a5570 f   libucrtd:fpctrl.obj
 0001:000a45a0       ___set_fpsr_sse2           004a55a0 f   libucrtd:fpctrl.obj
 0001:000a46b0       ___set_statfp_sse2         004a56b0 f   libucrtd:fpctrl.obj
 0001:000a46f0       ___statfp_sse2             004a56f0 f   libucrtd:fpctrl.obj
 0001:000a4730       __clrfp                    004a5730 f   libucrtd:fpctrl.obj
 0001:000a4750       __ctrlfp                   004a5750 f   libucrtd:fpctrl.obj
 0001:000a4790       __set_statfp               004a5790 f   libucrtd:fpctrl.obj
 0001:000a4810       __statfp                   004a5810 f   libucrtd:fpctrl.obj
 0001:000a4830       ___acrt_GetStringTypeW     004a5830 f   libucrtd:getstringtypew.obj
 0001:000a496b       __putwch                   004a596b f   libucrtd:putwch.obj
 0001:000a49a3       __putwch_nolock            004a59a3 f   libucrtd:putwch.obj
 0001:000a49f0       __towlower_l               004a59f0 f   libucrtd:towlower.obj
 0001:000a4b30       _towlower                  004a5b30 f   libucrtd:towlower.obj
 0001:000a4b50       ___ascii_strnicmp          004a5b50 f   libucrtd:_strnicm.obj
 0001:000a4d50       ??0__crt_seek_guard@@QAE@H_J@Z 004a5d50 f i libucrtd:chsize.obj
 0001:000a4de0       ??1__crt_seek_guard@@QAE@XZ 004a5de0 f i libucrtd:chsize.obj
 0001:000a4f30       __chsize                   004a5f30 f   libucrtd:chsize.obj
 0001:000a4f70       __chsize_nolock            004a5f70 f   libucrtd:chsize.obj
 0001:000a5250       __chsize_s                 004a6250 f   libucrtd:chsize.obj
 0001:000a54d0       __umask                    004a64d0 f   libucrtd:umask.obj
 0001:000a5510       __umask_s                  004a6510 f   libucrtd:umask.obj
 0001:000a5670       ?__mbrtoc32_utf8@__crt_mbstring@@YAIPA_UPBDIPAU_Mbstatet@@@Z 004a6670 f   libucrtd:mbrtoc32.obj
 0001:000a59f0       _mbrtoc32                  004a69f0 f   libucrtd:mbrtoc32.obj
 0001:000a5a20       _log10                     004a6a20 f   libucrtd:log10.obj
 0001:000a5a80       _ceil                      004a6a80 f   libucrtd:ceil_pentium4.obj
 0001:000a5ac0       __ceil_pentium4            004a6ac0 f   libucrtd:ceil_pentium4.obj
 0001:000a5bf0       _fegetenv                  004a6bf0 f   libucrtd:fegetenv.obj
 0001:000a5c20       _fesetenv                  004a6c20 f   libucrtd:fesetenv.obj
 0001:000a5ca0       _feholdexcept              004a6ca0 f   libucrtd:feholdexcept.obj
 0001:000a5d20       ??$__acrt_fenv_shift_bits@W4__acrt_fenv_abstract_control@@@@YA?AW4__acrt_fenv_abstract_control@@W40@0I@Z 004a6d20 f i libucrtd:_fenvutils.obj
 0001:000a5d50       ??$__acrt_fenv_shift_bits@W4__acrt_fenv_abstract_status@@@@YA?AW4__acrt_fenv_abstract_status@@W40@0I@Z 004a6d50 f i libucrtd:_fenvutils.obj
 0001:000a5d80       ??$__acrt_fenv_translate_bit@W4__acrt_fenv_abstract_control@@W4__acrt_fenv_machine_sse_control@@@@YA?AW4__acrt_fenv_abstract_control@@W4__acrt_fenv_machine_sse_control@@0W40@1@Z 004a6d80 f i libucrtd:_fenvutils.obj
 0001:000a5dd0       ??$__acrt_fenv_translate_bit@W4__acrt_fenv_abstract_control@@W4__acrt_fenv_machine_x87_control@@@@YA?AW4__acrt_fenv_abstract_control@@W4__acrt_fenv_machine_x87_control@@0W40@1@Z 004a6dd0 f i libucrtd:_fenvutils.obj
 0001:000a5e20       ??$__acrt_fenv_translate_bit@W4__acrt_fenv_abstract_status@@W4__acrt_fenv_machine_sse_status@@@@YA?AW4__acrt_fenv_abstract_status@@W4__acrt_fenv_machine_sse_status@@0W40@1@Z 004a6e20 f i libucrtd:_fenvutils.obj
 0001:000a5e70       ??$__acrt_fenv_translate_bit@W4__acrt_fenv_abstract_status@@W4__acrt_fenv_machine_x87_status@@@@YA?AW4__acrt_fenv_abstract_status@@W4__acrt_fenv_machine_x87_status@@0W40@1@Z 004a6e70 f i libucrtd:_fenvutils.obj
 0001:000a5ec0       ??$__acrt_fenv_translate_bit@W4__acrt_fenv_machine_sse_control@@W4__acrt_fenv_abstract_control@@@@YA?AW4__acrt_fenv_machine_sse_control@@W4__acrt_fenv_abstract_control@@0W40@1@Z 004a6ec0 f i libucrtd:_fenvutils.obj
 0001:000a5f10       ??$__acrt_fenv_translate_bit@W4__acrt_fenv_machine_sse_status@@W4__acrt_fenv_abstract_status@@@@YA?AW4__acrt_fenv_machine_sse_status@@W4__acrt_fenv_abstract_status@@0W40@1@Z 004a6f10 f i libucrtd:_fenvutils.obj
 0001:000a5f60       ??$__acrt_fenv_translate_bit@W4__acrt_fenv_machine_x87_control@@W4__acrt_fenv_abstract_control@@@@YA?AW4__acrt_fenv_machine_x87_control@@W4__acrt_fenv_abstract_control@@0W40@1@Z 004a6f60 f i libucrtd:_fenvutils.obj
 0001:000a5fb0       ??$__acrt_fenv_translate_bit@W4__acrt_fenv_machine_x87_status@@W4__acrt_fenv_abstract_status@@@@YA?AW4__acrt_fenv_machine_x87_status@@W4__acrt_fenv_abstract_status@@0W40@1@Z 004a6fb0 f i libucrtd:_fenvutils.obj
 0001:000a6000       ??$__acrt_fenv_unshift_bits@W4__acrt_fenv_abstract_control@@@@YA?AW4__acrt_fenv_abstract_control@@W40@0I@Z 004a7000 f i libucrtd:_fenvutils.obj
 0001:000a6030       ??$__acrt_fenv_unshift_bits@W4__acrt_fenv_abstract_status@@@@YA?AW4__acrt_fenv_abstract_status@@W40@0I@Z 004a7030 f i libucrtd:_fenvutils.obj
 0001:000a6cf0       ??I@YA?AW4__acrt_fenv_abstract_control@@W40@0@Z 004a7cf0 f i libucrtd:_fenvutils.obj
 0001:000a6d00       ??I@YA?AW4__acrt_fenv_abstract_status@@W40@0@Z 004a7d00 f i libucrtd:_fenvutils.obj
 0001:000a6d10       ??I@YA?AW4__acrt_fenv_machine_sse_control@@W40@0@Z 004a7d10 f i libucrtd:_fenvutils.obj
 0001:000a6d30       ??I@YA?AW4__acrt_fenv_machine_sse_status@@W40@0@Z 004a7d30 f i libucrtd:_fenvutils.obj
 0001:000a6d40       ??I@YA?AW4__acrt_fenv_machine_x87_control@@W40@0@Z 004a7d40 f i libucrtd:_fenvutils.obj
 0001:000a6d60       ??I@YA?AW4__acrt_fenv_machine_x87_status@@W40@0@Z 004a7d60 f i libucrtd:_fenvutils.obj
 0001:000a6d70       ??U@YA?AW4__acrt_fenv_abstract_control@@W40@0@Z 004a7d70 f i libucrtd:_fenvutils.obj
 0001:000a6d80       ??U@YA?AW4__acrt_fenv_abstract_status@@W40@0@Z 004a7d80 f i libucrtd:_fenvutils.obj
 0001:000a6d90       ??U@YA?AW4__acrt_fenv_machine_sse_control@@W40@0@Z 004a7d90 f i libucrtd:_fenvutils.obj
 0001:000a6db0       ??U@YA?AW4__acrt_fenv_machine_x87_control@@W40@0@Z 004a7db0 f i libucrtd:_fenvutils.obj
 0001:000a6dd0       ??_5@YAAAW4__acrt_fenv_abstract_control@@AAW40@W40@@Z 004a7dd0 f i libucrtd:_fenvutils.obj
 0001:000a6df0       ??_5@YAAAW4__acrt_fenv_abstract_status@@AAW40@W40@@Z 004a7df0 f i libucrtd:_fenvutils.obj
 0001:000a6e10       ??_5@YAAAW4__acrt_fenv_machine_sse_control@@AAW40@W40@@Z 004a7e10 f i libucrtd:_fenvutils.obj
 0001:000a6e40       ??_5@YAAAW4__acrt_fenv_machine_sse_status@@AAW40@W40@@Z 004a7e40 f i libucrtd:_fenvutils.obj
 0001:000a6e60       ??_5@YAAAW4__acrt_fenv_machine_x87_control@@AAW40@W40@@Z 004a7e60 f i libucrtd:_fenvutils.obj
 0001:000a6e90       ??_5@YAAAW4__acrt_fenv_machine_x87_status@@AAW40@W40@@Z 004a7e90 f i libucrtd:_fenvutils.obj
 0001:000a6eb0       ?__acrt_fenv_shift_abstract_sse_control@@YA?AW4__acrt_fenv_abstract_control@@W41@@Z 004a7eb0 f i libucrtd:_fenvutils.obj
 0001:000a6f00       ?__acrt_fenv_shift_abstract_sse_status@@YA?AW4__acrt_fenv_abstract_status@@W41@@Z 004a7f00 f i libucrtd:_fenvutils.obj
 0001:000a6f20       ?__acrt_fenv_shift_abstract_x87_control@@YA?AW4__acrt_fenv_abstract_control@@W41@@Z 004a7f20 f i libucrtd:_fenvutils.obj
 0001:000a6f70       ?__acrt_fenv_shift_abstract_x87_status@@YA?AW4__acrt_fenv_abstract_status@@W41@@Z 004a7f70 f i libucrtd:_fenvutils.obj
 0001:000a6f90       ?__acrt_fenv_unshift_abstract_sse_control@@YA?AW4__acrt_fenv_abstract_control@@W41@@Z 004a7f90 f i libucrtd:_fenvutils.obj
 0001:000a6fe0       ?__acrt_fenv_unshift_abstract_sse_status@@YA?AW4__acrt_fenv_abstract_status@@W41@@Z 004a7fe0 f i libucrtd:_fenvutils.obj
 0001:000a7000       ?__acrt_fenv_unshift_abstract_x87_control@@YA?AW4__acrt_fenv_abstract_control@@W41@@Z 004a8000 f i libucrtd:_fenvutils.obj
 0001:000a7050       ?__acrt_fenv_unshift_abstract_x87_status@@YA?AW4__acrt_fenv_abstract_status@@W41@@Z 004a8050 f i libucrtd:_fenvutils.obj
 0001:000a76b0       ___acrt_fenv_expand_round_control 004a86b0 f   libucrtd:_fenvutils.obj
 0001:000a7700       ___acrt_fenv_get_common_round_control 004a8700 f   libucrtd:_fenvutils.obj
 0001:000a7770       ___acrt_fenv_get_control   004a8770 f   libucrtd:_fenvutils.obj
 0001:000a7810       ___acrt_fenv_get_fp_status_word_from_exception_mask 004a8810 f   libucrtd:_fenvutils.obj
 0001:000a7860       ___acrt_fenv_get_status    004a8860 f   libucrtd:_fenvutils.obj
 0001:000a78f0       ___acrt_fenv_set_control   004a88f0 f   libucrtd:_fenvutils.obj
 0001:000a7940       ___acrt_fenv_set_status    004a8940 f   libucrtd:_fenvutils.obj
 0001:000a7980       __87except                 004a8980 f   libucrtd:87except.obj
 0001:000a7bf0       __frnd                     004a8bf0 f   libucrtd:frnd.obj
 0001:000a7c10       __chgsign                  004a8c10 f   libucrtd:ieeemisc.obj
 0001:000a7c50       __chgsignf                 004a8c50 f   libucrtd:ieeemisc.obj
 0001:000a7ca0       __copysign                 004a8ca0 f   libucrtd:ieeemisc.obj
 0001:000a7ce0       __copysignf                004a8ce0 f   libucrtd:ieeemisc.obj
 0001:000a7d40       __finite                   004a8d40 f   libucrtd:ieeemisc.obj
 0001:000a7d70       __fpclass                  004a8d70 f   libucrtd:ieeemisc.obj
 0001:000a7ea0       __isnan                    004a8ea0 f   libucrtd:ieeemisc.obj
 0001:000a7f00       __logb                     004a8f00 f   libucrtd:ieeemisc.obj
 0001:000a8060       __nextafter                004a9060 f   libucrtd:ieeemisc.obj
 0001:000a8090       __scalb                    004a9090 f   libucrtd:ieeemisc.obj
 0001:000a80c0       __add_exp                  004a90c0 f   libucrtd:util.obj
 0001:000a8100       __decomp                   004a9100 f   libucrtd:util.obj
 0001:000a8270       __get_exp                  004a9270 f   libucrtd:util.obj
 0001:000a82b0       __set_bexp                 004a92b0 f   libucrtd:util.obj
 0001:000a82f0       __set_exp                  004a92f0 f   libucrtd:util.obj
 0001:000a8340       __sptype                   004a9340 f   libucrtd:util.obj
 0001:000a83e0       ?__wcsrtombs_utf8@__crt_mbstring@@YAIPADPAPB_WIPAU_Mbstatet@@@Z 004a93e0 f   libucrtd:wcrtomb.obj
 0001:000a8db0       _wcrtomb                   004a9db0 f   libucrtd:wcrtomb.obj
 0001:000a8e10       _wcrtomb_s                 004a9e10 f   libucrtd:wcrtomb.obj
 0001:000a8f70       _wcsrtombs                 004a9f70 f   libucrtd:wcrtomb.obj
 0001:000a8fa0       _wcsrtombs_s               004a9fa0 f   libucrtd:wcrtomb.obj
 0001:000a93c0       _wctob                     004aa3c0 f   libucrtd:wcrtomb.obj
 0001:000a9460       ___strncnt                 004aa460 f   libucrtd:strncnt.obj
 0001:000a94c0       ___acrt_CompareStringW     004aa4c0 f   libucrtd:comparestringw.obj
 0001:000a9b50       ___acrt_CompareStringA     004aab50 f   libucrtd:comparestringa.obj
 0001:000a9c91       ___dcrt_lowio_ensure_console_output_initialized 004aac91 f   libucrtd:initcon.obj
 0001:000a9cb7       ___dcrt_terminate_console_output 004aacb7 f   libucrtd:initcon.obj
 0001:000a9cd3       ___dcrt_write_console      004aacd3 f   libucrtd:initcon.obj
 0001:000a9d40       ___acrt_LCMapStringW       004aad40 f   libucrtd:lcmapstringw.obj
 0001:000a9dc0       __CIlog10                  004aadc0 f   libucrtd:log10_impl.obj
 0001:000a9dfb       __CIlog10_default          004aadfb f   libucrtd:log10_impl.obj
 0001:000a9e0f       __log10_default            004aae0f     libucrtd:log10_impl.obj
 0001:000a9f20       __CIlog10_pentium4         004aaf20 f   libucrtd:log10_pentium4.obj
 0001:000a9f38       __log10_pentium4           004aaf38     libucrtd:log10_pentium4.obj
 0001:000aa260       __ceil_default             004ab260 f   libucrtd:ceil.obj
 0001:000aa3c0       __errcode                  004ab3c0 f   libucrtd:fpexcept.obj
 0001:000aa450       __except1                  004ab450 f   libucrtd:fpexcept.obj
 0001:000aa590       __except2                  004ab590 f   libucrtd:fpexcept.obj
 0001:000aa740       __handle_exc               004ab740 f   libucrtd:fpexcept.obj
 0001:000aab20       __handle_qnan2             004abb20 f   libucrtd:fpexcept.obj
 0001:000aab40       __raise_exc                004abb40 f   libucrtd:fpexcept.obj
 0001:000aab80       __raise_exc_ex             004abb80 f   libucrtd:fpexcept.obj
 0001:000ab260       __raise_excf               004ac260 f   libucrtd:fpexcept.obj
 0001:000ab2a0       __set_errno_from_matherr   004ac2a0 f   libucrtd:fpexcept.obj
 0001:000ab2f0       __umatherr                 004ac2f0 f   libucrtd:fpexcept.obj
 0001:000ab3c0       _ldexp                     004ac3c0 f   libucrtd:ldexp.obj
 0001:000ab770       _nextafter                 004ac770 f   libucrtd:nextafter.obj
 0001:000ab7a0       ?__c16rtomb_utf8@__crt_mbstring@@YAIPAD_SPAU_Mbstatet@@@Z 004ac7a0 f   libucrtd:c16rtomb.obj
 0001:000aba00       _c16rtomb                  004aca00 f   libucrtd:c16rtomb.obj
 0001:000aba30       _nexttoward                004aca30 f   libucrtd:nexttoward.obj
 0001:000abf70       __d_int                    004acf70 f   libucrtd:_test.obj
 0001:000ac2c0       __dtest                    004ad2c0 f   libucrtd:_test.obj
 0001:000ac420       __fd_int                   004ad420 f   libucrtd:_test.obj
 0001:000ac670       __fdtest                   004ad670 f   libucrtd:_test.obj
 0001:000ac770       __fperrraise               004ad770 f   libucrtd:_test.obj
 0001:000ac7b0       __ld_int                   004ad7b0 f   libucrtd:_test.obj
 0001:000ac7d0       __ldtest                   004ad7d0 f   libucrtd:_test.obj
 0001:000ac7f0       ??_4@YAAAW4__acrt_fenv_abstract_status@@AAW40@W40@@Z 004ad7f0 f i libucrtd:fegetexceptflag.obj
 0001:000ac810       _fegetexceptflag           004ad810 f   libucrtd:fegetexceptflag.obj
 0001:000ac870       ??S@YA?AW4__acrt_fenv_abstract_status@@W40@@Z 004ad870 f i libucrtd:fesetexceptflag.obj
 0001:000ac880       _fesetexceptflag           004ad880 f   libucrtd:fesetexceptflag.obj
 0001:000ac970       _fetestexcept              004ad970 f   libucrtd:fetestexcept.obj
 0001:000ac9a0       _IsDebuggerPresent@0       004ad9a0 f   kernel32:KERNEL32.dll
 0001:000ac9a6       _RaiseException@16         004ad9a6 f   kernel32:KERNEL32.dll
 0001:000ac9ac       _MultiByteToWideChar@24    004ad9ac f   kernel32:KERNEL32.dll
 0001:000ac9b2       _WideCharToMultiByte@32    004ad9b2 f   kernel32:KERNEL32.dll
 0001:000ac9b8       _UnhandledExceptionFilter@4 004ad9b8 f   kernel32:KERNEL32.dll
 0001:000ac9be       _SetUnhandledExceptionFilter@4 004ad9be f   kernel32:KERNEL32.dll
 0001:000ac9c4       _GetCurrentProcess@0       004ad9c4 f   kernel32:KERNEL32.dll
 0001:000ac9ca       _TerminateProcess@8        004ad9ca f   kernel32:KERNEL32.dll
 0001:000ac9d0       _IsProcessorFeaturePresent@4 004ad9d0 f   kernel32:KERNEL32.dll
 0001:000ac9d6       _QueryPerformanceCounter@4 004ad9d6 f   kernel32:KERNEL32.dll
 0001:000ac9dc       _GetCurrentProcessId@0     004ad9dc f   kernel32:KERNEL32.dll
 0001:000ac9e2       _GetCurrentThreadId@0      004ad9e2 f   kernel32:KERNEL32.dll
 0001:000ac9e8       _GetSystemTimeAsFileTime@4 004ad9e8 f   kernel32:KERNEL32.dll
 0001:000ac9ee       _InitializeSListHead@4     004ad9ee f   kernel32:KERNEL32.dll
 0001:000ac9f4       _GetStartupInfoW@4         004ad9f4 f   kernel32:KERNEL32.dll
 0001:000ac9fa       _GetModuleHandleW@4        004ad9fa f   kernel32:KERNEL32.dll
 0001:000aca00       _GetLastError@0            004ada00 f   kernel32:KERNEL32.dll
 0001:000aca06       _HeapAlloc@12              004ada06 f   kernel32:KERNEL32.dll
 0001:000aca0c       _HeapFree@12               004ada0c f   kernel32:KERNEL32.dll
 0001:000aca12       _GetProcessHeap@0          004ada12 f   kernel32:KERNEL32.dll
 0001:000aca18       _VirtualQuery@12           004ada18 f   kernel32:KERNEL32.dll
 0001:000aca1e       _FreeLibrary@4             004ada1e f   kernel32:KERNEL32.dll
 0001:000aca24       _GetProcAddress@8          004ada24 f   kernel32:KERNEL32.dll
 0001:000aca2a       _InterlockedPushEntrySList@8 004ada2a f   kernel32:KERNEL32.dll
 0001:000aca30       _InterlockedFlushSList@4   004ada30 f   kernel32:KERNEL32.dll
 0001:000aca36       _GetModuleFileNameW@12     004ada36 f   kernel32:KERNEL32.dll
 0001:000aca3c       _LoadLibraryExW@12         004ada3c f   kernel32:KERNEL32.dll
 0001:000aca42       _RtlUnwind@16              004ada42 f   kernel32:KERNEL32.dll
 0001:000aca48       _SetLastError@4            004ada48 f   kernel32:KERNEL32.dll
 0001:000aca4e       _EnterCriticalSection@4    004ada4e f   kernel32:KERNEL32.dll
 0001:000aca54       _LeaveCriticalSection@4    004ada54 f   kernel32:KERNEL32.dll
 0001:000aca5a       _DeleteCriticalSection@4   004ada5a f   kernel32:KERNEL32.dll
 0001:000aca60       _InitializeCriticalSectionAndSpinCount@8 004ada60 f   kernel32:KERNEL32.dll
 0001:000aca66       _TlsAlloc@0                004ada66 f   kernel32:KERNEL32.dll
 0001:000aca6c       _TlsGetValue@4             004ada6c f   kernel32:KERNEL32.dll
 0001:000aca72       _TlsSetValue@8             004ada72 f   kernel32:KERNEL32.dll
 0001:000aca78       _TlsFree@4                 004ada78 f   kernel32:KERNEL32.dll
 0001:000aca7e       _EncodePointer@4           004ada7e f   kernel32:KERNEL32.dll
 0001:000aca84       _ExitProcess@4             004ada84 f   kernel32:KERNEL32.dll
 0001:000aca8a       _GetModuleHandleExW@12     004ada8a f   kernel32:KERNEL32.dll
 0001:000aca90       _GetStdHandle@4            004ada90 f   kernel32:KERNEL32.dll
 0001:000aca96       _WriteFile@20              004ada96 f   kernel32:KERNEL32.dll
 0001:000aca9c       _GetCommandLineA@0         004ada9c f   kernel32:KERNEL32.dll
 0001:000acaa2       _GetCommandLineW@0         004adaa2 f   kernel32:KERNEL32.dll
 0001:000acaa8       _HeapValidate@12           004adaa8 f   kernel32:KERNEL32.dll
 0001:000acaae       _GetSystemInfo@4           004adaae f   kernel32:KERNEL32.dll
 0001:000acab4       _GetDateFormatW@24         004adab4 f   kernel32:KERNEL32.dll
 0001:000acaba       _GetTimeFormatW@24         004adaba f   kernel32:KERNEL32.dll
 0001:000acac0       _CompareStringW@24         004adac0 f   kernel32:KERNEL32.dll
 0001:000acac6       _LCMapStringW@24           004adac6 f   kernel32:KERNEL32.dll
 0001:000acacc       _GetLocaleInfoW@16         004adacc f   kernel32:KERNEL32.dll
 0001:000acad2       _IsValidLocale@8           004adad2 f   kernel32:KERNEL32.dll
 0001:000acad8       _GetUserDefaultLCID@0      004adad8 f   kernel32:KERNEL32.dll
 0001:000acade       _EnumSystemLocalesW@8      004adade f   kernel32:KERNEL32.dll
 0001:000acae4       _GetFileType@4             004adae4 f   kernel32:KERNEL32.dll
 0001:000acaea       _CloseHandle@4             004adaea f   kernel32:KERNEL32.dll
 0001:000acaf0       _ReadFile@20               004adaf0 f   kernel32:KERNEL32.dll
 0001:000acaf6       _GetConsoleMode@8          004adaf6 f   kernel32:KERNEL32.dll
 0001:000acafc       _ReadConsoleW@20           004adafc f   kernel32:KERNEL32.dll
 0001:000acb02       _GetCurrentThread@0        004adb02 f   kernel32:KERNEL32.dll
 0001:000acb08       _OutputDebugStringW@4      004adb08 f   kernel32:KERNEL32.dll
 0001:000acb0e       _WriteConsoleW@20          004adb0e f   kernel32:KERNEL32.dll
 0001:000acb14       _SetConsoleCtrlHandler@8   004adb14 f   kernel32:KERNEL32.dll
 0001:000acb1a       _FindClose@4               004adb1a f   kernel32:KERNEL32.dll
 0001:000acb20       _FindFirstFileExW@24       004adb20 f   kernel32:KERNEL32.dll
 0001:000acb26       _FindNextFileW@8           004adb26 f   kernel32:KERNEL32.dll
 0001:000acb2c       _IsValidCodePage@4         004adb2c f   kernel32:KERNEL32.dll
 0001:000acb32       _GetACP@0                  004adb32 f   kernel32:KERNEL32.dll
 0001:000acb38       _GetOEMCP@0                004adb38 f   kernel32:KERNEL32.dll
 0001:000acb3e       _GetCPInfo@8               004adb3e f   kernel32:KERNEL32.dll
 0001:000acb44       _GetEnvironmentStringsW@0  004adb44 f   kernel32:KERNEL32.dll
 0001:000acb4a       _FreeEnvironmentStringsW@4 004adb4a f   kernel32:KERNEL32.dll
 0001:000acb50       _SetEnvironmentVariableW@8 004adb50 f   kernel32:KERNEL32.dll
 0001:000acb56       _SetStdHandle@8            004adb56 f   kernel32:KERNEL32.dll
 0001:000acb5c       _GetStringTypeW@16         004adb5c f   kernel32:KERNEL32.dll
 0001:000acb62       _HeapReAlloc@16            004adb62 f   kernel32:KERNEL32.dll
 0001:000acb68       _HeapSize@12               004adb68 f   kernel32:KERNEL32.dll
 0001:000acb6e       _HeapQueryInformation@20   004adb6e f   kernel32:KERNEL32.dll
 0001:000acb74       _FlushFileBuffers@4        004adb74 f   kernel32:KERNEL32.dll
 0001:000acb7a       _GetConsoleOutputCP@0      004adb7a f   kernel32:KERNEL32.dll
 0001:000acb80       _CreateFileW@28            004adb80 f   kernel32:KERNEL32.dll
 0001:000acb86       _SetFilePointerEx@20       004adb86 f   kernel32:KERNEL32.dll
 0001:000acb8c       _GetFileSizeEx@8           004adb8c f   kernel32:KERNEL32.dll
 0001:000acb92       _DecodePointer@4           004adb92 f   kernel32:KERNEL32.dll
 0001:000acb98       _SetEndOfFile@4            004adb98 f   kernel32:KERNEL32.dll
 0001:000acba0       __FindPESection            004adba0 f   LIBCMTD:pesect.obj
 0001:000acc30       __IsNonwritableInCurrentImage 004adc30 f   LIBCMTD:pesect.obj
 0001:000acdb0       __ValidateImageBase        004addb0 f   LIBCMTD:pesect.obj
 0001:000ace30       __allshl                   004ade30 f   LIBCMTD:llshl.obj
 0001:000ace60       __aulldiv                  004ade60 f   LIBCMTD:ulldiv.obj
 0001:000acef0       __aullrem                  004adef0 f   LIBCMTD:ullrem.obj
 0001:000acf90       __alloca_probe             004adf90 f   LIBCMTD:chkstk.obj
 0001:000acf90       __chkstk                   004adf90 f   LIBCMTD:chkstk.obj
 0001:000acfd0       __allmul                   004adfd0 f   LIBCMTD:llmul.obj
 0001:000ad020       __alldiv                   004ae020 f   LIBCMTD:lldiv.obj
 0001:000ad100       __allrem                   004ae100 f   LIBCMTD:llrem.obj
 0001:000ad1e0       __aullshr                  004ae1e0 f   LIBCMTD:ullshr.obj
 0001:000ad210       __ftol2_sse_excpt          004ae210 f   LIBCMTD:ftol2.obj
 0001:000ad220       __ftol2_sse                004ae220 f   LIBCMTD:ftol2.obj
 0001:000ad230       __ftoi2                    004ae230 f   LIBCMTD:ftol2.obj
 0001:000ad2d0       __ftoui2                   004ae2d0 f   LIBCMTD:ftol2.obj
 0001:000ad3a0       __ftol2                    004ae3a0 f   LIBCMTD:ftol2.obj
 0001:000ad480       __ftoul2                   004ae480 f   LIBCMTD:ftol2.obj
 0001:000ad570       __alloca_probe_16          004ae570 f   LIBCMTD:alloca16.obj
 0001:000ad586       __alloca_probe_8           004ae586     LIBCMTD:alloca16.obj
 0001:000ad5b0       __SEH_prolog4              004ae5b0 f   LIBCMTD:sehprolg4.obj
 0001:000ad610       __SEH_epilog4              004ae610 f   LIBCMTD:sehprolg4.obj
 0001:000ad840       _memcmp                    004ae840 f   libvcruntimed:memcmp.obj
 0001:000ae340       _strrchr                   004af340 f   libvcruntimed:strrchr.obj
 0001:000ae4d0       _strchr                    004af4d0 f   libvcruntimed:strchr.obj
 0001:000ae53e       ___from_strstr_to_strchr   004af53e     libvcruntimed:strchr.obj
 0001:000ae650       _wcschr                    004af650 f   libvcruntimed:wcschr.obj
 0001:000ae810       __filter_x86_sse2_floating_point_exception 004af810 f   LIBCMTD:x86_exception_filter.obj
 0001:000ae810       __filter_x86_sse2_floating_point_exception_default 004af810 f   LIBCMTD:x86_exception_filter.obj
 0002:00000000       ___xc_a                    004b4000     LIBCMTD:initializers.obj
 0002:0000030c       ___xc_z                    004b430c     LIBCMTD:initializers.obj
 0002:00000410       ___xi_a                    004b4410     LIBCMTD:initializers.obj
 0002:0000071c       ___acrt_stdio_initializer  004b471c     libucrtd:stdio_initializer.obj
 0002:00000720       ___acrt_tran_sse2_initializer 004b4720     libucrtd:sse2_initializer.obj
 0002:00000724       ___acrt_multibyte_initializer 004b4724     libucrtd:multibyte_initializer.obj
 0002:00000728       ___acrt_fmode_initializer  004b4728     libucrtd:fmode_initializer.obj
 0002:00000830       ___xi_z                    004b4830     LIBCMTD:initializers.obj
 0002:00000934       ___xp_a                    004b4934     LIBCMTD:initializers.obj
 0002:00000a38       ___acrt_locale_terminator  004b4a38     libucrtd:locale_initializer.obj
 0002:00000a3c       ___dcrt_console_output_terminator 004b4a3c     libucrtd:console_output_initializer.obj
 0002:00000b44       ___acrt_stdio_terminator   004b4b44     libucrtd:stdio_initializer.obj
 0002:00000c48       ___xp_z                    004b4c48     LIBCMTD:initializers.obj
 0002:00000d4c       ___xt_a                    004b4d4c     LIBCMTD:initializers.obj
 0002:00000e50       ___xt_z                    004b4e50     LIBCMTD:initializers.obj
 0002:00000f60       ??_C@_02JDPG@rb@           004b4f60     CRenderer.obj
 0002:00000f64       ??_C@_04BCBLCKIP@posx@     004b4f64     CRenderer.obj
 0002:00000f6c       ??_C@_04LJFJOIKE@negx@     004b4f6c     CRenderer.obj
 0002:00000f74       ??_C@_04KAECNJOF@negy@     004b4f74     CRenderer.obj
 0002:00000f7c       ??_C@_04LAABLMO@posy@      004b4f7c     CRenderer.obj
 0002:00000f84       ??_C@_04CACNEIAN@posz@     004b4f84     CRenderer.obj
 0002:00000f8c       ??_C@_04ILGPIKCG@negz@     004b4f8c     CRenderer.obj
 0002:00000f94       ??_C@_0P@FELKHIIJ@CG?5error?3?5?$CFs?5?6@ 004b4f94     CRenderer.obj
 0002:00000fa8       ??_C@_04ILNEAJIO@?$CFs?5?6@ 004b4fa8     CRenderer.obj
 0002:00000fb0       ??_C@_0N@EPKOODHB@fpWaterDM?4cg@ 004b4fb0     CRenderer.obj
 0002:00000fc0       ??_C@_03HNJBCMOL@c?$CFi@   004b4fc0     CRenderer.obj
 0002:00000fc4       ??_C@_06MHOADHFG@dXYMap@   004b4fc4     CRenderer.obj
 0002:00000fcc       ??_C@_07EEJCBDEE@dXYMap1@  004b4fcc     CRenderer.obj
 0002:00000fd8       ??_C@_07ONFFEPOD@EnvCMap@  004b4fd8     CRenderer.obj
 0002:00000fe4       ??_C@_07KFIPOAPC@FoamMap@  004b4fe4     CRenderer.obj
 0002:00000ff0       ??_C@_0BA@FDIFNALK@glBindBufferARB@ 004b4ff0     CRenderer.obj
 0002:00001004       ??_C@_0BD@FPFIIGCI@glDeleteBuffersARB@ 004b5004     CRenderer.obj
 0002:0000101c       ??_C@_0BA@COIMKEED@glGenBuffersARB@ 004b501c     CRenderer.obj
 0002:00001030       ??_C@_0O@BCHKDNEE@glIsBufferARB@ 004b5030     CRenderer.obj
 0002:00001040       ??_C@_0BA@HLIGBCAN@glBufferDataARB@ 004b5040     CRenderer.obj
 0002:00001054       ??_C@_0BD@KFMFAAJP@glBufferSubDataARB@ 004b5054     CRenderer.obj
 0002:0000106c       ??_C@_0BG@DNDEGANA@glGetBufferSubDataARB@ 004b506c     CRenderer.obj
 0002:00001088       ??_C@_0P@GLCCGPAH@glMapBufferARB@ 004b5088     CRenderer.obj
 0002:0000109c       ??_C@_0BB@IODLHHEP@glUnmapBufferARB@ 004b509c     CRenderer.obj
 0002:000010b0       ??_C@_0BK@NELBDMOH@glGetBufferParameterivARB@ 004b50b0     CRenderer.obj
 0002:000010d0       ??_C@_0BH@KNGCJBNB@glGetBufferPointervARB@ 004b50d0     CRenderer.obj
 0002:000010ec       ??_C@_0N@PLKJEFKL@vpWaterDM?4cg@ 004b50ec     CRenderer.obj
 0002:000010fc       ??_C@_04FLBOHEF@VOfs@      004b50fc     CRenderer.obj
 0002:00001104       ??_C@_04KKBKIDPB@CPos@     004b5104     CRenderer.obj
 0002:0000110c       ??_C@_09OIJPFDOD@Gabarites@ 004b510c     CRenderer.obj
 0002:00001118       ??_C@_05FHIIEGA@HMap0@     004b5118     CRenderer.obj
 0002:00001120       ??_C@_05BMGDLFCB@HMap1@    004b5120     CRenderer.obj
 0002:00001128       ??_C@_0BE@KENFEDLC@Data?1Terrain_?$CFs?4raw@ 004b5128     CRenderer.obj
 0002:00001140       ??_C@_0P@HKLPOAMA@Data?1Noise?4raw@ 004b5140     CRenderer.obj
 0002:00001154       ??_C@_0BA@NKIAFNMK@Data?1Land_H?4raw@ 004b5154     CRenderer.obj
 0002:00001168       ??_C@_0BA@LAEHKNAJ@Data?1Land_C?4raw@ 004b5168     CRenderer.obj
 0002:0000117c       ??_C@_0BD@IKCKKKNH@glActiveTextureARB@ 004b517c     CRenderer.obj
 0002:00001194       ??_C@_0CB@LAFFPLGB@VS3?40?3?5Vertex?5texture?5units?3?5?$CFd@ 004b5194     CRenderer.obj
 0002:000011bc       ??_C@_0BC@POOMOHJ@Data?1FoamNV40?4raw@ 004b51bc     CRenderer.obj
 0002:000011d4       ??_C@_0BK@LBHJGNNO@Data?1HMaps?1WaterH?$CF02i?4raw@ 004b51d4     CRenderer.obj
 0002:000011f4       __real@00000000            004b51f4     CRenderer.obj
 0002:000011f8       __real@3a83126f            004b51f8     CRenderer.obj
 0002:000011fc       __real@3b000000            004b51fc     CRenderer.obj
 0002:00001200       __real@3cb00000            004b5200     CRenderer.obj
 0002:00001204       __real@3cf5c28f            004b5204     CRenderer.obj
 0002:00001208       __real@3d4ccccd            004b5208     CRenderer.obj
 0002:0000120c       __real@3dcccccd            004b520c     CRenderer.obj
 0002:00001210       __real@3e028f5c            004b5210     CRenderer.obj
 0002:00001214       __real@3e19999a            004b5214     CRenderer.obj
 0002:00001218       __real@3f000000            004b5218     CRenderer.obj
 0002:0000121c       __real@3f4ccccd            004b521c     CRenderer.obj
 0002:00001220       __real@3f647ae147ae147b    004b5220     CRenderer.obj
 0002:0000122c       __real@3f666666            004b522c     CRenderer.obj
 0002:00001230       __real@3f800000            004b5230     CRenderer.obj
 0002:00001234       __real@3faaaaaa            004b5234     CRenderer.obj
 0002:00001238       __real@3fc0a3d70a3d70a4    004b5238     CRenderer.obj
 0002:00001248       __real@3fc851eb851eb852    004b5248     CRenderer.obj
 0002:00001258       __real@3fd0000000000000    004b5258     CRenderer.obj
 0002:00001268       __real@3fe0000000000000    004b5268     CRenderer.obj
 0002:00001278       __real@3fe999999999999a    004b5278     CRenderer.obj
 0002:00001288       __real@3ff0000000000000    004b5288     CRenderer.obj
 0002:00001298       __real@3ff8000000000000    004b5298     CRenderer.obj
 0002:000012a8       __real@3ffb333340000000    004b52a8     CRenderer.obj
 0002:000012b4       __real@40000000            004b52b4     CRenderer.obj
 0002:000012b8       __real@4000000000000000    004b52b8     CRenderer.obj
 0002:000012c8       __real@4004000000000000    004b52c8     CRenderer.obj
 0002:000012d4       __real@40080000            004b52d4     CRenderer.obj
 0002:000012d8       __real@400921fb54442d18    004b52d8     CRenderer.obj
 0002:000012e8       __real@4010000000000000    004b52e8     CRenderer.obj
 0002:000012f8       __real@4014000000000000    004b52f8     CRenderer.obj
 0002:00001308       __real@405fc00000000000    004b5308     CRenderer.obj
 0002:00001318       __real@4060000000000000    004b5318     CRenderer.obj
 0002:00001328       __real@4078000000000000    004b5328     CRenderer.obj
 0002:00001334       __real@40800000            004b5334     CRenderer.obj
 0002:00001338       __real@40c00000            004b5338     CRenderer.obj
 0002:00001340       __real@40cf400000000000    004b5340     CRenderer.obj
 0002:0000134c       __real@41000000            004b534c     CRenderer.obj
 0002:00001350       __real@41d0000000000000    004b5350     CRenderer.obj
 0002:0000135c       __real@43000000            004b535c     CRenderer.obj
 0002:00001360       __real@43340000            004b5360     CRenderer.obj
 0002:00001364       __real@437f0000            004b5364     CRenderer.obj
 0002:00001368       __real@458ca000            004b5368     CRenderer.obj
 0002:0000136c       __real@bdcccccd            004b536c     CRenderer.obj
 0002:00001370       __real@be4ccccd            004b5370     CRenderer.obj
 0002:00001380       __xmm@80000000800000008000000080000000 004b5380     CRenderer.obj
 0002:00001394       ??_C@_06CCPNJKOL@Keys?3?6@ 004b5394     main.obj
 0002:0000139c       ??_C@_0N@OPKPACJA@?8Esc?8?3?5Quit?6@ 004b539c     main.obj
 0002:000013ac       ??_C@_08JMPAMMEI@A?5Shader@ 004b53ac     main.obj
 0002:000013b8       __real@4024000000000000    004b53b8     main.obj
 0002:000013c8       __real@404e000000000000    004b53c8     main.obj
 0002:000013d8       __real@40d3880000000000    004b53d8     main.obj
 0002:000013e4       __real@42b40000            004b53e4     main.obj
 0002:000013e8       __real@bf800000            004b53e8     main.obj
 0002:000014a8       ??_C@_0NN@JMPELKLB@The?5value?5of?5ESP?5was?5not?5proper@ 004b54a8     LIBCMTD:error.obj
 0002:000015b8       ??_C@_0BBN@ELNNILBE@A?5cast?5to?5a?5smaller?5data?5type?5h@ 004b55b8     LIBCMTD:error.obj
 0002:00001710       ??_C@_0BN@BPOGFMJL@Stack?5memory?5was?5corrupted?$AN?6@ 004b5710     LIBCMTD:error.obj
 0002:00001734       ??_C@_0DG@DAJCDLPN@A?5local?5variable?5was?5used?5befor@ 004b5734     LIBCMTD:error.obj
 0002:00001774       ??_C@_0CM@JMIDGKLA@Stack?5memory?5around?5_alloca?5was@ 004b5774     LIBCMTD:error.obj
 0002:000017a8       ??_C@_0BO@CHIONIOI@Unknown?5Runtime?5Check?5Error?$AN?6@ 004b57a8     LIBCMTD:error.obj
 0002:000017d0       ??_C@_1GM@CNOOJIHC@?$AAR?$AAu?$AAn?$AAt?$AAi?$AAm?$AAe?$AA?5?$AAC?$AAh?$AAe?$AAc?$AAk?$AA?5?$AAE@ 004b57d0     LIBCMTD:error.obj
 0002:00001858       ??_C@_1EA@NFKNIFJP@?$AAR?$AAu?$AAn?$AA?9?$AAT?$AAi?$AAm?$AAe?$AA?5?$AAC?$AAh?$AAe?$AAc?$AAk?$AA?5@ 004b5858     LIBCMTD:error.obj
 0002:000018a4       ??_C@_0BB@PFFGGCJP@Unknown?5Filename@ 004b58a4     LIBCMTD:error.obj
 0002:000018b8       ??_C@_0BE@GNBOBNCK@Unknown?5Module?5Name@ 004b58b8     LIBCMTD:error.obj
 0002:000018d0       ??_C@_0CA@IODNCDPG@Run?9Time?5Check?5Failure?5?$CD?$CFd?5?9?5?$CFs@ 004b58d0     LIBCMTD:error.obj
 0002:000018f8       ??_C@_0CG@IAFNJNEE@Stack?5corrupted?5near?5unknown?5va@ 004b58f8     LIBCMTD:error.obj
 0002:00001928       ??_C@_05MKKEDADM@?$CF?42X?5@ 004b5928     LIBCMTD:error.obj
 0002:00001930       ??_C@_0EJ@LJKNEOLN@Stack?5area?5around?5_alloca?5memor@ 004b5930     LIBCMTD:error.obj
 0002:00001988       ??_C@_01EEMJAFIK@?6@       004b5988     LIBCMTD:error.obj
 0002:0000198c       ??_C@_02LLMPMKNF@?$DO?5@   004b598c     LIBCMTD:error.obj
 0002:00001990       ??_C@_08OMAHNMHJ@?6Data?3?5?$DM@ 004b5990     LIBCMTD:error.obj
 0002:0000199c       ??_C@_0CK@DKGBICFE@?6Allocation?5number?5within?5this?5@ 004b599c     LIBCMTD:error.obj
 0002:000019d0       ??_C@_07DFDJCKFN@?6Size?3?5@ 004b59d0     LIBCMTD:error.obj
 0002:000019dc       ??_C@_0N@MHFFIMFG@?6Address?3?50x@ 004b59dc     LIBCMTD:error.obj
 0002:000019f0       ??_C@_0EI@CLEPFNGI@Stack?5area?5around?5_alloca?5memor@ 004b59f0     LIBCMTD:error.obj
 0002:00001a48       ??_C@_0BK@ODNDAGKB@?$CFs?$CFs?$CFp?$CFs?$CFzd?$CFs?$CFd?$CFs?$CFs?$CFs?$CFs?$CFs@ 004b5a48     LIBCMTD:error.obj
 0002:00001a68       ??_C@_0DE@OHJBPMBP@A?5variable?5is?5being?5used?5withou@ 004b5a68     LIBCMTD:error.obj
 0002:00001acc       ??_C@_0BJ@HEGAHDFO@Stack?5pointer?5corruption@ 004b5acc     LIBCMTD:userapi.obj
 0002:00001aec       ??_C@_0CK@FEGOIOPB@Cast?5to?5smaller?5type?5causing?5lo@ 004b5aec     LIBCMTD:userapi.obj
 0002:00001b20       ??_C@_0BI@CIGMDCBH@Stack?5memory?5corruption@ 004b5b20     LIBCMTD:userapi.obj
 0002:00001b3c       ??_C@_0CK@CNLNOEPB@Local?5variable?5used?5before?5init@ 004b5b3c     LIBCMTD:userapi.obj
 0002:00001b70       ??_C@_0BP@OGBCLIBO@Stack?5around?5_alloca?5corrupted@ 004b5b70     LIBCMTD:userapi.obj
 0002:00001b9c       ??_7exception@std@@6B@     004b5b9c     LIBCMTD:throw_bad_alloc.obj
 0002:00001ba8       ??_C@_0BC@EOODALEL@Unknown?5exception@ 004b5ba8     LIBCMTD:throw_bad_alloc.obj
 0002:00001bc4       ??_7bad_alloc@std@@6B@     004b5bc4     LIBCMTD:throw_bad_alloc.obj
 0002:00001bd0       ??_C@_0P@GHFPNOJB@bad?5allocation@ 004b5bd0     LIBCMTD:throw_bad_alloc.obj
 0002:00001be8       ??_7bad_array_new_length@std@@6B@ 004b5be8     LIBCMTD:throw_bad_alloc.obj
 0002:00001bf4       ??_C@_0BF@KINCDENJ@bad?5array?5new?5length@ 004b5bf4     LIBCMTD:throw_bad_alloc.obj
 0002:00001c68       ??_C@_1EI@MLPKHBGE@?$AAa?$AAp?$AAi?$AA?9?$AAm?$AAs?$AA?9?$AAw?$AAi?$AAn?$AA?9?$AAc?$AAo?$AAr?$AAe@ 004b5c68     LIBCMTD:pdblkup.obj
 0002:00001cc0       ??_C@_1BK@JHLNAEJL@?$AAa?$AAd?$AAv?$AAa?$AAp?$AAi?$AA3?$AA2?$AA?4?$AAd?$AAl?$AAl@ 004b5cc0     LIBCMTD:pdblkup.obj
 0002:00001ce0       ??_C@_0O@COHOBMLB@RegOpenKeyExW@ 004b5ce0     LIBCMTD:pdblkup.obj
 0002:00001cf0       ??_C@_0BB@GLNAEDBD@RegQueryValueExW@ 004b5cf0     LIBCMTD:pdblkup.obj
 0002:00001d04       ??_C@_0M@HLOHPNFA@RegCloseKey@ 004b5d04     LIBCMTD:pdblkup.obj
 0002:00001d18       ??_C@_1HE@EBEAGLFB@?$AAS?$AAO?$AAF?$AAT?$AAW?$AAA?$AAR?$AAE?$AA?2?$AAW?$AAo?$AAw?$AA6?$AA4?$AA3@ 004b5d18     LIBCMTD:pdblkup.obj
 0002:00001da4       ??_C@_1BG@EABPBLLF@?$AAP?$AAr?$AAo?$AAd?$AAu?$AAc?$AAt?$AAD?$AAi?$AAr@ 004b5da4     LIBCMTD:pdblkup.obj
 0002:00001de4       ??_C@_1BC@JINFINNJ@?$AAM?$AAS?$AAP?$AAD?$AAB?$AA1?$AA4?$AA0@ 004b5de4     LIBCMTD:pdblkup.obj
 0002:00001dfc       ??_C@_0BB@KCIACLNC@PDBOpenValidate5@ 004b5dfc     LIBCMTD:pdblkup.obj
 0002:00001e10       ??_C@_01KDCPPGHE@r@        004b5e10     LIBCMTD:pdblkup.obj
 0002:00001e18       ??_7type_info@@6B@         004b5e18     LIBCMTD:std_type_info_static.obj
 0002:00001e20       ??_C@_0EG@HLCHIJEL@d?3?2agent?2_work?24?2s?2src?2vctools?2@ 004b5e20     libvcruntimed:std_type_info.obj
 0002:00001e74       __pDestructExceptionObject 004b5e74     libvcruntimed:ehhelpers.obj
 0002:00001e78       ??_C@_17CNPHIMPH@?$AA?$CF?$AAl?$AAs@ 004b5e78     libvcruntimed:std_exception.obj
 0002:00001e88       ??_C@_1FK@OACNEHHA@?$AAt?$AAo?$AA?9?$AA?$DO?$AA_?$AAW?$AAh?$AAa?$AAt?$AA?5?$AA?$DN?$AA?$DN?$AA?5?$AAn?$AAu@ 004b5e88     libvcruntimed:std_exception.obj
 0002:00001ef8       ??_C@_1IM@CBBCJHKN@?$AAd?$AA?3?$AA?2?$AAa?$AAg?$AAe?$AAn?$AAt?$AA?2?$AA_?$AAw?$AAo?$AAr?$AAk?$AA?2@ 004b5ef8     libvcruntimed:std_exception.obj
 0002:00001fa0       ??_C@_0EO@IMACLHHO@d?3?2agent?2_work?24?2s?2src?2vctools?2@ 004b5fa0     libvcruntimed:per_thread_data.obj
 0002:00002434       ??_C@_08EHJDFFNH@__based?$CI@ 004b6434     libvcruntimed:undname.obj
 0002:00002440       ??_C@_07KOLFKCDI@__cdecl@  004b6440     libvcruntimed:undname.obj
 0002:0000244c       ??_C@_08GHMPAG@__pascal@   004b644c     libvcruntimed:undname.obj
 0002:00002458       ??_C@_09IFJBGAPI@__stdcall@ 004b6458     libvcruntimed:undname.obj
 0002:00002464       ??_C@_0L@NPHFGOKO@__thiscall@ 004b6464     libvcruntimed:undname.obj
 0002:00002474       ??_C@_0L@JMKHOMEK@__fastcall@ 004b6474     libvcruntimed:undname.obj
 0002:00002484       ??_C@_0N@BCKKPABJ@__vectorcall@ 004b6484     libvcruntimed:undname.obj
 0002:00002494       ??_C@_09HIJEGCPM@__clrcall@ 004b6494     libvcruntimed:undname.obj
 0002:000024a0       ??_C@_06GHPCKEAG@__eabi@   004b64a0     libvcruntimed:undname.obj
 0002:000024a8       ??_C@_09IOPIDJLG@__swift_1@ 004b64a8     libvcruntimed:undname.obj
 0002:000024b4       ??_C@_09KFNFGKHF@__swift_2@ 004b64b4     libvcruntimed:undname.obj
 0002:000024c0       ??_C@_07JOMMBBKO@__ptr64@  004b64c0     libvcruntimed:undname.obj
 0002:000024cc       ??_C@_0L@PILCLIHE@__restrict@ 004b64cc     libvcruntimed:undname.obj
 0002:000024dc       ??_C@_0M@GFIIJFMG@__unaligned@ 004b64dc     libvcruntimed:undname.obj
 0002:000024ec       ??_C@_09DHDLOLLB@restrict?$CI@ 004b64ec     libvcruntimed:undname.obj
 0002:000024f8       ??_C@_00CNPNBAHC@@         004b64f8     libvcruntimed:undname.obj
 0002:000024fc       ??_C@_04NIHEBCM@?5new@     004b64fc     libvcruntimed:undname.obj
 0002:00002504       ??_C@_07FPCDHGMM@?5delete@ 004b6504     libvcruntimed:undname.obj
 0002:00002510       ??_C@_01NEMOKFLO@?$DN@     004b6510     libvcruntimed:undname.obj
 0002:00002514       ??_C@_02GPIOPFAK@?$DO?$DO@ 004b6514     libvcruntimed:undname.obj
 0002:00002518       ??_C@_02FODMEDOG@?$DM?$DM@ 004b6518     libvcruntimed:undname.obj
 0002:0000251c       ??_C@_01DCLJPIOD@?$CB@     004b651c     libvcruntimed:undname.obj
 0002:00002520       ??_C@_02EGOFBIJA@?$DN?$DN@ 004b6520     libvcruntimed:undname.obj
 0002:00002524       ??_C@_02FDNJECIE@?$CB?$DN@ 004b6524     libvcruntimed:undname.obj
 0002:00002528       ??_C@_02GPECMEKF@?$FL?$FN@ 004b6528     libvcruntimed:undname.obj
 0002:0000252c       ??_C@_08LHJFAFGD@operator@ 004b652c     libvcruntimed:undname.obj
 0002:00002538       ??_C@_02HBOOOICD@?9?$DO@   004b6538     libvcruntimed:undname.obj
 0002:0000253c       ??_C@_01NBENCBCI@?$CK@     004b653c     libvcruntimed:undname.obj
 0002:00002540       ??_C@_02ECNGHCIF@?$CL?$CL@ 004b6540     libvcruntimed:undname.obj
 0002:00002544       ??_C@_02BAABKJLB@?9?9@     004b6544     libvcruntimed:undname.obj
 0002:00002548       ??_C@_01JOAMLHOP@?9@       004b6548     libvcruntimed:undname.obj
 0002:0000254c       ??_C@_01MIFGBAGJ@?$CL@     004b654c     libvcruntimed:undname.obj
 0002:00002550       ??_C@_01HNPIGOCE@?$CG@     004b6550     libvcruntimed:undname.obj
 0002:00002554       ??_C@_03MNHNFDLC@?9?$DO?$CK@ 004b6554     libvcruntimed:undname.obj
 0002:00002558       ??_C@_01KMDKNFGN@?1@       004b6558     libvcruntimed:undname.obj
 0002:0000255c       ??_C@_01FGNFDNOH@?$CF@     004b655c     libvcruntimed:undname.obj
 0002:00002560       ??_C@_01MNNFJEPP@?$DM@     004b6560     libvcruntimed:undname.obj
 0002:00002564       ??_C@_02EHCHHCKH@?$DM?$DN@ 004b6564     libvcruntimed:undname.obj
 0002:00002568       ??_C@_01PPODPGHN@?$DO@     004b6568     libvcruntimed:undname.obj
 0002:0000256c       ??_C@_02EEKDKGMJ@?$DO?$DN@ 004b656c     libvcruntimed:undname.obj
 0002:00002570       ??_C@_01IHBHIGKO@?0@       004b6570     libvcruntimed:undname.obj
 0002:00002574       ??_C@_02HCKGKOFO@?$CI?$CJ@ 004b6574     libvcruntimed:undname.obj
 0002:00002578       ??_C@_01PJKLJHI@?$HO@      004b6578     libvcruntimed:undname.obj
 0002:0000257c       ??_C@_01JKBOJNNK@?$FO@     004b657c     libvcruntimed:undname.obj
 0002:00002580       ??_C@_01DNKMNLPK@?$HM@     004b6580     libvcruntimed:undname.obj
 0002:00002584       ??_C@_02PPKAJPJL@?$CG?$CG@ 004b6584     libvcruntimed:undname.obj
 0002:00002588       ??_C@_02NONPIBCD@?$HM?$HM@ 004b6588     libvcruntimed:undname.obj
 0002:0000258c       ??_C@_02FPIMKNGF@?$CK?$DN@ 004b658c     libvcruntimed:undname.obj
 0002:00002590       ??_C@_02FOEOMHFC@?$CL?$DN@ 004b6590     libvcruntimed:undname.obj
 0002:00002594       ??_C@_02FKMDLLOA@?9?$DN@   004b6594     libvcruntimed:undname.obj
 0002:00002598       ??_C@_02FJEHGPIO@?1?$DN@   004b6598     libvcruntimed:undname.obj
 0002:0000259c       ??_C@_02FENAOKFI@?$CF?$DN@ 004b659c     libvcruntimed:undname.obj
 0002:000025a0       ??_C@_03IKFCCPFF@?$DO?$DO?$DN@ 004b65a0     libvcruntimed:undname.obj
 0002:000025a4       ??_C@_03CDNPDDLA@?$DM?$DM?$DN@ 004b65a4     libvcruntimed:undname.obj
 0002:000025a8       ??_C@_02FGJGFEAB@?$CG?$DN@ 004b65a8     libvcruntimed:undname.obj
 0002:000025ac       ??_C@_02DHLNPPGH@?$HM?$DN@ 004b65ac     libvcruntimed:undname.obj
 0002:000025b0       ??_C@_02MHEGNOJ@?$FO?$DN@  004b65b0     libvcruntimed:undname.obj
 0002:000025b4       ??_C@_09IFPLHPGF@?$GAvftable?8@ 004b65b4     libvcruntimed:undname.obj
 0002:000025c0       ??_C@_09BLBHBJP@?$GAvbtable?8@ 004b65c0     libvcruntimed:undname.obj
 0002:000025cc       ??_C@_07FEEIOKP@?$GAvcall?8@ 004b65cc     libvcruntimed:undname.obj
 0002:000025d8       ??_C@_08LLFFHHDJ@?$GAtypeof?8@ 004b65d8     libvcruntimed:undname.obj
 0002:000025e4       ??_C@_0BF@KDPPACIK@?$GAlocal?5static?5guard?8@ 004b65e4     libvcruntimed:undname.obj
 0002:00002600       ??_C@_08OBABFOLI@?$GAstring?8@ 004b6600     libvcruntimed:undname.obj
 0002:0000260c       ??_C@_0BD@JDLKDPAB@?$GAvbase?5destructor?8@ 004b660c     libvcruntimed:undname.obj
 0002:00002624       ??_C@_0BN@DEGPLNFK@?$GAvector?5deleting?5destructor?8@ 004b6624     libvcruntimed:undname.obj
 0002:00002648       ??_C@_0BO@OBMKPJIG@?$GAdefault?5constructor?5closure?8@ 004b6648     libvcruntimed:undname.obj
 0002:0000266c       ??_C@_0BN@IMDCHIKM@?$GAscalar?5deleting?5destructor?8@ 004b666c     libvcruntimed:undname.obj
 0002:00002690       ??_C@_0BO@PFGOCPJJ@?$GAvector?5constructor?5iterator?8@ 004b6690     libvcruntimed:undname.obj
 0002:000026b4       ??_C@_0BN@LFPFMEDL@?$GAvector?5destructor?5iterator?8@ 004b66b4     libvcruntimed:undname.obj
 0002:000026d8       ??_C@_0CE@IKBNEHA@?$GAvector?5vbase?5constructor?5itera@ 004b66d8     libvcruntimed:undname.obj
 0002:00002704       ??_C@_0BL@NILFHHPC@?$GAvirtual?5displacement?5map?8@ 004b6704     libvcruntimed:undname.obj
 0002:00002724       ??_C@_0CB@JONCMFFK@?$GAeh?5vector?5constructor?5iterator@ 004b6724     libvcruntimed:undname.obj
 0002:0000274c       ??_C@_0CA@GCEOPDGL@?$GAeh?5vector?5destructor?5iterator?8@ 004b674c     libvcruntimed:undname.obj
 0002:00002774       ??_C@_0CH@OOJPLCPH@?$GAeh?5vector?5vbase?5constructor?5it@ 004b6774     libvcruntimed:undname.obj
 0002:000027a4       ??_C@_0BL@LLKPOHJI@?$GAcopy?5constructor?5closure?8@ 004b67a4     libvcruntimed:undname.obj
 0002:000027c4       ??_C@_0BA@KBCDOMBN@?$GAudt?5returning?8@ 004b67c4     libvcruntimed:undname.obj
 0002:000027d8       ??_C@_03KLGMFNMG@?$GAEH@   004b67d8     libvcruntimed:undname.obj
 0002:000027dc       ??_C@_05KHLCHHI@?$GARTTI@  004b67dc     libvcruntimed:undname.obj
 0002:000027e4       ??_C@_0BA@KKLDJDLB@?$GAlocal?5vftable?8@ 004b67e4     libvcruntimed:undname.obj
 0002:000027f8       ??_C@_0CE@IIHCMGGL@?$GAlocal?5vftable?5constructor?5clos@ 004b67f8     libvcruntimed:undname.obj
 0002:00002824       ??_C@_06FHBGPFGH@?5new?$FL?$FN@ 004b6824     libvcruntimed:undname.obj
 0002:0000282c       ??_C@_09LBNFPBCA@?5delete?$FL?$FN@ 004b682c     libvcruntimed:undname.obj
 0002:00002838       ??_C@_0P@HJKNJFNN@?$GAomni?5callsig?8@ 004b6838     libvcruntimed:undname.obj
 0002:0000284c       ??_C@_0BL@CNOONJFP@?$GAplacement?5delete?5closure?8@ 004b684c     libvcruntimed:undname.obj
 0002:0000286c       ??_C@_0BN@CKNJLHMB@?$GAplacement?5delete?$FL?$FN?5closure?8@ 004b686c     libvcruntimed:undname.obj
 0002:00002890       ??_C@_0CG@CFDHKGGD@?$GAmanaged?5vector?5constructor?5ite@ 004b6890     libvcruntimed:undname.obj
 0002:000028c0       ??_C@_0CF@IMGKMJNO@?$GAmanaged?5vector?5destructor?5iter@ 004b68c0     libvcruntimed:undname.obj
 0002:000028ec       ??_C@_0CG@HLDDJMAG@?$GAeh?5vector?5copy?5constructor?5ite@ 004b68ec     libvcruntimed:undname.obj
 0002:0000291c       ??_C@_0CM@FCBBDIGB@?$GAeh?5vector?5vbase?5copy?5construct@ 004b691c     libvcruntimed:undname.obj
 0002:00002950       ??_C@_0BL@CLIPGLGB@?$GAdynamic?5initializer?5for?5?8@ 004b6950     libvcruntimed:undname.obj
 0002:00002970       ??_C@_0CB@PDBIFEP@?$GAdynamic?5atexit?5destructor?5for?5@ 004b6970     libvcruntimed:undname.obj
 0002:00002998       ??_C@_0CD@CGAJBKEJ@?$GAvector?5copy?5constructor?5iterat@ 004b6998     libvcruntimed:undname.obj
 0002:000029c4       ??_C@_0CJ@GJELGAMM@?$GAvector?5vbase?5copy?5constructor?5@ 004b69c4     libvcruntimed:undname.obj
 0002:000029f8       ??_C@_0CL@FGIJHLCE@?$GAmanaged?5vector?5copy?5constructo@ 004b69f8     libvcruntimed:undname.obj
 0002:00002a2c       ??_C@_0BM@PMGGMLDN@?$GAlocal?5static?5thread?5guard?8@ 004b6a2c     libvcruntimed:undname.obj
 0002:00002a50       ??_C@_0N@BDNMDMOL@operator?5?$CC?$CC?5@ 004b6a50     libvcruntimed:undname.obj
 0002:00002a60       ??_C@_0BC@GGEBGALA@operator?5co_await@ 004b6a60     libvcruntimed:undname.obj
 0002:00002a78       ??_C@_0M@GAAIMMOH@operator?$DM?$DN?$DO@ 004b6a78     libvcruntimed:undname.obj
 0002:00002a88       ??_C@_0BC@DAFEJGAK@?5Type?5Descriptor?8@ 004b6a88     libvcruntimed:undname.obj
 0002:00002aa0       ??_C@_0BM@LDKODKLH@?5Base?5Class?5Descriptor?5at?5?$CI@ 004b6aa0     libvcruntimed:undname.obj
 0002:00002ac4       ??_C@_0BD@LGICGFMM@?5Base?5Class?5Array?8@ 004b6ac4     libvcruntimed:undname.obj
 0002:00002adc       ??_C@_0BN@MECKDCOJ@?5Class?5Hierarchy?5Descriptor?8@ 004b6adc     libvcruntimed:undname.obj
 0002:00002b00       ??_C@_0BK@CFCOFLF@?5Complete?5Object?5Locator?8@ 004b6b00     libvcruntimed:undname.obj
 0002:00002b20       ??_C@_0BG@JNJLAMPM@?$GAanonymous?5namespace?8@ 004b6b20     libvcruntimed:undname.obj
 0002:00002b3a       ?in_place@std@@3Uin_place_t@1@B 004b6b3a     libvcruntimed:undname.obj
 0002:00002b3c       ??_C@_02DKCKIIND@?$CFs@    004b6b3c     libvcruntimed:undname.obj
 0002:00002b40       ??_C@_04HEJADOOB@CV?3?5@   004b6b40     libvcruntimed:undname.obj
 0002:00002b48       ??_C@_03GDILBHBJ@$$h@      004b6b48     libvcruntimed:undname.obj
 0002:00002b4c       ??_C@_02MOLJINC@?3?3@      004b6b4c     libvcruntimed:undname.obj
 0002:00002b50       ??_C@_0BE@JAEOCHPE@template?9parameter?9@ 004b6b50     libvcruntimed:undname.obj
 0002:00002b68       ??_C@_0BF@LNLGBBNL@?$GAtemplate?9parameter?9@ 004b6b68     libvcruntimed:undname.obj
 0002:00002b84       ??_C@_0O@KHGCOMHP@generic?9type?9@ 004b6b84     libvcruntimed:undname.obj
 0002:00002b94       ??_C@_0P@ODDENDLM@?$GAgeneric?9type?9@ 004b6b94     libvcruntimed:undname.obj
 0002:00002ba8       ??_C@_02OHHJMEON@?8?8@     004b6ba8     libvcruntimed:undname.obj
 0002:00002bac       ??_C@_0BN@IBLMMFAP@?$GAnon?9type?9template?9parameter@ 004b6bac     libvcruntimed:undname.obj
 0002:00002bd0       ??_C@_03DLDNIBIK@?$CFlf@   004b6bd0     libvcruntimed:undname.obj
 0002:00002bd4       ??_C@_04OFALKAJ@?$DP?$DP_C@ 004b6bd4     libvcruntimed:undname.obj
 0002:00002bdc       ??_C@_03KHICJKCI@?4?4?4@   004b6bdc     libvcruntimed:undname.obj
 0002:00002be0       ??_C@_04HIBGFPH@NULL@      004b6be0     libvcruntimed:undname.obj
 0002:00002be8       ??_C@_02DPKJAMEF@?$CFd@    004b6be8     libvcruntimed:undname.obj
 0002:00002bec       ??_C@_0BK@IHCCFNEL@?$GAtemplate?9type?9parameter?9@ 004b6bec     libvcruntimed:undname.obj
 0002:00002c0c       ??_C@_0BK@OFCNNNKO@?$GAgeneric?9class?9parameter?9@ 004b6c0c     libvcruntimed:undname.obj
 0002:00002c2c       ??_C@_0BL@NGJBLFIL@?$GAgeneric?9method?9parameter?9@ 004b6c2c     libvcruntimed:undname.obj
 0002:00002c4c       ??_C@_07OHNGEDJK@nullptr@  004b6c4c     libvcruntimed:undname.obj
 0002:00002c58       ??_C@_04GKJNKENE@void@     004b6c58     libvcruntimed:undname.obj
 0002:00002c60       ??_C@_0BE@EODMJLIF@?$GAtemplate?9parameter@ 004b6c60     libvcruntimed:undname.obj
 0002:00002c78       ??_C@_03OPGICMGF@?$HN?8?5@ 004b6c78     libvcruntimed:undname.obj
 0002:00002c7c       ??_C@_02IGFCGPIL@?$HN?8@   004b6c7c     libvcruntimed:undname.obj
 0002:00002c80       ??_C@_0N@CBHHHENL@?$GAvtordispex?$HL@ 004b6c80     libvcruntimed:undname.obj
 0002:00002c90       ??_C@_0L@GHPFDFH@?$GAvtordisp?$HL@ 004b6c90     libvcruntimed:undname.obj
 0002:00002ca0       ??_C@_0L@HNGCOGAE@?$GAadjustor?$HL@ 004b6ca0     libvcruntimed:undname.obj
 0002:00002cb0       ??_C@_0CB@KJDOOODE@?$GAlocal?5static?5destructor?5helper@ 004b6cb0     libvcruntimed:undname.obj
 0002:00002cd8       ??_C@_0DB@ILEFOCIJ@?$GAtemplate?5static?5data?5member?5co@ 004b6cd8     libvcruntimed:undname.obj
 0002:00002d14       ??_C@_0DA@HGFJFBBE@?$GAtemplate?5static?5data?5member?5de@ 004b6d14     libvcruntimed:undname.obj
 0002:00002d50       ??_C@_07PGOEDBHP@static?5@ 004b6d50     libvcruntimed:undname.obj
 0002:00002d5c       ??_C@_08NIEOINHE@virtual?5@ 004b6d5c     libvcruntimed:undname.obj
 0002:00002d68       ??_C@_09LAPHOOG@private?3?5@ 004b6d68     libvcruntimed:undname.obj
 0002:00002d74       ??_C@_0M@GAIFPFIP@protected?3?5@ 004b6d74     libvcruntimed:undname.obj
 0002:00002d84       ??_C@_08GPDDCMKI@public?3?5@ 004b6d84     libvcruntimed:undname.obj
 0002:00002d90       ??_C@_08KJLFOPNE@?$FLthunk?$FN?3@ 004b6d90     libvcruntimed:undname.obj
 0002:00002d9c       ??_C@_0M@DHNBOJMP@extern?5?$CCC?$CC?5@ 004b6d9c     libvcruntimed:undname.obj
 0002:00002dac       ??_C@_02KCKGHPCA@?$CJ?5@   004b6dac     libvcruntimed:undname.obj
 0002:00002db0       ??_C@_05CIHEBHNO@char?5@   004b6db0     libvcruntimed:undname.obj
 0002:00002db8       ??_C@_06EHJMALKF@short?5@  004b6db8     libvcruntimed:undname.obj
 0002:00002dc0       ??_C@_04LAHKHJMA@int?5@    004b6dc0     libvcruntimed:undname.obj
 0002:00002dc8       ??_C@_05CJIMAING@long?5@   004b6dc8     libvcruntimed:undname.obj
 0002:00002dd0       ??_C@_09EBBEKKIH@unsigned?5@ 004b6dd0     libvcruntimed:undname.obj
 0002:00002ddc       ??_C@_05BEFAKPML@void?5@   004b6ddc     libvcruntimed:undname.obj
 0002:00002de4       ??_C@_09GAIEOBLP@volatile?5@ 004b6de4     libvcruntimed:undname.obj
 0002:00002df0       ??_C@_08PABEKFH@volatile@  004b6df0     libvcruntimed:undname.obj
 0002:00002dfc       ??_C@_0BA@LKIJLKPP@std?3?3nullptr_t?5@ 004b6dfc     libvcruntimed:undname.obj
 0002:00002e10       ??_C@_0P@GCOCNKDM@std?3?3nullptr_t@ 004b6e10     libvcruntimed:undname.obj
 0002:00002e24       ??_C@_0L@EGPHHEKN@?$DMellipsis?$DO@ 004b6e24     libvcruntimed:undname.obj
 0002:00002e34       ??_C@_04EENFHACM@?0?4?4?4@ 004b6e34     libvcruntimed:undname.obj
 0002:00002e3c       ??_C@_0M@ELJOJFFH@?0?$DMellipsis?$DO@ 004b6e3c     libvcruntimed:undname.obj
 0002:00002e4c       ??_C@_09DNHFEOJI@?5noexcept@ 004b6e4c     libvcruntimed:undname.obj
 0002:00002e58       ??_C@_03PBJBJNON@cpu@      004b6e58     libvcruntimed:undname.obj
 0002:00002e5c       ??_C@_03DCBBJBAA@amp@      004b6e5c     libvcruntimed:undname.obj
 0002:00002e60       ??_C@_02KEGNLNML@?0?5@     004b6e60     libvcruntimed:undname.obj
 0002:00002e64       ??_C@_04ENMBGAPA@char@     004b6e64     libvcruntimed:undname.obj
 0002:00002e6c       ??_C@_05BFKKPKCG@short@    004b6e6c     libvcruntimed:undname.obj
 0002:00002e74       ??_C@_03JBIPMCLC@int@      004b6e74     libvcruntimed:undname.obj
 0002:00002e78       ??_C@_04GOKPGOLB@long@     004b6e78     libvcruntimed:undname.obj
 0002:00002e80       ??_C@_05KNFBNCOH@float@    004b6e80     libvcruntimed:undname.obj
 0002:00002e88       ??_C@_06BNJCAIGJ@double@   004b6e88     libvcruntimed:undname.obj
 0002:00002e90       ??_C@_04DDKJGDCM@bool@     004b6e90     libvcruntimed:undname.obj
 0002:00002e98       ??_C@_06EBGKOKIG@__int8@   004b6e98     libvcruntimed:undname.obj
 0002:00002ea0       ??_C@_07ICFHOGAF@__int16@  004b6ea0     libvcruntimed:undname.obj
 0002:00002eac       ??_C@_07OFLPPHGP@__int32@  004b6eac     libvcruntimed:undname.obj
 0002:00002eb8       ??_C@_07LFCOJCAC@__int64@  004b6eb8     libvcruntimed:undname.obj
 0002:00002ec4       ??_C@_08GAHOLHEO@__int128@ 004b6ec4     libvcruntimed:undname.obj
 0002:00002ed0       ??_C@_09EEKGDCPH@?$DMunknown?$DO@ 004b6ed0     libvcruntimed:undname.obj
 0002:00002edc       ??_C@_07CFHGOPCN@char8_t@  004b6edc     libvcruntimed:undname.obj
 0002:00002ee8       ??_C@_08HBIPOFJB@char16_t@ 004b6ee8     libvcruntimed:undname.obj
 0002:00002ef4       ??_C@_08IECNCBKG@char32_t@ 004b6ef4     libvcruntimed:undname.obj
 0002:00002f00       ??_C@_07CLGGIAMF@wchar_t@  004b6f00     libvcruntimed:undname.obj
 0002:00002f0c       ??_C@_04HAPDLBFF@auto@     004b6f0c     libvcruntimed:undname.obj
 0002:00002f14       ??_C@_0P@LHCGKIGK@decltype?$CIauto?$CJ@ 004b6f14     libvcruntimed:undname.obj
 0002:00002f28       ??_C@_06GCICPBLB@__w64?5@  004b6f28     libvcruntimed:undname.obj
 0002:00002f30       ??_C@_07NFANNNEC@UNKNOWN@  004b6f30     libvcruntimed:undname.obj
 0002:00002f3c       ??_C@_07EDHNAJHC@signed?5@ 004b6f3c     libvcruntimed:undname.obj
 0002:00002f48       ??_C@_05BNCCCJPP@const@    004b6f48     libvcruntimed:undname.obj
 0002:00002f50       ??_C@_09EFNPDFFP@?5volatile@ 004b6f50     libvcruntimed:undname.obj
 0002:00002f5c       ??_C@_0P@GCIFDJCJ@?$GAunknown?5ecsu?8@ 004b6f5c     libvcruntimed:undname.obj
 0002:00002f70       ??_C@_06MOJHIBMG@union?5@  004b6f70     libvcruntimed:undname.obj
 0002:00002f78       ??_C@_07DIBCDNGL@struct?5@ 004b6f78     libvcruntimed:undname.obj
 0002:00002f84       ??_C@_06LJBABKPM@class?5@  004b6f84     libvcruntimed:undname.obj
 0002:00002f8c       ??_C@_08KOFANOFK@coclass?5@ 004b6f8c     libvcruntimed:undname.obj
 0002:00002f98       ??_C@_0N@DLIEFKNA@cointerface?5@ 004b6f98     libvcruntimed:undname.obj
 0002:00002fa8       ??_C@_05LJGMCFOG@enum?5@   004b6fa8     libvcruntimed:undname.obj
 0002:00002fb0       ??_C@_06LIJLOJAG@const?5@  004b6fb0     libvcruntimed:undname.obj
 0002:00002fb8       ??_C@_02KJPKDIBN@?$CG?5@   004b6fb8     libvcruntimed:undname.obj
 0002:00002fbc       ??_C@_03PCKGMOPB@?$CG?$CG?5@ 004b6fbc     libvcruntimed:undname.obj
 0002:00002fc0       ??_C@_0M@EALIELKG@cli?3?3array?$DM@ 004b6fc0     libvcruntimed:undname.obj
 0002:00002fd0       ??_C@_0O@GKABPPIF@cli?3?3pin_ptr?$DM@ 004b6fd0     libvcruntimed:undname.obj
 0002:00002fe0       ??_C@_02GOGNNPBN@?$CJ?$FL@ 004b6fe0     libvcruntimed:undname.obj
 0002:00002fe4       ??_C@_06EEGAIFAK@?$HLflat?$HN@ 004b6fe4     libvcruntimed:undname.obj
 0002:00002fec       ??_C@_05JIBOFOHK@?$HLfor?5@ 004b6fec     libvcruntimed:undname.obj
 0002:00002ff4       ??_C@_02MDINNEEG@s?5@      004b6ff4     libvcruntimed:undname.obj
 0002:00002ffc       ??_7DNameNode@@6B@         004b6ffc     libvcruntimed:undname.obj
 0002:00003014       ??_7charNode@@6B@          004b7014     libvcruntimed:undname.obj
 0002:0000302c       ??_7pcharNode@@6B@         004b702c     libvcruntimed:undname.obj
 0002:00003044       ??_7pDNameNode@@6B@        004b7044     libvcruntimed:undname.obj
 0002:0000305c       ??_7DNameStatusNode@@6B@   004b705c     libvcruntimed:undname.obj
 0002:00003074       ??_7pairNode@@6B@          004b7074     libvcruntimed:undname.obj
 0002:000031bc       ??_C@_04OKOHEJBO@?5?$DP?$DP?5@ 004b71bc     libvcruntimed:undname.obj
 0002:000031c4       ?nodes@?1??make@DNameStatusNode@@SAPBV2@W4DNameStatus@@@Z@4QBV2@B 004b71c4     libvcruntimed:undname.obj
 0002:00003200       ??_C@_0CG@LKEBOLJI@Cannot?5access?5value?5of?5empty?5op@ 004b7200     libvcruntimed:undname.obj
 0002:00003230       ??_C@_0DL@HOGOEGBB@d?3?2agent?2_work?24?2s?2src?2vctools?2@ 004b7230     libvcruntimed:undname.obj
 0002:00003278       ??_C@_1HG@IBBAGMOJ@?$AAd?$AA?3?$AA?2?$AAa?$AAg?$AAe?$AAn?$AAt?$AA?2?$AA_?$AAw?$AAo?$AAr?$AAk?$AA?2@ 004b7278     libvcruntimed:undname.obj
 0002:00003308       ??_C@_1FI@FIJPKNCH@?$AAs?$AAt?$AAd?$AA?3?$AA?3?$AAo?$AAp?$AAt?$AAi?$AAo?$AAn?$AAa?$AAl?$AA?$DM?$AAu@ 004b7308     libvcruntimed:undname.obj
 0002:00003378       ??_C@_1FA@DPIDPJCB@?$AA?$CC?$AAC?$AAa?$AAn?$AAn?$AAo?$AAt?$AA?5?$AAa?$AAc?$AAc?$AAe?$AAs?$AAs?$AA?5@ 004b7378     libvcruntimed:undname.obj
 0002:000033e8       ??_C@_1DM@KHCHBNEB@?$AAa?$AAp?$AAi?$AA?9?$AAm?$AAs?$AA?9?$AAw?$AAi?$AAn?$AA?9?$AAc?$AAo?$AAr?$AAe@ 004b73e8     libvcruntimed:winapi_downlevel.obj
 0002:00003430       ??_C@_1DK@LPPGFMPP@?$AAa?$AAp?$AAi?$AA?9?$AAm?$AAs?$AA?9?$AAw?$AAi?$AAn?$AA?9?$AAc?$AAo?$AAr?$AAe@ 004b7430     libvcruntimed:winapi_downlevel.obj
 0002:00003478       ??_C@_1BC@GDMECMAK@?$AAk?$AAe?$AAr?$AAn?$AAe?$AAl?$AA3?$AA2@ 004b7478     libvcruntimed:winapi_downlevel.obj
 0002:00003490       ??_C@_1BA@PFFKHIOG@?$AAa?$AAp?$AAi?$AA?9?$AAm?$AAs?$AA?9@ 004b7490     libvcruntimed:winapi_downlevel.obj
 0002:000034a8       ??_C@_1EM@LBIFGLGH@?$AAc?$AAa?$AAc?$AAh?$AAe?$AAd?$AA_?$AAh?$AAa?$AAn?$AAd?$AAl?$AAe?$AA?5?$AA?$DN@ 004b74a8     libvcruntimed:winapi_downlevel.obj
 0002:00003508       ??_C@_1JO@IKCMCKBI@?$AAd?$AA?3?$AA?2?$AAa?$AAg?$AAe?$AAn?$AAt?$AA?2?$AA_?$AAw?$AAo?$AAr?$AAk?$AA?2@ 004b7508     libvcruntimed:winapi_downlevel.obj
 0002:000035c8       ??_C@_1DI@MAHEDLDB@?$AAc?$AAa?$AAc?$AAh?$AAe?$AAd?$AA_?$AAh?$AAa?$AAn?$AAd?$AAl?$AAe?$AA?5?$AA?$DN@ 004b75c8     libvcruntimed:winapi_downlevel.obj
 0002:00003610       ??_C@_1FC@IBNCGNKL@?$AAc?$AAa?$AAc?$AAh?$AAe?$AAd?$AA_?$AAf?$AAp?$AA?5?$AA?$DN?$AA?$DN?$AA?5?$AAi?$AAn@ 004b7610     libvcruntimed:winapi_downlevel.obj
 0002:00003674       ??_C@_1CI@GDJBAGLP@?$AAc?$AAa?$AAc?$AAh?$AAe?$AAd?$AA_?$AAf?$AAp?$AA?5?$AA?$DN?$AA?$DN?$AA?5?$AAn?$AAe@ 004b7674     libvcruntimed:winapi_downlevel.obj
 0002:000036b0       ??_C@_08KNHFBNJ@FlsAlloc@  004b76b0     libvcruntimed:winapi_downlevel.obj
 0002:000036c8       ??_C@_07PEJMOBNF@FlsFree@  004b76c8     libvcruntimed:winapi_downlevel.obj
 0002:000036e0       ??_C@_0M@GDNOONDI@FlsGetValue@ 004b76e0     libvcruntimed:winapi_downlevel.obj
 0002:000036fc       ??_C@_0M@JCPCPOEF@FlsSetValue@ 004b76fc     libvcruntimed:winapi_downlevel.obj
 0002:00003718       ??_C@_0BM@HCFOFFN@InitializeCriticalSectionEx@ 004b7718     libvcruntimed:winapi_downlevel.obj
 0002:00003740       ??_7bad_exception@std@@6B@ 004b7740     libvcruntimed:frame.obj
 0002:0000374c       ??_C@_0O@DPKOEFFH@bad?5exception@ 004b774c     libvcruntimed:frame.obj
 0002:0000375c       ??_C@_0CP@GDJHIDC@minkernel?2crts?2ucrt?2src?2appcrt?2@ 004b775c     libucrtd:_file.obj
 0002:00003794       ??_C@_1DC@OGOLMDEL@?$AAp?$AAu?$AAb?$AAl?$AAi?$AAc?$AA_?$AAs?$AAt?$AAr?$AAe?$AAa?$AAm?$AA?5?$AA?$CB@ 004b7794     libucrtd:_file.obj
 0002:000037d0       ??_C@_1FO@IEGKHABE@?$AAm?$AAi?$AAn?$AAk?$AAe?$AAr?$AAn?$AAe?$AAl?$AA?2?$AAc?$AAr?$AAt?$AAs?$AA?2@ 004b77d0     libucrtd:_file.obj
 0002:00003840       ??_C@_1DI@PJGMCDLC@?$AA_?$AAg?$AAe?$AAt?$AA_?$AAs?$AAt?$AAr?$AAe?$AAa?$AAm?$AA_?$AAb?$AAu?$AAf@ 004b7840     libucrtd:_file.obj
 0002:00003884       ??_C@_1BO@MHPFFFJJ@?$AAs?$AAt?$AAr?$AAe?$AAa?$AAm?$AA?4?$AAv?$AAa?$AAl?$AAi?$AAd?$AA?$CI?$AA?$CJ@ 004b7884     libucrtd:fclose.obj
 0002:000038a8       ??_C@_1GA@DKNOMDCL@?$AAm?$AAi?$AAn?$AAk?$AAe?$AAr?$AAn?$AAe?$AAl?$AA?2?$AAc?$AAr?$AAt?$AAs?$AA?2@ 004b78a8     libucrtd:fclose.obj
 0002:0000391c       ??_C@_1O@EGMJNCOI@?$AAf?$AAc?$AAl?$AAo?$AAs?$AAe@ 004b791c     libucrtd:fclose.obj
 0002:0000392c       ??_C@_1BO@JINCABEC@?$AA_?$AAf?$AAc?$AAl?$AAo?$AAs?$AAe?$AA_?$AAn?$AAo?$AAl?$AAo?$AAc?$AAk@ 004b792c     libucrtd:fclose.obj
 0002:00003950       ??_C@_1CK@LLOEFJJG@?$AAf?$AAi?$AAl?$AAe?$AA_?$AAn?$AAa?$AAm?$AAe?$AA?5?$AA?$CB?$AA?$DN?$AA?5?$AAn?$AAu@ 004b7950     libucrtd:fopen.obj
 0002:00003988       ??_C@_1FO@JKHHBFCN@?$AAm?$AAi?$AAn?$AAk?$AAe?$AAr?$AAn?$AAe?$AAl?$AA?2?$AAc?$AAr?$AAt?$AAs?$AA?2@ 004b7988     libucrtd:fopen.obj
 0002:000039f8       ??_C@_1BM@HBDCPLIA@?$AAc?$AAo?$AAm?$AAm?$AAo?$AAn?$AA_?$AAf?$AAs?$AAo?$AAp?$AAe?$AAn@ 004b79f8     libucrtd:fopen.obj
 0002:00003a1c       ??_C@_1CA@HJKPLBCC@?$AAm?$AAo?$AAd?$AAe?$AA?5?$AA?$CB?$AA?$DN?$AA?5?$AAn?$AAu?$AAl?$AAl?$AAp?$AAt?$AAr@ 004b7a1c     libucrtd:fopen.obj
 0002:00003a44       ??_C@_1BG@HEFEIBLN@?$AA?$CK?$AAm?$AAo?$AAd?$AAe?$AA?5?$AA?$CB?$AA?$DN?$AA?5?$AA0@ 004b7a44     libucrtd:fopen.obj
 0002:00003a60       ??_C@_1CE@JMFACANE@?$AAr?$AAe?$AAs?$AAu?$AAl?$AAt?$AA?5?$AA?$CB?$AA?$DN?$AA?5?$AAn?$AAu?$AAl?$AAl?$AAp@ 004b7a60     libucrtd:fopen.obj
 0002:00003a8c       ??_C@_1BO@JGGJAKB@?$AAc?$AAo?$AAm?$AAm?$AAo?$AAn?$AA_?$AAf?$AAo?$AAp?$AAe?$AAn?$AA_?$AAs@ 004b7a8c     libucrtd:fopen.obj
 0002:00003ab0       ??_C@_1CE@JLIJLEKO@?$AAs?$AAt?$AAr?$AAe?$AAa?$AAm?$AA?5?$AA?$CB?$AA?$DN?$AA?5?$AAn?$AAu?$AAl?$AAl?$AAp@ 004b7ab0     libucrtd:fread.obj
 0002:00003ae0       ??_C@_1FO@CIJKACCM@?$AAm?$AAi?$AAn?$AAk?$AAe?$AAr?$AAn?$AAe?$AAl?$AA?2?$AAc?$AAr?$AAt?$AAs?$AA?2@ 004b7ae0     libucrtd:fread.obj
 0002:00003b50       ??_C@_1BA@CMLCEIGG@?$AAf?$AAr?$AAe?$AAa?$AAd?$AA_?$AAs@ 004b7b50     libucrtd:fread.obj
 0002:00003b64       ??_C@_1CE@MCCHPLBM@?$AAb?$AAu?$AAf?$AAf?$AAe?$AAr?$AA?5?$AA?$CB?$AA?$DN?$AA?5?$AAn?$AAu?$AAl?$AAl?$AAp@ 004b7b64     libucrtd:fread.obj
 0002:00003b90       ??_C@_1CA@IDPOGFL@?$AA_?$AAf?$AAr?$AAe?$AAa?$AAd?$AA_?$AAn?$AAo?$AAl?$AAo?$AAc?$AAk?$AA_?$AAs@ 004b7b90     libucrtd:fread.obj
 0002:00003bb8       ??_C@_1FG@KLKDPCLL@?$AAe?$AAl?$AAe?$AAm?$AAe?$AAn?$AAt?$AA_?$AAc?$AAo?$AAu?$AAn?$AAt?$AA?5?$AA?$DM@ 004b7bb8     libucrtd:fread.obj
 0002:00003c20       ??_C@_1LG@DCNDJCHK@?$AA?$CI?$AA?$CC?$AAI?$AAn?$AAc?$AAo?$AAn?$AAs?$AAi?$AAs?$AAt?$AAe?$AAn?$AAt?$AA?5@ 004b7c20     libucrtd:fread.obj
 0002:00003cfc       ??_C@_1DA@DKEFLDMG@?$AA?$CI?$AA?$CC?$AAb?$AAu?$AAf?$AAf?$AAe?$AAr?$AA?5?$AAt?$AAo?$AAo?$AA?5?$AAs?$AAm@ 004b7cfc     libucrtd:fread.obj
 0002:00003d38       ?standard_lookup_table_spectre@__crt_stdio_output@@3V?$spectre_mitigated_lookup_table@Ustate_transition_pair@__crt_stdio_output@@$0IA@@1@B 004b7d38     libucrtd:output.obj
 0002:00004208       ?format_validation_lookup_table_spectre@__crt_stdio_output@@3V?$spectre_mitigated_lookup_table@Ustate_transition_pair@__crt_stdio_output@@$0IA@@1@B 004b8208     libucrtd:output.obj
 0002:000046d8       ??_C@_1BDG@MKBKGHOH@?$AA?$CI?$AA?5?$AA?$CI?$AA_?$AAS?$AAt?$AAr?$AAe?$AAa?$AAm?$AA?4?$AAi?$AAs?$AA_?$AAs@ 004b86d8     libucrtd:output.obj
 0002:00004850       ??_C@_1GC@LCDLABEA@?$AAm?$AAi?$AAn?$AAk?$AAe?$AAr?$AAn?$AAe?$AAl?$AA?2?$AAc?$AAr?$AAt?$AAs?$AA?2@ 004b8850     libucrtd:output.obj
 0002:000048c8       ??_C@_1II@DIIMCJOK@?$AA_?$AA_?$AAa?$AAc?$AAr?$AAt?$AA_?$AAs?$AAt?$AAd?$AAi?$AAo?$AA_?$AAc?$AAh@ 004b88c8     libucrtd:output.obj
 0002:00004970       ??_C@_1GA@MOBAPGIO@?$AAm?$AAi?$AAn?$AAk?$AAe?$AAr?$AAn?$AAe?$AAl?$AA?2?$AAc?$AAr?$AAt?$AAs?$AA?2@ 004b8970     libucrtd:output.obj
 0002:000049e4       ??_C@_1CA@GELIJBMC@?$AAc?$AAo?$AAm?$AAm?$AAo?$AAn?$AA_?$AAv?$AAf?$AAp?$AAr?$AAi?$AAn?$AAt?$AAf@ 004b89e4     libucrtd:output.obj
 0002:00004a0c       ??_C@_1CE@EAKLPBKK@?$AAf?$AAo?$AAr?$AAm?$AAa?$AAt?$AA?5?$AA?$CB?$AA?$DN?$AA?5?$AAn?$AAu?$AAl?$AAl?$AAp@ 004b8a0c     libucrtd:output.obj
 0002:00004a38       ??_C@_1CA@PIMGHCEK@?$AAc?$AAo?$AAm?$AAm?$AAo?$AAn?$AA_?$AAv?$AAs?$AAp?$AAr?$AAi?$AAn?$AAt?$AAf@ 004b8a38     libucrtd:output.obj
 0002:00004a60       ??_C@_1EO@EGEEFEFM@?$AAb?$AAu?$AAf?$AAf?$AAe?$AAr?$AA_?$AAc?$AAo?$AAu?$AAn?$AAt?$AA?5?$AA?$DN?$AA?$DN@ 004b8a60     libucrtd:output.obj
 0002:00004ac0       ??_C@_1CE@JEILLNB@?$AAc?$AAo?$AAm?$AAm?$AAo?$AAn?$AA_?$AAv?$AAs?$AAp?$AAr?$AAi?$AAn?$AAt?$AAf@ 004b8ac0     libucrtd:output.obj
 0002:00004af0       ??_C@_1EM@OAFHAOLH@?$AAb?$AAu?$AAf?$AAf?$AAe?$AAr?$AA?5?$AA?$CB?$AA?$DN?$AA?5?$AAn?$AAu?$AAl?$AAl?$AAp@ 004b8af0     libucrtd:output.obj
 0002:00004b4c       ??_C@_1DA@HPBFKMEB@?$AA?$CI?$AA?$CC?$AAB?$AAu?$AAf?$AAf?$AAe?$AAr?$AA?5?$AAt?$AAo?$AAo?$AA?5?$AAs?$AAm@ 004b8b4c     libucrtd:output.obj
 0002:00004b88       ??_C@_1CG@LHFJHFBB@?$AAc?$AAo?$AAm?$AAm?$AAo?$AAn?$AA_?$AAv?$AAs?$AAn?$AAp?$AAr?$AAi?$AAn?$AAt@ 004b8b88     libucrtd:output.obj
 0002:00004bb8       ??_C@_1CM@JOIJBMEM@?$AA_?$AAf?$AAo?$AAr?$AAm?$AAa?$AAt?$AA_?$AAi?$AAt?$AA?5?$AA?$CB?$AA?$DN?$AA?5?$AAn@ 004b8bb8     libucrtd:output.obj
 0002:00004bf0       ??_C@_1HA@DMAAKIJP@?$AAm?$AAi?$AAn?$AAk?$AAe?$AAr?$AAn?$AAe?$AAl?$AA?2?$AAc?$AAr?$AAt?$AAs?$AA?2@ 004b8bf0     libucrtd:output.obj
 0002:00004c78       ??_C@_1BNA@OIIAGHJI@?$AA_?$AA_?$AAc?$AAr?$AAt?$AA_?$AAs?$AAt?$AAd?$AAi?$AAo?$AA_?$AAo?$AAu?$AAt@ 004b8c78     libucrtd:output.obj
 0002:00004ea8       ??_C@_1EE@DMAIGNBG@?$AA?$CI?$AA?$CC?$AAI?$AAn?$AAc?$AAo?$AAr?$AAr?$AAe?$AAc?$AAt?$AA?5?$AAf?$AAo?$AAr@ 004b8ea8     libucrtd:output.obj
 0002:00004f00       ??_C@_1BLI@EGFICANE@?$AA_?$AA_?$AAc?$AAr?$AAt?$AA_?$AAs?$AAt?$AAd?$AAi?$AAo?$AA_?$AAo?$AAu?$AAt@ 004b8f00     libucrtd:output.obj
 0002:00005110       ??_C@_1BLI@IKDKMDHI@?$AA_?$AA_?$AAc?$AAr?$AAt?$AA_?$AAs?$AAt?$AAd?$AAi?$AAo?$AA_?$AAo?$AAu?$AAt@ 004b9110     libucrtd:output.obj
 0002:00005320       ??_C@_1BKA@DNADAJMC@?$AA_?$AA_?$AAc?$AAr?$AAt?$AA_?$AAs?$AAt?$AAd?$AAi?$AAo?$AA_?$AAo?$AAu?$AAt@ 004b9320     libucrtd:output.obj
 0002:00005518       ??_C@_1BNA@HGLCOOBP@?$AA_?$AA_?$AAc?$AAr?$AAt?$AA_?$AAs?$AAt?$AAd?$AAi?$AAo?$AA_?$AAo?$AAu?$AAt@ 004b9518     libucrtd:output.obj
 0002:00005748       ??_C@_1BLI@FOCNEPKJ@?$AA_?$AA_?$AAc?$AAr?$AAt?$AA_?$AAs?$AAt?$AAd?$AAi?$AAo?$AA_?$AAo?$AAu?$AAt@ 004b9748     libucrtd:output.obj
 0002:00005958       ??_C@_1BMK@CPBKHDIH@?$AA_?$AA_?$AAc?$AAr?$AAt?$AA_?$AAs?$AAt?$AAd?$AAi?$AAo?$AA_?$AAo?$AAu?$AAt@ 004b9958     libucrtd:output.obj
 0002:00005b80       ??_C@_1BLC@PMCLHHAE@?$AA_?$AA_?$AAc?$AAr?$AAt?$AA_?$AAs?$AAt?$AAd?$AAi?$AAo?$AA_?$AAo?$AAu?$AAt@ 004b9b80     libucrtd:output.obj
 0002:00005d88       ??_C@_1BLI@EEAAPJD@?$AA_?$AA_?$AAc?$AAr?$AAt?$AA_?$AAs?$AAt?$AAd?$AAi?$AAo?$AA_?$AAo?$AAu?$AAt@ 004b9d88     libucrtd:output.obj
 0002:00005f98       ??_C@_1BKA@IIAAOGBO@?$AA_?$AA_?$AAc?$AAr?$AAt?$AA_?$AAs?$AAt?$AAd?$AAi?$AAo?$AA_?$AAo?$AAu?$AAt@ 004b9f98     libucrtd:output.obj
 0002:00006190       ??_C@_1FG@OBJBDPAC@?$AA?$CI?$AA?$CC?$AAN?$AA?5?$AAl?$AAe?$AAn?$AAg?$AAt?$AAh?$AA?5?$AAm?$AAo?$AAd?$AAi@ 004ba190     libucrtd:output.obj
 0002:000061f8       ??_C@_1BOA@BMEGDMHF@?$AA_?$AA_?$AAc?$AAr?$AAt?$AA_?$AAs?$AAt?$AAd?$AAi?$AAo?$AA_?$AAo?$AAu?$AAt@ 004ba1f8     libucrtd:output.obj
 0002:00006438       ??_C@_1EC@GJPNJDCN@?$AA_?$AAl?$AAe?$AAn?$AAg?$AAt?$AAh?$AA?5?$AA?$DN?$AA?$DN?$AA?5?$AAl?$AAe?$AAn?$AAg@ 004ba438     libucrtd:output.obj
 0002:00006488       ??_C@_1DG@CEJKFDMO@?$AAs?$AAt?$AAa?$AAt?$AAe?$AA_?$AAc?$AAa?$AAs?$AAe?$AA_?$AAn?$AAo?$AAr?$AAm@ 004ba488     libucrtd:output.obj
 0002:000064c8       ??_C@_1BOE@IPKNNOEE@?$AA_?$AA_?$AAc?$AAr?$AAt?$AA_?$AAs?$AAt?$AAd?$AAi?$AAo?$AA_?$AAo?$AAu?$AAt@ 004ba4c8     libucrtd:output.obj
 0002:00006710       ??_C@_1IC@NLEOMCDL@?$AA_?$AAt?$AAy?$AAp?$AAe?$AA_?$AAi?$AAn?$AAd?$AAe?$AAx?$AA?5?$AA?$DO?$AA?$DN?$AA?5@ 004ba710     libucrtd:output.obj
 0002:000067b0       ??_C@_1BFK@KNCMELHH@?$AA_?$AA_?$AAc?$AAr?$AAt?$AA_?$AAs?$AAt?$AAd?$AAi?$AAo?$AA_?$AAo?$AAu?$AAt@ 004ba7b0     libucrtd:output.obj
 0002:00006950       ??_C@_1FK@BCPANIEK@?$AA?$CI?$AA?$CC?$AAM?$AAi?$AAs?$AAs?$AAi?$AAn?$AAg?$AA?5?$AAp?$AAo?$AAs?$AAi?$AAt@ 004ba950     libucrtd:output.obj
 0002:000069c0       ??_C@_1BEI@IHLBHMLJ@?$AA_?$AA_?$AAc?$AAr?$AAt?$AA_?$AAs?$AAt?$AAd?$AAi?$AAo?$AA_?$AAo?$AAu?$AAt@ 004ba9c0     libucrtd:output.obj
 0002:00006b50       ??_C@_1BMI@LKDDDFDL@?$AA_?$AA_?$AAc?$AAr?$AAt?$AA_?$AAs?$AAt?$AAd?$AAi?$AAo?$AA_?$AAo?$AAu?$AAt@ 004bab50     libucrtd:output.obj
 0002:00006d78       ??_C@_1BMM@JGEKEBKL@?$AA_?$AA_?$AAc?$AAr?$AAt?$AA_?$AAs?$AAt?$AAd?$AAi?$AAo?$AA_?$AAo?$AAu?$AAt@ 004bad78     libucrtd:output.obj
 0002:00006fa0       ??_C@_1BEO@ODGKIOAL@?$AA_?$AA_?$AAc?$AAr?$AAt?$AA_?$AAs?$AAt?$AAd?$AAi?$AAo?$AA_?$AAo?$AAu?$AAt@ 004bafa0     libucrtd:output.obj
 0002:00007130       ??_C@_1BDM@GFCGMNL@?$AA_?$AA_?$AAc?$AAr?$AAt?$AA_?$AAs?$AAt?$AAd?$AAi?$AAo?$AA_?$AAo?$AAu?$AAt@ 004bb130     libucrtd:output.obj
 0002:000072b0       ??_C@_1BMI@KBPJOJJI@?$AA_?$AA_?$AAc?$AAr?$AAt?$AA_?$AAs?$AAt?$AAd?$AAi?$AAo?$AA_?$AAo?$AAu?$AAt@ 004bb2b0     libucrtd:output.obj
 0002:000074d8       ??_C@_1BMM@PGHHMNDM@?$AA_?$AA_?$AAc?$AAr?$AAt?$AA_?$AAs?$AAt?$AAd?$AAi?$AAo?$AA_?$AAo?$AAu?$AAt@ 004bb4d8     libucrtd:output.obj
 0002:00007700       ??_C@_1CI@DDKMNCPP@?$AA_?$AAc?$AAo?$AAn?$AAt?$AAe?$AAx?$AAt?$AA?5?$AA?$CB?$AA?$DN?$AA?5?$AAn?$AAu?$AAl@ 004bb700     libucrtd:output.obj
 0002:00007730       ??_C@_1HK@IIPGOADH@?$AA_?$AA_?$AAc?$AAr?$AAt?$AA_?$AAs?$AAt?$AAd?$AAi?$AAo?$AA_?$AAo?$AAu?$AAt@ 004bb730     libucrtd:output.obj
 0002:000077c8       ??_C@_1BLA@MEDMHIOH@?$AA_?$AA_?$AAc?$AAr?$AAt?$AA_?$AAs?$AAt?$AAd?$AAi?$AAo?$AA_?$AAo?$AAu?$AAt@ 004bb7c8     libucrtd:output.obj
 0002:000079d0       ??_C@_1BLE@LCKPBJON@?$AA_?$AA_?$AAc?$AAr?$AAt?$AA_?$AAs?$AAt?$AAd?$AAi?$AAo?$AA_?$AAo?$AAu?$AAt@ 004bb9d0     libucrtd:output.obj
 0002:00007be0       ??_C@_1HE@IACOMEJF@?$AA_?$AA_?$AAc?$AAr?$AAt?$AA_?$AAs?$AAt?$AAd?$AAi?$AAo?$AA_?$AAo?$AAu?$AAt@ 004bbbe0     libucrtd:output.obj
 0002:00007c70       ??_C@_1BOA@CBIEMBEE@?$AA_?$AA_?$AAc?$AAr?$AAt?$AA_?$AAs?$AAt?$AAd?$AAi?$AAo?$AA_?$AAo?$AAu?$AAt@ 004bbc70     libucrtd:output.obj
 0002:00007eb0       ??_C@_1BOE@NLICFINO@?$AA_?$AA_?$AAc?$AAr?$AAt?$AA_?$AAs?$AAt?$AAd?$AAi?$AAo?$AA_?$AAo?$AAu?$AAt@ 004bbeb0     libucrtd:output.obj
 0002:000080f8       ??_C@_1BFK@IOIDDMPJ@?$AA_?$AA_?$AAc?$AAr?$AAt?$AA_?$AAs?$AAt?$AAd?$AAi?$AAo?$AA_?$AAo?$AAu?$AAt@ 004bc0f8     libucrtd:output.obj
 0002:00008298       ??_C@_1BEI@JNJAFAD@?$AA_?$AA_?$AAc?$AAr?$AAt?$AA_?$AAs?$AAt?$AAd?$AAi?$AAo?$AA_?$AAo?$AAu?$AAt@ 004bc298     libucrtd:output.obj
 0002:00008428       ??_C@_1BMI@PKGBOKJK@?$AA_?$AA_?$AAc?$AAr?$AAt?$AA_?$AAs?$AAt?$AAd?$AAi?$AAo?$AA_?$AAo?$AAu?$AAt@ 004bc428     libucrtd:output.obj
 0002:00008650       ??_C@_1BMM@BLBJDDIA@?$AA_?$AA_?$AAc?$AAr?$AAt?$AA_?$AAs?$AAt?$AAd?$AAi?$AAo?$AA_?$AAo?$AAu?$AAt@ 004bc650     libucrtd:output.obj
 0002:00008878       ??_C@_1BEO@JEHLMMKB@?$AA_?$AA_?$AAc?$AAr?$AAt?$AA_?$AAs?$AAt?$AAd?$AAi?$AAo?$AA_?$AAo?$AAu?$AAt@ 004bc878     libucrtd:output.obj
 0002:00008a08       ??_C@_1BDM@FDOLKCHK@?$AA_?$AA_?$AAc?$AAr?$AAt?$AA_?$AAs?$AAt?$AAd?$AAi?$AAo?$AA_?$AAo?$AAu?$AAt@ 004bca08     libucrtd:output.obj
 0002:00008b88       ??_C@_1BNK@ONPHCEAM@?$AA_?$AA_?$AAc?$AAr?$AAt?$AA_?$AAs?$AAt?$AAd?$AAi?$AAo?$AA_?$AAo?$AAu?$AAt@ 004bcb88     libucrtd:output.obj
 0002:00008dc0       ??_C@_1BNO@LMMLJOOJ@?$AA_?$AA_?$AAc?$AAr?$AAt?$AA_?$AAs?$AAt?$AAd?$AAi?$AAo?$AA_?$AAo?$AAu?$AAt@ 004bcdc0     libucrtd:output.obj
 0002:00009000       ??_C@_1GC@BNMHNGKM@?$AA_?$AAs?$AAt?$AAa?$AAt?$AAe?$AA?5?$AA?$DN?$AA?$DN?$AA?5?$AAs?$AAt?$AAa?$AAt?$AAe@ 004bd000     libucrtd:output.obj
 0002:00009078       ??_C@_1BEC@FNIGNBHI@?$AA_?$AA_?$AAc?$AAr?$AAt?$AA_?$AAs?$AAt?$AAd?$AAi?$AAo?$AA_?$AAo?$AAu?$AAt@ 004bd078     libucrtd:output.obj
 0002:00009200       ??_C@_1BMC@DAENMDAD@?$AA_?$AA_?$AAc?$AAr?$AAt?$AA_?$AAs?$AAt?$AAd?$AAi?$AAo?$AA_?$AAo?$AAu?$AAt@ 004bd200     libucrtd:output.obj
 0002:00009420       ??_C@_1BMG@KOENKAMB@?$AA_?$AA_?$AAc?$AAr?$AAt?$AA_?$AAs?$AAt?$AAd?$AAi?$AAo?$AA_?$AAo?$AAu?$AAt@ 004bd420     libucrtd:output.obj
 0002:00009640       ??_C@_1BDG@PLANJEFE@?$AA_?$AA_?$AAc?$AAr?$AAt?$AA_?$AAs?$AAt?$AAd?$AAi?$AAo?$AA_?$AAo?$AAu?$AAt@ 004bd640     libucrtd:output.obj
 0002:000097b8       ??_C@_1BMI@DNMDMAAN@?$AA_?$AA_?$AAc?$AAr?$AAt?$AA_?$AAs?$AAt?$AAd?$AAi?$AAo?$AA_?$AAo?$AAu?$AAt@ 004bd7b8     libucrtd:output.obj
 0002:000099e0       ??_C@_1BMM@JHGFKAND@?$AA_?$AA_?$AAc?$AAr?$AAt?$AA_?$AAs?$AAt?$AAd?$AAi?$AAo?$AA_?$AAo?$AAu?$AAt@ 004bd9e0     libucrtd:output.obj
 0002:00009c08       ??_C@_1CA@ONEGMNAN@?$AA_?$AAs?$AAt?$AAr?$AAe?$AAa?$AAm?$AA?4?$AAv?$AAa?$AAl?$AAi?$AAd?$AA?$CI?$AA?$CJ@ 004bdc08     libucrtd:output.obj
 0002:00009c30       ??_C@_1HK@MPBCDOK@?$AA_?$AA_?$AAc?$AAr?$AAt?$AA_?$AAs?$AAt?$AAd?$AAi?$AAo?$AA_?$AAo?$AAu?$AAt@ 004bdc30     libucrtd:output.obj
 0002:00009cc8       ??_C@_1BLA@GJNGKGIK@?$AA_?$AA_?$AAc?$AAr?$AAt?$AA_?$AAs?$AAt?$AAd?$AAi?$AAo?$AA_?$AAo?$AAu?$AAt@ 004bdcc8     libucrtd:output.obj
 0002:00009ed0       ??_C@_1BLE@PAACOKDK@?$AA_?$AA_?$AAc?$AAr?$AAt?$AA_?$AAs?$AAt?$AAd?$AAi?$AAo?$AA_?$AAo?$AAu?$AAt@ 004bded0     libucrtd:output.obj
 0002:0000a0e0       ??_C@_1HE@FGKHNBNL@?$AA_?$AA_?$AAc?$AAr?$AAt?$AA_?$AAs?$AAt?$AAd?$AAi?$AAo?$AA_?$AAo?$AAu?$AAt@ 004be0e0     libucrtd:output.obj
 0002:0000a170       ??_C@_1BEC@NDOOKIMC@?$AA_?$AA_?$AAc?$AAr?$AAt?$AA_?$AAs?$AAt?$AAd?$AAi?$AAo?$AA_?$AAo?$AAu?$AAt@ 004be170     libucrtd:output.obj
 0002:0000a2f8       ??_C@_1EK@PNGFDECN@?$AA?$CI?$AA?$CC?$AA?8?$AAn?$AA?8?$AA?5?$AAf?$AAo?$AAr?$AAm?$AAa?$AAt?$AA?5?$AAs?$AAp@ 004be2f8     libucrtd:output.obj
 0002:0000a350       ??_C@_1BNI@OPBGCNOB@?$AA_?$AA_?$AAc?$AAr?$AAt?$AA_?$AAs?$AAt?$AAd?$AAi?$AAo?$AA_?$AAo?$AAu?$AAt@ 004be350     libucrtd:output.obj
 0002:0000a588       ??_C@_1EO@GHKFGFKL@?$AA?$CI?$AA?$CC?$AAI?$AAn?$AAv?$AAa?$AAl?$AAi?$AAd?$AA?5?$AAi?$AAn?$AAt?$AAe?$AAg@ 004be588     libucrtd:output.obj
 0002:0000a5e8       ??_C@_1JC@PMCLKCOC@?$AAp?$AAr?$AAe?$AAc?$AAi?$AAs?$AAi?$AAo?$AAn?$AA_?$AAi?$AAn?$AAd?$AAe?$AAx@ 004be5e8     libucrtd:output.obj
 0002:0000a698       ??_C@_1BAG@GKCGGKOF@?$AA_?$AA_?$AAc?$AAr?$AAt?$AA_?$AAs?$AAt?$AAd?$AAi?$AAo?$AA_?$AAo?$AAu?$AAt@ 004be698     libucrtd:output.obj
 0002:0000a7d8       ??_C@_1IC@KGDNLBNC@?$AAw?$AAi?$AAd?$AAt?$AAh?$AA_?$AAi?$AAn?$AAd?$AAe?$AAx?$AA?5?$AA?$DO?$AA?$DN?$AA?5@ 004be7d8     libucrtd:output.obj
 0002:0000a878       ??_C@_1BAK@CDLANFGA@?$AA_?$AA_?$AAc?$AAr?$AAt?$AA_?$AAs?$AAt?$AAd?$AAi?$AAo?$AA_?$AAo?$AAu?$AAt@ 004be878     libucrtd:output.obj
 0002:0000a9b8       ??_C@_1BDG@KOLEFKPF@?$AA_?$AA_?$AAc?$AAr?$AAt?$AA_?$AAs?$AAt?$AAd?$AAi?$AAo?$AA_?$AAo?$AAu?$AAt@ 004be9b8     libucrtd:output.obj
 0002:0000ab30       ??_C@_1BMA@CBPCAOAB@?$AA_?$AA_?$AAc?$AAr?$AAt?$AA_?$AAs?$AAt?$AAd?$AAi?$AAo?$AA_?$AAo?$AAu?$AAt@ 004beb30     libucrtd:output.obj
 0002:0000ad50       ??_C@_1PK@KBJLALII@?$AA_?$AA_?$AAc?$AAr?$AAt?$AA_?$AAs?$AAt?$AAd?$AAi?$AAo?$AA_?$AAo?$AAu?$AAt@ 004bed50     libucrtd:output.obj
 0002:0000ae80       ??_C@_1PO@PODEJAGE@?$AA_?$AA_?$AAc?$AAr?$AAt?$AA_?$AAs?$AAt?$AAd?$AAi?$AAo?$AA_?$AAo?$AAu?$AAt@ 004bee80     libucrtd:output.obj
 0002:0000afb0       ??_C@_1BMA@IHIBOLMD@?$AA_?$AA_?$AAc?$AAr?$AAt?$AA_?$AAs?$AAt?$AAd?$AAi?$AAo?$AA_?$AAo?$AAu?$AAt@ 004befb0     libucrtd:output.obj
 0002:0000b1d0       ??_C@_1BKI@CJEIGDAI@?$AA_?$AA_?$AAc?$AAr?$AAt?$AA_?$AAs?$AAt?$AAd?$AAi?$AAo?$AA_?$AAo?$AAu?$AAt@ 004bf1d0     libucrtd:output.obj
 0002:0000b3d0       ??_C@_1BNI@IMOCDBNE@?$AA_?$AA_?$AAc?$AAr?$AAt?$AA_?$AAs?$AAt?$AAd?$AAi?$AAo?$AA_?$AAo?$AAu?$AAt@ 004bf3d0     libucrtd:output.obj
 0002:0000b608       ??_C@_1BAG@DOFNHDMF@?$AA_?$AA_?$AAc?$AAr?$AAt?$AA_?$AAs?$AAt?$AAd?$AAi?$AAo?$AA_?$AAo?$AAu?$AAt@ 004bf608     libucrtd:output.obj
 0002:0000b748       ??_C@_1BAK@DALINHHB@?$AA_?$AA_?$AAc?$AAr?$AAt?$AA_?$AAs?$AAt?$AAd?$AAi?$AAo?$AA_?$AAo?$AAu?$AAt@ 004bf748     libucrtd:output.obj
 0002:0000b888       ??_C@_1BMA@GACGPGHN@?$AA_?$AA_?$AAc?$AAr?$AAt?$AA_?$AAs?$AAt?$AAd?$AAi?$AAo?$AA_?$AAo?$AAu?$AAt@ 004bf888     libucrtd:output.obj
 0002:0000baa8       ??_C@_1PK@KBJECIEM@?$AA_?$AA_?$AAc?$AAr?$AAt?$AA_?$AAs?$AAt?$AAd?$AAi?$AAo?$AA_?$AAo?$AAu?$AAt@ 004bfaa8     libucrtd:output.obj
 0002:0000bbd8       ??_C@_1PO@LKIIANED@?$AA_?$AA_?$AAc?$AAr?$AAt?$AA_?$AAs?$AAt?$AAd?$AAi?$AAo?$AA_?$AAo?$AAu?$AAt@ 004bfbd8     libucrtd:output.obj
 0002:0000bd08       ??_C@_1BNC@DONELHFF@?$AA_?$AA_?$AAc?$AAr?$AAt?$AA_?$AAs?$AAt?$AAd?$AAi?$AAo?$AA_?$AAo?$AAu?$AAt@ 004bfd08     libucrtd:output.obj
 0002:0000bf38       ??_C@_1BLK@BGFMMAPO@?$AA_?$AA_?$AAc?$AAr?$AAt?$AA_?$AAs?$AAt?$AAd?$AAi?$AAo?$AA_?$AAo?$AAu?$AAt@ 004bff38     libucrtd:output.obj
 0002:0000c150       ??_C@_1BMA@PGOJAHFP@?$AA_?$AA_?$AAc?$AAr?$AAt?$AA_?$AAs?$AAt?$AAd?$AAi?$AAo?$AA_?$AAo?$AAu?$AAt@ 004c0150     libucrtd:output.obj
 0002:0000c370       ??_C@_1BKI@NDKBCDGP@?$AA_?$AA_?$AAc?$AAr?$AAt?$AA_?$AAs?$AAt?$AAd?$AAi?$AAo?$AA_?$AAo?$AAu?$AAt@ 004c0370     libucrtd:output.obj
 0002:0000c56c       ??_C@_1O@CEDCILHN@?$AA?$CI?$AAn?$AAu?$AAl?$AAl?$AA?$CJ@ 004c056c     libucrtd:output.obj
 0002:0000c57c       ??_C@_06OJHGLDPL@?$CInull?$CJ@ 004c057c     libucrtd:output.obj
 0002:0000c588       ??_C@_1BOE@LIBLDKPN@?$AA_?$AA_?$AAc?$AAr?$AAt?$AA_?$AAs?$AAt?$AAd?$AAi?$AAo?$AA_?$AAo?$AAu?$AAt@ 004c0588     libucrtd:output.obj
 0002:0000c7d0       ??_C@_1LO@HECDHMMI@?$AAi?$AAs?$AA_?$AAp?$AAo?$AAs?$AAi?$AAt?$AAi?$AAo?$AAn?$AAa?$AAl?$AA_?$AAp@ 004c07d0     libucrtd:output.obj
 0002:0000c8b8       ??_C@_1BCI@OBMMNJKK@?$AA_?$AA_?$AAc?$AAr?$AAt?$AA_?$AAs?$AAt?$AAd?$AAi?$AAo?$AA_?$AAo?$AAu?$AAt@ 004c08b8     libucrtd:output.obj
 0002:0000ca20       ??_C@_1FE@IAFJEKN@?$AA_?$AAt?$AAy?$AAp?$AAe?$AA_?$AAi?$AAn?$AAd?$AAe?$AAx?$AA?5?$AA?$DO?$AA?$DN?$AA?5@ 004c0a20     libucrtd:output.obj
 0002:0000ca88       ??_C@_1BCC@GJLKCHIG@?$AA_?$AA_?$AAc?$AAr?$AAt?$AA_?$AAs?$AAt?$AAd?$AAi?$AAo?$AA_?$AAo?$AAu?$AAt@ 004c0a88     libucrtd:output.obj
 0002:0000cbe8       ??_C@_1BMM@KBPMKFBC@?$AA_?$AA_?$AAc?$AAr?$AAt?$AA_?$AAs?$AAt?$AAd?$AAi?$AAo?$AA_?$AAo?$AAu?$AAt@ 004c0be8     libucrtd:output.obj
 0002:0000ce10       ??_C@_1CK@LGDCECDH@?$AA_?$AAf?$AAo?$AAr?$AAm?$AAa?$AAt?$AA_?$AAc?$AAh?$AAa?$AAr?$AA?5?$AA?$CB?$AA?$DN@ 004c0e10     libucrtd:output.obj
 0002:0000ce48       ??_C@_1BNI@EDCGAPJB@?$AA_?$AA_?$AAc?$AAr?$AAt?$AA_?$AAs?$AAt?$AAd?$AAi?$AAo?$AA_?$AAo?$AAu?$AAt@ 004c0e48     libucrtd:output.obj
 0002:0000d080       ??_C@_1BBM@CBBAFMPJ@?$AA_?$AA_?$AAc?$AAr?$AAt?$AA_?$AAs?$AAt?$AAd?$AAi?$AAo?$AA_?$AAo?$AAu?$AAt@ 004c1080     libucrtd:output.obj
 0002:0000d1d8       ??_C@_1BBG@KIHCHFIM@?$AA_?$AA_?$AAc?$AAr?$AAt?$AA_?$AAs?$AAt?$AAd?$AAi?$AAo?$AA_?$AAo?$AAu?$AAt@ 004c11d8     libucrtd:output.obj
 0002:0000d328       ??_C@_1BMM@MBMBCJIF@?$AA_?$AA_?$AAc?$AAr?$AAt?$AA_?$AAs?$AAt?$AAd?$AAi?$AAo?$AA_?$AAo?$AAu?$AAt@ 004c1328     libucrtd:output.obj
 0002:0000d550       ??_C@_1BLE@IFBJPNFE@?$AA_?$AA_?$AAc?$AAr?$AAt?$AA_?$AAs?$AAt?$AAd?$AAi?$AAo?$AA_?$AAo?$AAu?$AAt@ 004c1550     libucrtd:output.obj
 0002:0000d760       ??_C@_1BMA@FANDDEHK@?$AA_?$AA_?$AAc?$AAr?$AAt?$AA_?$AAs?$AAt?$AAd?$AAi?$AAo?$AA_?$AAo?$AAu?$AAt@ 004c1760     libucrtd:output.obj
 0002:0000d980       ??_C@_1BOE@OMDELMGH@?$AA_?$AA_?$AAc?$AAr?$AAt?$AA_?$AAs?$AAt?$AAd?$AAi?$AAo?$AA_?$AAo?$AAu?$AAt@ 004c1980     libucrtd:output.obj
 0002:0000dbc8       ??_C@_1BCI@ILAANKJG@?$AA_?$AA_?$AAc?$AAr?$AAt?$AA_?$AAs?$AAt?$AAd?$AAi?$AAo?$AA_?$AAo?$AAu?$AAt@ 004c1bc8     libucrtd:output.obj
 0002:0000dd30       ??_C@_1BCC@PDNLFIHK@?$AA_?$AA_?$AAc?$AAr?$AAt?$AA_?$AAs?$AAt?$AAd?$AAi?$AAo?$AA_?$AAo?$AAu?$AAt@ 004c1d30     libucrtd:output.obj
 0002:0000de90       ??_C@_1BMM@CMKPNHDJ@?$AA_?$AA_?$AAc?$AAr?$AAt?$AA_?$AAs?$AAt?$AAd?$AAi?$AAo?$AA_?$AAo?$AAu?$AAt@ 004c1e90     libucrtd:output.obj
 0002:0000e0b8       ??_C@_1BNI@EJPCEBAG@?$AA_?$AA_?$AAc?$AAr?$AAt?$AA_?$AAs?$AAt?$AAd?$AAi?$AAo?$AA_?$AAo?$AAu?$AAt@ 004c20b8     libucrtd:output.obj
 0002:0000e2f0       ??_C@_1BBM@LLHBCDAF@?$AA_?$AA_?$AAc?$AAr?$AAt?$AA_?$AAs?$AAt?$AAd?$AAi?$AAo?$AA_?$AAo?$AAu?$AAt@ 004c22f0     libucrtd:output.obj
 0002:0000e448       ??_C@_1BBG@JLLDGFML@?$AA_?$AA_?$AAc?$AAr?$AAt?$AA_?$AAs?$AAt?$AAd?$AAi?$AAo?$AA_?$AAo?$AAu?$AAt@ 004c2448     libucrtd:output.obj
 0002:0000e598       ??_C@_1BNO@ILHNHKFA@?$AA_?$AA_?$AAc?$AAr?$AAt?$AA_?$AAs?$AAt?$AAd?$AAi?$AAo?$AA_?$AAo?$AAu?$AAt@ 004c2598     libucrtd:output.obj
 0002:0000e7d8       ??_C@_1BMG@JJPLEEHI@?$AA_?$AA_?$AAc?$AAr?$AAt?$AA_?$AAs?$AAt?$AAd?$AAi?$AAo?$AA_?$AAo?$AAu?$AAt@ 004c27d8     libucrtd:output.obj
 0002:0000e9f8       ??_C@_1BNC@BAMNIOCM@?$AA_?$AA_?$AAc?$AAr?$AAt?$AA_?$AAs?$AAt?$AAd?$AAi?$AAo?$AA_?$AAo?$AAu?$AAt@ 004c29f8     libucrtd:output.obj
 0002:0000ec28       ??_C@_1BMM@KANDEEGK@?$AA_?$AA_?$AAc?$AAr?$AAt?$AA_?$AAs?$AAt?$AAd?$AAi?$AAo?$AA_?$AAo?$AAu?$AAt@ 004c2c28     libucrtd:output.obj
 0002:0000ee50       ??_C@_1BLE@MHLEAOID@?$AA_?$AA_?$AAc?$AAr?$AAt?$AA_?$AAs?$AAt?$AAd?$AAi?$AAo?$AA_?$AAo?$AAu?$AAt@ 004c2e50     libucrtd:output.obj
 0002:0000f060       ??_C@_1BMA@MEBEEDJE@?$AA_?$AA_?$AAc?$AAr?$AAt?$AA_?$AAs?$AAt?$AAd?$AAi?$AAo?$AA_?$AAo?$AAu?$AAt@ 004c3060     libucrtd:output.obj
 0002:0000f280       ??_C@_1BCA@HCPCJFGA@?$AA_?$AA_?$AAc?$AAr?$AAt?$AA_?$AAs?$AAt?$AAd?$AAi?$AAo?$AA_?$AAo?$AAu?$AAt@ 004c3280     libucrtd:output.obj
 0002:0000f3dc       ??_C@_0DI@KIFBHMNO@minkernel?2crts?2ucrt?2inc?2corecrt@ 004c33dc     libucrtd:output.obj
 0002:0000f420       ??_C@_1BBE@IBPNPIIM@?$AA_?$AA_?$AAc?$AAr?$AAt?$AA_?$AAs?$AAt?$AAd?$AAi?$AAo?$AA_?$AAo?$AAu?$AAt@ 004c3420     libucrtd:output.obj
 0002:0000f570       ??_C@_1BCA@FCGNBIN@?$AA_?$AA_?$AAc?$AAr?$AAt?$AA_?$AAs?$AAt?$AAd?$AAi?$AAo?$AA_?$AAo?$AAu?$AAt@ 004c3570     libucrtd:output.obj
 0002:0000f6d0       ??_C@_1BBE@FLKADCDA@?$AA_?$AA_?$AAc?$AAr?$AAt?$AA_?$AAs?$AAt?$AAd?$AAi?$AAo?$AA_?$AAo?$AAu?$AAt@ 004c36d0     libucrtd:output.obj
 0002:0000f820       ??_C@_1BMK@JGIBNIA@?$AA_?$AA_?$AAc?$AAr?$AAt?$AA_?$AAs?$AAt?$AAd?$AAi?$AAo?$AA_?$AAo?$AAu?$AAt@ 004c3820     libucrtd:output.obj
 0002:0000fa48       ??_C@_1BLC@INKIGOCN@?$AA_?$AA_?$AAc?$AAr?$AAt?$AA_?$AAs?$AAt?$AAd?$AAi?$AAo?$AA_?$AAo?$AAu?$AAt@ 004c3a48     libucrtd:output.obj
 0002:0000fc50       ??_C@_1BNK@KHNJGCCP@?$AA_?$AA_?$AAc?$AAr?$AAt?$AA_?$AAs?$AAt?$AAd?$AAi?$AAo?$AA_?$AAo?$AAu?$AAt@ 004c3c50     libucrtd:output.obj
 0002:0000fe88       ??_C@_1BNO@OHFFMOOJ@?$AA_?$AA_?$AAc?$AAr?$AAt?$AA_?$AAs?$AAt?$AAd?$AAi?$AAo?$AA_?$AAo?$AAu?$AAt@ 004c3e88     libucrtd:output.obj
 0002:000100c8       ??_C@_1BMC@FAGJFBLI@?$AA_?$AA_?$AAc?$AAr?$AAt?$AA_?$AAs?$AAt?$AAd?$AAi?$AAo?$AA_?$AAo?$AAu?$AAt@ 004c40c8     libucrtd:output.obj
 0002:000102e8       ??_C@_1BMG@CGPDIFDK@?$AA_?$AA_?$AAc?$AAr?$AAt?$AA_?$AAs?$AAt?$AAd?$AAi?$AAo?$AA_?$AAo?$AAu?$AAt@ 004c42e8     libucrtd:output.obj
 0002:00010508       ??_C@_1BNC@OHPDPPJK@?$AA_?$AA_?$AAc?$AAr?$AAt?$AA_?$AAs?$AAt?$AAd?$AAi?$AAo?$AA_?$AAo?$AAu?$AAt@ 004c4508     libucrtd:output.obj
 0002:00010738       ??_C@_1BLK@FOLFMPJH@?$AA_?$AA_?$AAc?$AAr?$AAt?$AA_?$AAs?$AAt?$AAd?$AAi?$AAo?$AA_?$AAo?$AAu?$AAt@ 004c4738     libucrtd:output.obj
 0002:00010950       ??_C@_1BNO@NAODCKFA@?$AA_?$AA_?$AAc?$AAr?$AAt?$AA_?$AAs?$AAt?$AAd?$AAi?$AAo?$AA_?$AAo?$AAu?$AAt@ 004c4950     libucrtd:output.obj
 0002:00010b90       ??_C@_1BMG@BBEFGBID@?$AA_?$AA_?$AAc?$AAr?$AAt?$AA_?$AAs?$AAt?$AAd?$AAi?$AAo?$AA_?$AAo?$AAu?$AAt@ 004c4b90     libucrtd:output.obj
 0002:00010db0       ??_C@_1BNC@JPKLPOHO@?$AA_?$AA_?$AAc?$AAr?$AAt?$AA_?$AAs?$AAt?$AAd?$AAi?$AAo?$AA_?$AAo?$AAu?$AAt@ 004c4db0     libucrtd:output.obj
 0002:00010fe0       _RtlNtPathSeperatorString  004c4fe0     libucrtd:exit.obj
 0002:00010fec       ??_C@_13FPGAJAPJ@?$AA?2@   004c4fec     libucrtd:exit.obj
 0002:00010ff0       _RtlDosPathSeperatorsString 004c4ff0     libucrtd:exit.obj
 0002:00010ffc       ??_C@_15MNCACJLI@?$AA?2?$AA?1@ 004c4ffc     libucrtd:exit.obj
 0002:00011004       _RtlAlternateDosPathSeperatorString 004c5004     libucrtd:exit.obj
 0002:00011010       ??_C@_13CGOKJPIL@?$AA?1@   004c5010     libucrtd:exit.obj
 0002:00011014       ??_C@_1BI@BGOHAHKC@?$AAm?$AAs?$AAc?$AAo?$AAr?$AAe?$AAe?$AA?4?$AAd?$AAl?$AAl@ 004c5014     libucrtd:exit.obj
 0002:00011030       ??_C@_0P@MIGLKIOC@CorExitProcess@ 004c5030     libucrtd:exit.obj
 0002:00011054       ??_C@_1BA@GLMCNLEM@?$AAW?$AAa?$AAr?$AAn?$AAi?$AAn?$AAg@ 004c5054     libucrtd:dbgrpt.obj
 0002:00011068       ??_C@_1M@ILHOPKA@?$AAE?$AAr?$AAr?$AAo?$AAr@ 004c5068     libucrtd:dbgrpt.obj
 0002:00011078       ??_C@_1CC@CGHMNGDG@?$AAA?$AAs?$AAs?$AAe?$AAr?$AAt?$AAi?$AAo?$AAn?$AA?5?$AAF?$AAa?$AAi?$AAl?$AAe@ 004c5078     libucrtd:dbgrpt.obj
 0002:000110a8       ??_C@_1OG@PMPPFHAF@?$AA?6?$AA?6?$AAF?$AAo?$AAr?$AA?5?$AAi?$AAn?$AAf?$AAo?$AAr?$AAm?$AAa?$AAt?$AAi@ 004c50a8     libucrtd:dbgrpt.obj
 0002:000111c0       ??_C@_1MG@LJLILFFD@?$AAD?$AAe?$AAb?$AAu?$AAg?$AA?5?$AA?$CF?$AAl?$AAs?$AA?$CB?$AA?6?$AA?6?$AAP?$AAr?$AAo@ 004c51c0     libucrtd:dbgrpt.obj
 0002:000112b0       ??_C@_1MG@OODCADGL@?$AAD?$AAe?$AAb?$AAu?$AAg?$AA?5?$AA?$CF?$AAl?$AAs?$AA?$CB?$AA?6?$AA?6?$AAP?$AAr?$AAo@ 004c52b0     libucrtd:dbgrpt.obj
 0002:000113a0       ??_C@_0BH@DNAGHKFM@?$DMprogram?5name?5unknown?$DO@ 004c53a0     libucrtd:dbgrpt.obj
 0002:000113bc       ??_C@_1CO@EAEJAADC@?$AA?$DM?$AAp?$AAr?$AAo?$AAg?$AAr?$AAa?$AAm?$AA?5?$AAn?$AAa?$AAm?$AAe?$AA?5?$AAu@ 004c53bc     libucrtd:dbgrpt.obj
 0002:000113f8       ??_C@_1FK@BNNDOGMN@?$AA?$CI?$AA?$CC?$AAT?$AAh?$AAe?$AA?5?$AAh?$AAo?$AAo?$AAk?$AA?5?$AAf?$AAu?$AAn?$AAc@ 004c53f8     libucrtd:dbgrpt.obj
 0002:00011468       ??_C@_1FO@GMJDLAJD@?$AAm?$AAi?$AAn?$AAk?$AAe?$AAr?$AAn?$AAe?$AAl?$AA?2?$AAc?$AAr?$AAt?$AAs?$AA?2@ 004c5468     libucrtd:dbgrpt.obj
 0002:000114d8       ??_C@_0CP@HDJNPEFB@minkernel?2crts?2ucrt?2src?2appcrt?2@ 004c54d8     libucrtd:dbgrpt.obj
 0002:00011510       ??_C@_1HI@OFEHGPPC@?$AAm?$AAo?$AAd?$AAe?$AA?5?$AA?$DN?$AA?$DN?$AA?5?$AA_?$AAC?$AAR?$AAT?$AA_?$AAR?$AAP@ 004c5510     libucrtd:dbgrpt.obj
 0002:000115a0       ??_C@_1CO@FFNKOJOG@?$AAc?$AAo?$AAm?$AAm?$AAo?$AAn?$AA_?$AAs?$AAe?$AAt?$AA_?$AAr?$AAe?$AAp?$AAo@ 004c55a0     libucrtd:dbgrpt.obj
 0002:000115d8       ??_C@_1CI@ONEHFNHD@?$AAn?$AAe?$AAw?$AA_?$AAh?$AAo?$AAo?$AAk?$AA?5?$AA?$CB?$AA?$DN?$AA?5?$AAn?$AAu?$AAl@ 004c55d8     libucrtd:dbgrpt.obj
 0002:0001160c       ??_C@_1CM@EHMOGBJJ@?$AAc?$AAo?$AAm?$AAm?$AAo?$AAn?$AA_?$AAm?$AAe?$AAs?$AAs?$AAa?$AAg?$AAe?$AA_@ 004c560c     libucrtd:dbgrpt.obj
 0002:00011640       ??_C@_1PE@ECNALGCA@?$AAt?$AAr?$AAa?$AAi?$AAt?$AAs?$AA?3?$AA?3?$AAt?$AAc?$AAs?$AAc?$AAp?$AAy?$AA_@ 004c5640     libucrtd:dbgrpt.obj
 0002:00011764       ??_C@_11LOCGONAA@@         004c5764     libucrtd:dbgrpt.obj
 0002:00011768       ??_C@_1BK@PEDCIPMA@?$AAE?$AAx?$AAp?$AAr?$AAe?$AAs?$AAs?$AAi?$AAo?$AAn?$AA?3?$AA?5@ 004c5768     libucrtd:dbgrpt.obj
 0002:00011788       ??_C@_15IABLJNFO@?$AA?6?$AA?6@ 004c5788     libucrtd:dbgrpt.obj
 0002:00011790       ??_C@_1BA@GLLGCPCK@?$AA?6?$AAL?$AAi?$AAn?$AAe?$AA?3?$AA?5@ 004c5790     libucrtd:dbgrpt.obj
 0002:000117a4       ??_C@_1BA@LNHECFIM@?$AA?6?$AAF?$AAi?$AAl?$AAe?$AA?3?$AA?5@ 004c57a4     libucrtd:dbgrpt.obj
 0002:000117b8       ??_C@_17LGKOMLJ@?$AA?4?$AA?4?$AA?4@ 004c57b8     libucrtd:dbgrpt.obj
 0002:000117c4       ??_C@_1BE@CGCJKGHI@?$AA?6?$AAM?$AAo?$AAd?$AAu?$AAl?$AAe?$AA?3?$AA?5@ 004c57c4     libucrtd:dbgrpt.obj
 0002:000117dc       ??_C@_1BI@KALLJECN@?$AA?$CI?$AA?$CK?$AA_?$AAe?$AAr?$AAr?$AAn?$AAo?$AA?$CI?$AA?$CJ?$AA?$CJ@ 004c57dc     libucrtd:dbgrpt.obj
 0002:000117f8       ??_C@_1JM@IBOIJEOO@?$AAw?$AAc?$AAs?$AAc?$AAp?$AAy?$AA_?$AAs?$AA?$CI?$AAm?$AAe?$AAs?$AAs?$AAa?$AAg@ 004c57f8     libucrtd:dbgrpt.obj
 0002:000118b8       ??_C@_1FG@BBOLDHGF@?$AA_?$AAC?$AAr?$AAt?$AAD?$AAb?$AAg?$AAR?$AAe?$AAp?$AAo?$AAr?$AAt?$AA?3?$AA?5@ 004c58b8     libucrtd:dbgrpt.obj
 0002:00011920       ??_C@_1EK@MBDPDCGA@?$AAM?$AAi?$AAc?$AAr?$AAo?$AAs?$AAo?$AAf?$AAt?$AA?5?$AAV?$AAi?$AAs?$AAu?$AAa@ 004c5920     libucrtd:dbgrpt.obj
 0002:00011980       ___acrt_exception_action_table 004c5980     libucrtd:exception_filter.obj
 0002:00011a2c       ___acrt_signal_action_table_count 004c5a2c     libucrtd:exception_filter.obj
 0002:00011a30       ___acrt_signal_action_table_size 004c5a30     libucrtd:exception_filter.obj
 0002:00011a34       ___acrt_signal_action_first_fpe_index 004c5a34     libucrtd:exception_filter.obj
 0002:00011a38       ___acrt_signal_action_fpe_count 004c5a38     libucrtd:exception_filter.obj
 0002:00011a40       ??_C@_1IC@DCNEKBE@?$AAm?$AAi?$AAn?$AAk?$AAe?$AAr?$AAn?$AAe?$AAl?$AA?2?$AAc?$AAr?$AAt?$AAs?$AA?2@ 004c5a40     libucrtd:report_runtime_error.obj
 0002:00011adc       ??_C@_1DI@BLFJHKKP@?$AA_?$AA_?$AAa?$AAc?$AAr?$AAt?$AA_?$AAr?$AAe?$AAp?$AAo?$AAr?$AAt?$AA_?$AAr@ 004c5adc     libucrtd:report_runtime_error.obj
 0002:00011b20       ??_C@_1LE@MHPGJGKE@?$AAw?$AAc?$AAs?$AAc?$AAp?$AAy?$AA_?$AAs?$AA?$CI?$AAo?$AAu?$AAt?$AAm?$AAs?$AAg@ 004c5b20     libucrtd:report_runtime_error.obj
 0002:00011bf8       ??_C@_1DE@JNGNBFGO@?$AAR?$AAu?$AAn?$AAt?$AAi?$AAm?$AAe?$AA?5?$AAE?$AAr?$AAr?$AAo?$AAr?$AA?$CB?$AA?6@ 004c5bf8     libucrtd:report_runtime_error.obj
 0002:00011c38       ??_C@_1HK@FJJNAABO@?$AAw?$AAc?$AAs?$AAc?$AAp?$AAy?$AA_?$AAs?$AA?$CI?$AAp?$AAr?$AAo?$AAg?$AAn?$AAa@ 004c5c38     libucrtd:report_runtime_error.obj
 0002:00011cd0       ??_C@_1HI@FLHKGEBE@?$AAw?$AAc?$AAs?$AAn?$AAc?$AAp?$AAy?$AA_?$AAs?$AA?$CI?$AAp?$AAc?$AAh?$AA?0?$AA?5@ 004c5cd0     libucrtd:report_runtime_error.obj
 0002:00011d60       ??_C@_1IG@MNNKBLBI@?$AAw?$AAc?$AAs?$AAc?$AAa?$AAt?$AA_?$AAs?$AA?$CI?$AAo?$AAu?$AAt?$AAm?$AAs?$AAg@ 004c5d60     libucrtd:report_runtime_error.obj
 0002:00011e00       ??_C@_1IG@DFBBBDAN@?$AAw?$AAc?$AAs?$AAc?$AAa?$AAt?$AA_?$AAs?$AA?$CI?$AAo?$AAu?$AAt?$AAm?$AAs?$AAg@ 004c5e00     libucrtd:report_runtime_error.obj
 0002:00011ea0       ??_C@_0DI@KNDIGDEP@minkernel?2crts?2ucrt?2src?2appcrt?2@ 004c5ea0     libucrtd:argv_parsing.obj
 0002:00011ee8       ??_C@_1JO@PGBIJBAM@?$AAm?$AAo?$AAd?$AAe?$AA?5?$AA?$DN?$AA?$DN?$AA?5?$AA_?$AAc?$AAr?$AAt?$AA_?$AAa?$AAr@ 004c5ee8     libucrtd:argv_parsing.obj
 0002:00011fa8       ??_C@_1HA@JMLCANEE@?$AAm?$AAi?$AAn?$AAk?$AAe?$AAr?$AAn?$AAe?$AAl?$AA?2?$AAc?$AAr?$AAt?$AAs?$AA?2@ 004c5fa8     libucrtd:argv_parsing.obj
 0002:00012030       ??_C@_1CM@LHOJELIC@?$AAc?$AAo?$AAm?$AAm?$AAo?$AAn?$AA_?$AAc?$AAo?$AAn?$AAf?$AAi?$AAg?$AAu?$AAr@ 004c6030     libucrtd:argv_parsing.obj
 0002:00012068       ??_C@_0EG@LEHKHOEH@minkernel?2crts?2ucrt?2src?2desktop@ 004c6068     libucrtd:environment_initialization.obj
 0002:000120c0       ??_C@_1IM@IMOFFPLG@?$AAm?$AAi?$AAn?$AAk?$AAe?$AAr?$AAn?$AAe?$AAl?$AA?2?$AAc?$AAr?$AAt?$AAs?$AA?2@ 004c60c0     libucrtd:environment_initialization.obj
 0002:00012168       ??_C@_1CG@MNNNBNAK@?$AAc?$AAr?$AAe?$AAa?$AAt?$AAe?$AA_?$AAe?$AAn?$AAv?$AAi?$AAr?$AAo?$AAn?$AAm@ 004c6168     libucrtd:environment_initialization.obj
 0002:00012198       ??_C@_1HI@OOPIFFGA@?$AAt?$AAr?$AAa?$AAi?$AAt?$AAs?$AA?3?$AA?3?$AAt?$AAc?$AAs?$AAc?$AAp?$AAy?$AA_@ 004c6198     libucrtd:environment_initialization.obj
 0002:00012228       ??_C@_1MI@PNMMBOIN@?$AAm?$AAo?$AAd?$AAe?$AA?5?$AA?$DN?$AA?$DN?$AA?5?$AA_?$AAO?$AA_?$AAT?$AAE?$AAX?$AAT@ 004c6228     libucrtd:setmode.obj
 0002:00012318       ??_C@_1GC@CIJNGKLD@?$AAm?$AAi?$AAn?$AAk?$AAe?$AAr?$AAn?$AAe?$AAl?$AA?2?$AAc?$AAr?$AAt?$AAs?$AA?2@ 004c6318     libucrtd:setmode.obj
 0002:00012390       ??_C@_1BC@JBGGJDCM@?$AA_?$AAs?$AAe?$AAt?$AAm?$AAo?$AAd?$AAe@ 004c6390     libucrtd:setmode.obj
 0002:000123a8       ??_C@_1FO@LPCLHKGE@?$AA?$CI?$AAf?$AAh?$AA?5?$AA?$DO?$AA?$DN?$AA?5?$AA0?$AA?5?$AA?$CG?$AA?$CG?$AA?5?$AA?$CI?$AAu?$AAn@ 004c63a8     libucrtd:setmode.obj
 0002:00012418       ??_C@_1CM@OKGMMMDH@?$AA?$CI?$AA_?$AAo?$AAs?$AAf?$AAi?$AAl?$AAe?$AA?$CI?$AAf?$AAh?$AA?$CJ?$AA?5?$AA?$CG?$AA?5@ 004c6418     libucrtd:setmode.obj
 0002:00012450       ??_C@_1JE@ECKHFIFP@?$AA?$CI?$AA?$CC?$AAI?$AAn?$AAv?$AAa?$AAl?$AAi?$AAd?$AA?5?$AAf?$AAi?$AAl?$AAe?$AA?5@ 004c6450     libucrtd:setmode.obj
 0002:00012508       ??_C@_1HC@GNDCDMJL@?$AAm?$AAo?$AAd?$AAe?$AA?5?$AA?$DN?$AA?$DN?$AA?5?$AA_?$AAO?$AA_?$AAT?$AAE?$AAX?$AAT@ 004c6508     libucrtd:setmode.obj
 0002:00012590       ??_C@_1BG@IEEHLOCL@?$AA_?$AAs?$AAe?$AAt?$AA_?$AAf?$AAm?$AAo?$AAd?$AAe@ 004c6590     libucrtd:setmode.obj
 0002:000125ac       ??_C@_1CC@ODGEBJBO@?$AAp?$AAM?$AAo?$AAd?$AAe?$AA?5?$AA?$CB?$AA?$DN?$AA?5?$AAn?$AAu?$AAl?$AAl?$AAp?$AAt@ 004c65ac     libucrtd:setmode.obj
 0002:000125d4       ??_C@_1BG@CKGMPOFH@?$AA_?$AAg?$AAe?$AAt?$AA_?$AAf?$AAm?$AAo?$AAd?$AAe@ 004c65d4     libucrtd:setmode.obj
 0002:000125f0       ??_C@_1GK@EMNILMBI@?$AAm?$AAi?$AAn?$AAk?$AAe?$AAr?$AAn?$AAe?$AAl?$AA?2?$AAc?$AAr?$AAt?$AAs?$AA?2@ 004c65f0     libucrtd:argv_data.obj
 0002:00012670       ??_C@_1BK@PNLDCCDP@?$AA_?$AAg?$AAe?$AAt?$AA_?$AAw?$AAp?$AAg?$AAm?$AAp?$AAt?$AAr@ 004c6670     libucrtd:argv_data.obj
 0002:00012690       ??_C@_1CI@ENCADPBF@?$AA_?$AAw?$AAp?$AAg?$AAm?$AAp?$AAt?$AAr?$AA?5?$AA?$CB?$AA?$DN?$AA?5?$AAn?$AAu?$AAl@ 004c6690     libucrtd:argv_data.obj
 0002:000126c0       ??_C@_1BI@COAAPHJK@?$AA_?$AAg?$AAe?$AAt?$AA_?$AAp?$AAg?$AAm?$AAp?$AAt?$AAr@ 004c66c0     libucrtd:argv_data.obj
 0002:000126dc       ??_C@_1CG@CKJHPBDG@?$AA_?$AAp?$AAg?$AAm?$AAp?$AAt?$AAr?$AA?5?$AA?$CB?$AA?$DN?$AA?5?$AAn?$AAu?$AAl?$AAl@ 004c66dc     libucrtd:argv_data.obj
 0002:000127a8       ___lc_category             004c67a8     libucrtd:wsetlocale.obj
 0002:00012800       ??_C@_1O@GIFLHMA@?$AAL?$AAC?$AA_?$AAA?$AAL?$AAL@ 004c6800     libucrtd:wsetlocale.obj
 0002:00012810       ??_C@_1BG@PPOMIBNJ@?$AAL?$AAC?$AA_?$AAC?$AAO?$AAL?$AAL?$AAA?$AAT?$AAE@ 004c6810     libucrtd:wsetlocale.obj
 0002:0001282c       ??_C@_1BC@FFJGAPJM@?$AAL?$AAC?$AA_?$AAC?$AAT?$AAY?$AAP?$AAE@ 004c682c     libucrtd:wsetlocale.obj
 0002:00012844       ??_C@_1BI@PCKFNJFB@?$AAL?$AAC?$AA_?$AAM?$AAO?$AAN?$AAE?$AAT?$AAA?$AAR?$AAY@ 004c6844     libucrtd:wsetlocale.obj
 0002:00012860       ??_C@_1BG@ENIEDKID@?$AAL?$AAC?$AA_?$AAN?$AAU?$AAM?$AAE?$AAR?$AAI?$AAC@ 004c6860     libucrtd:wsetlocale.obj
 0002:0001287c       ??_C@_1BA@HAAOMIIG@?$AAL?$AAC?$AA_?$AAT?$AAI?$AAM?$AAE@ 004c687c     libucrtd:wsetlocale.obj
 0002:00012890       ??_C@_1GA@LDEGDKD@?$AA?$CI?$AA?$CC?$AAI?$AAn?$AAv?$AAa?$AAl?$AAi?$AAd?$AA?5?$AAp?$AAa?$AAr?$AAa?$AAm@ 004c6890     libucrtd:wsetlocale.obj
 0002:00012908       ??_C@_1GK@DPKNLBIE@?$AAm?$AAi?$AAn?$AAk?$AAe?$AAr?$AAn?$AAe?$AAl?$AA?2?$AAc?$AAr?$AAt?$AAs?$AA?2@ 004c6908     libucrtd:wsetlocale.obj
 0002:00012988       ??_C@_1CI@FGIONOJM@?$AA_?$AAc?$AAo?$AAn?$AAf?$AAi?$AAg?$AAt?$AAh?$AAr?$AAe?$AAa?$AAd?$AAl?$AAo@ 004c6988     libucrtd:wsetlocale.obj
 0002:000129b8       ??_C@_0DF@MKMHJGEJ@minkernel?2crts?2ucrt?2src?2appcrt?2@ 004c69b8     libucrtd:wsetlocale.obj
 0002:000129f8       ??_C@_1FG@OHLFEKMC@?$AAL?$AAC?$AA_?$AAM?$AAI?$AAN?$AA?5?$AA?$DM?$AA?$DN?$AA?5?$AA_?$AAc?$AAa?$AAt?$AAe@ 004c69f8     libucrtd:wsetlocale.obj
 0002:00012a60       ??_C@_1BI@KJNPAEHL@?$AA_?$AAw?$AAs?$AAe?$AAt?$AAl?$AAo?$AAc?$AAa?$AAl?$AAe@ 004c6a60     libucrtd:wsetlocale.obj
 0002:00012a7c       ??_C@_15NBPDDFIP@?$AA?$DN?$AA?$DL@ 004c6a7c     libucrtd:wsetlocale.obj
 0002:00012a84       ??_C@_13PJJBFPED@?$AA?$DL@ 004c6a84     libucrtd:wsetlocale.obj
 0002:00012a88       ??_C@_1CG@DKJCBBPP@?$AA_?$AAw?$AAs?$AAe?$AAt?$AAl?$AAo?$AAc?$AAa?$AAl?$AAe?$AA_?$AAn?$AAo?$AAl@ 004c6a88     libucrtd:wsetlocale.obj
 0002:00012ab8       ??_C@_1IG@NGDCPCDE@?$AAw?$AAc?$AAs?$AAn?$AAc?$AAp?$AAy?$AA_?$AAs?$AA?$CI?$AAl?$AAc?$AAt?$AAe?$AAm@ 004c6ab8     libucrtd:wsetlocale.obj
 0002:00012b58       ??_C@_1CI@ODOPEMNJ@?$AA_?$AAw?$AAs?$AAe?$AAt?$AAl?$AAo?$AAc?$AAa?$AAl?$AAe?$AA_?$AAs?$AAe?$AAt@ 004c6b58     libucrtd:wsetlocale.obj
 0002:00012b88       ??_C@_1EM@MHOCNIAA@?$AAw?$AAc?$AAs?$AAc?$AAp?$AAy?$AA_?$AAs?$AA?$CI?$AAp?$AAc?$AAh?$AA_?$AAc?$AAa@ 004c6b88     libucrtd:wsetlocale.obj
 0002:00012be4       ??_C@_13NMPKAAJP@?$AA?$DN@ 004c6be4     libucrtd:wsetlocale.obj
 0002:00012be8       ??_C@_1CI@LKOPFFBD@?$AA_?$AAw?$AAs?$AAe?$AAt?$AAl?$AAo?$AAc?$AAa?$AAl?$AAe?$AA_?$AAg?$AAe?$AAt@ 004c6be8     libucrtd:wsetlocale.obj
 0002:00012c18       ??_C@_1DC@HMLJMODP@?$AAw?$AAc?$AAs?$AAc?$AAa?$AAt?$AA_?$AAs?$AA?$CI?$AAp?$AAc?$AAh?$AA?0?$AA?5?$AAc@ 004c6c18     libucrtd:wsetlocale.obj
 0002:00012c54       ??_C@_1CK@ENLABMHL@?$AAp?$AAa?$AAr?$AAs?$AAe?$AA_?$AAb?$AAc?$AAp?$AA4?$AA7?$AA_?$AAl?$AAa?$AAn@ 004c6c54     libucrtd:wsetlocale.obj
 0002:00012c88       ??_C@_1NM@HLCCHHMI@?$AAw?$AAc?$AAs?$AAn?$AAc?$AAp?$AAy?$AA_?$AAs?$AA?$CI?$AAn?$AAa?$AAm?$AAe?$AAs@ 004c6c88     libucrtd:wsetlocale.obj
 0002:00012d90       ??_C@_1OE@CBMMNIKI@?$AAw?$AAc?$AAs?$AAn?$AAc?$AAp?$AAy?$AA_?$AAs?$AA?$CI?$AAn?$AAa?$AAm?$AAe?$AAs@ 004c6d90     libucrtd:wsetlocale.obj
 0002:00012ea4       ??_C@_1CG@EJAKMGFL@?$AAp?$AAa?$AAr?$AAs?$AAe?$AA_?$AAb?$AAc?$AAp?$AA4?$AA7?$AA_?$AAs?$AAc?$AAr@ 004c6ea4     libucrtd:wsetlocale.obj
 0002:00012ed8       ??_C@_1LM@BMOGFEFE@?$AAw?$AAc?$AAs?$AAn?$AAc?$AAa?$AAt?$AA_?$AAs?$AA?$CI?$AAn?$AAa?$AAm?$AAe?$AAs@ 004c6ed8     libucrtd:wsetlocale.obj
 0002:00012fbc       ??_C@_13IMODFHAA@?$AA?9@   004c6fbc     libucrtd:wsetlocale.obj
 0002:00012fc0       ??_C@_1OE@EBFAEEFC@?$AAw?$AAc?$AAs?$AAn?$AAc?$AAa?$AAt?$AA_?$AAs?$AA?$CI?$AAn?$AAa?$AAm?$AAe?$AAs@ 004c6fc0     libucrtd:wsetlocale.obj
 0002:000130d4       ??_C@_1CG@DHJLMPNE@?$AAp?$AAa?$AAr?$AAs?$AAe?$AA_?$AAb?$AAc?$AAp?$AA4?$AA7?$AA_?$AAr?$AAe?$AAg@ 004c70d4     libucrtd:wsetlocale.obj
 0002:00013108       ??_C@_1NI@HCNCOMAB@?$AAw?$AAc?$AAs?$AAn?$AAc?$AAp?$AAy?$AA_?$AAs?$AA?$CI?$AAn?$AAa?$AAm?$AAe?$AAs@ 004c7108     libucrtd:wsetlocale.obj
 0002:0001320c       ??_C@_1CM@BFJANLBJ@?$AAp?$AAa?$AAr?$AAs?$AAe?$AA_?$AAb?$AAc?$AAp?$AA4?$AA7?$AA_?$AAc?$AAo?$AAd@ 004c720c     libucrtd:wsetlocale.obj
 0002:00013240       ??_C@_1NM@EHBAOOJF@?$AAw?$AAc?$AAs?$AAn?$AAc?$AAp?$AAy?$AA_?$AAs?$AA?$CI?$AAn?$AAa?$AAm?$AAe?$AAs@ 004c7240     libucrtd:wsetlocale.obj
 0002:00013348       ??_C@_17EFJLDFDO@?$AA?9?$AA_?$AA?4@ 004c7348     libucrtd:wsetlocale.obj
 0002:00013358       ??_C@_1IC@GOFECMPC@?$AA_?$AAe?$AAx?$AAp?$AAa?$AAn?$AAd?$AAl?$AAo?$AAc?$AAa?$AAl?$AAe?$AA_?$AAl@ 004c7358     libucrtd:wsetlocale.obj
 0002:000133f8       ??_C@_1BCI@NFIGLKLE@?$AAw?$AAc?$AAs?$AAn?$AAc?$AAp?$AAy?$AA_?$AAs?$AA?$CI?$AAl?$AAo?$AAc?$AAa?$AAl@ 004c73f8     libucrtd:wsetlocale.obj
 0002:00013560       ??_C@_1IE@NLIFNJDL@?$AA_?$AAe?$AAx?$AAp?$AAa?$AAn?$AAd?$AAl?$AAo?$AAc?$AAa?$AAl?$AAe?$AA_?$AAl@ 004c7560     libucrtd:wsetlocale.obj
 0002:00013600       ??_C@_1BDA@BKILNJJG@?$AAw?$AAc?$AAs?$AAn?$AAc?$AAp?$AAy?$AA_?$AAs?$AA?$CI?$AA_?$AAp?$AAs?$AAe?$AAt@ 004c7600     libucrtd:wsetlocale.obj
 0002:00013770       ??_C@_1GI@FBIHHKPD@?$AA_?$AAe?$AAx?$AAp?$AAa?$AAn?$AAd?$AAl?$AAo?$AAc?$AAa?$AAl?$AAe?$AA_?$AAl@ 004c7770     libucrtd:wsetlocale.obj
 0002:000137f0       ??_C@_1BCM@CLIFPJEI@?$AAw?$AAc?$AAs?$AAn?$AAc?$AAp?$AAy?$AA_?$AAs?$AA?$CI?$AA_?$AAp?$AAs?$AAe?$AAt@ 004c77f0     libucrtd:wsetlocale.obj
 0002:00013958       ??_C@_1JE@NMNMNJCJ@?$AA_?$AAe?$AAx?$AAp?$AAa?$AAn?$AAd?$AAl?$AAo?$AAc?$AAa?$AAl?$AAe?$AA_?$AAl@ 004c7958     libucrtd:wsetlocale.obj
 0002:00013a10       ??_C@_1LM@FAJKEGBG@?$AAw?$AAc?$AAs?$AAn?$AAc?$AAp?$AAy?$AA_?$AAs?$AA?$CI?$AA_?$AAl?$AAo?$AAc?$AAa@ 004c7a10     libucrtd:wsetlocale.obj
 0002:00013af4       ??_C@_1BM@OIIBLEFG@?$AA_?$AAe?$AAx?$AAp?$AAa?$AAn?$AAd?$AAl?$AAo?$AAc?$AAa?$AAl?$AAe@ 004c7af4     libucrtd:wsetlocale.obj
 0002:00013b18       ??_C@_1EI@OCINLCHN@?$AAw?$AAc?$AAs?$AAc?$AAp?$AAy?$AA_?$AAs?$AA?$CI?$AAo?$AAu?$AAt?$AAp?$AAu?$AAt@ 004c7b18     libucrtd:wsetlocale.obj
 0002:00013b70       ??_C@_13FHBKNHDA@?$AAC@    004c7b70     libucrtd:wsetlocale.obj
 0002:00013b78       ??_C@_1IG@MKDIEKFD@?$AAw?$AAc?$AAs?$AAn?$AAc?$AAp?$AAy?$AA_?$AAs?$AA?$CI?$AAc?$AAa?$AAc?$AAh?$AAe@ 004c7b78     libucrtd:wsetlocale.obj
 0002:00013c18       ??_C@_1IC@FCCDBGLL@?$AAw?$AAc?$AAs?$AAn?$AAc?$AAp?$AAy?$AA_?$AAs?$AA?$CI?$AAc?$AAa?$AAc?$AAh?$AAe@ 004c7c18     libucrtd:wsetlocale.obj
 0002:00013cb8       ??_C@_1FA@HOOAAHFF@?$AAw?$AAc?$AAs?$AAc?$AAp?$AAy?$AA_?$AAs?$AA?$CI?$AAo?$AAu?$AAt?$AAp?$AAu?$AAt@ 004c7cb8     libucrtd:wsetlocale.obj
 0002:00013d18       ??_C@_1BC@LEOKFFML@?$AA_?$AAw?$AAc?$AAs?$AAc?$AAa?$AAt?$AAs@ 004c7d18     libucrtd:wsetlocale.obj
 0002:00013d30       ??_C@_1BHK@BGMBCJOP@?$AAw?$AAc?$AAs?$AAc?$AAa?$AAt?$AA_?$AAs?$AA?$CI?$AAo?$AAu?$AAt?$AAs?$AAt?$AAr@ 004c7d30     libucrtd:wsetlocale.obj
 0002:00013ef8       ??_C@_1BK@GNCHCGCN@?$AA_?$AA_?$AAl?$AAc?$AA_?$AAw?$AAc?$AAs?$AAt?$AAo?$AAl?$AAc@ 004c7ef8     libucrtd:wsetlocale.obj
 0002:00013f18       ??_C@_1MI@MGHKCMFH@?$AAw?$AAc?$AAs?$AAn?$AAc?$AAp?$AAy?$AA_?$AAs?$AA?$CI?$AAn?$AAa?$AAm?$AAe?$AAs@ 004c7f18     libucrtd:wsetlocale.obj
 0002:00014008       ??_C@_17MBJJLFDM@?$AA_?$AA?4?$AA?0@ 004c8008     libucrtd:wsetlocale.obj
 0002:00014018       ??_C@_1LO@GGCCDNLJ@?$AAw?$AAc?$AAs?$AAn?$AAc?$AAp?$AAy?$AA_?$AAs?$AA?$CI?$AAn?$AAa?$AAm?$AAe?$AAs@ 004c8018     libucrtd:wsetlocale.obj
 0002:00014100       ??_C@_1LK@JOIOCOID@?$AAw?$AAc?$AAs?$AAn?$AAc?$AAp?$AAy?$AA_?$AAs?$AA?$CI?$AAn?$AAa?$AAm?$AAe?$AAs@ 004c8100     libucrtd:wsetlocale.obj
 0002:000141e0       ??_C@_1LO@OJICFEP@?$AAw?$AAc?$AAs?$AAn?$AAc?$AAp?$AAy?$AA_?$AAs?$AA?$CI?$AAn?$AAa?$AAm?$AAe?$AAs@ 004c81e0     libucrtd:wsetlocale.obj
 0002:000142c4       ??_C@_1BK@HEBMGPEK@?$AA_?$AA_?$AAl?$AAc?$AA_?$AAl?$AAc?$AAt?$AAo?$AAw?$AAc?$AAs@ 004c82c4     libucrtd:wsetlocale.obj
 0002:000142e8       ??_C@_1GM@FOFMGOEK@?$AAw?$AAc?$AAs?$AAc?$AAp?$AAy?$AA_?$AAs?$AA?$CI?$AAl?$AAo?$AAc?$AAa?$AAl?$AAe@ 004c82e8     libucrtd:wsetlocale.obj
 0002:0001436c       ??_C@_13ENNFDPBH@?$AA_@    004c836c     libucrtd:wsetlocale.obj
 0002:00014370       ??_C@_13JOFGPIOO@?$AA?4@   004c8370     libucrtd:wsetlocale.obj
 0002:00014374       ??_C@_1DA@BBIOOKDN@?$AA_?$AA_?$AAa?$AAc?$AAr?$AAt?$AA_?$AAc?$AAo?$AAp?$AAy?$AA_?$AAl?$AAo?$AAc@ 004c8374     libucrtd:wsetlocale.obj
 0002:000143b0       ??_C@_1GI@HBNMCKGD@?$AAw?$AAc?$AAs?$AAn?$AAc?$AAp?$AAy?$AA_?$AAs?$AA?$CI?$AAl?$AAo?$AAc?$AAa?$AAl@ 004c83b0     libucrtd:wsetlocale.obj
 0002:0001442c       ??_C@_1CO@JKFLNGDK@?$AAm?$AAo?$AAd?$AAe?$AA?5?$AA?$DN?$AA?$DN?$AA?5?$AA0?$AA?5?$AA?$HM?$AA?$HM?$AA?5?$AAm?$AAo@ 004c842c     libucrtd:new_mode.obj
 0002:00014468       ??_C@_1GC@PJMKBHEK@?$AAm?$AAi?$AAn?$AAk?$AAe?$AAr?$AAn?$AAe?$AAl?$AA?2?$AAc?$AAr?$AAt?$AAs?$AA?2@ 004c8468     libucrtd:new_mode.obj
 0002:000144e0       ??_C@_1BM@PDPAKJNF@?$AA_?$AAs?$AAe?$AAt?$AA_?$AAn?$AAe?$AAw?$AA_?$AAm?$AAo?$AAd?$AAe@ 004c84e0     libucrtd:new_mode.obj
 0002:00014504       ??_C@_1CC@LLFJPCJO@?$AAn?$AAe?$AAw?$AA_?$AAh?$AAa?$AAn?$AAd?$AAl?$AAe?$AAr?$AA?5?$AA?$DN?$AA?$DN?$AA?5@ 004c8504     libucrtd:new_handler.obj
 0002:00014530       ??_C@_1GI@GALDAPMM@?$AAm?$AAi?$AAn?$AAk?$AAe?$AAr?$AAn?$AAe?$AAl?$AA?2?$AAc?$AAr?$AAt?$AAs?$AA?2@ 004c8530     libucrtd:new_handler.obj
 0002:000145c4       ??_C@_04HJMOFLDF@Free@     004c85c4     libucrtd:debug_heap.obj
 0002:000145cc       ??_C@_06EFAGIKOH@Normal@   004c85cc     libucrtd:debug_heap.obj
 0002:000145d4       ??_C@_03OGPFLFLO@CRT@      004c85d4     libucrtd:debug_heap.obj
 0002:000145d8       ??_C@_06KMEJCCGM@Ignore@   004c85d8     libucrtd:debug_heap.obj
 0002:000145e0       ??_C@_06PJIGMIJB@Client@   004c85e0     libucrtd:debug_heap.obj
 0002:000145e8       ??_C@_1CE@LJFEPPMP@?$AA_?$AAC?$AAr?$AAt?$AAC?$AAh?$AAe?$AAc?$AAk?$AAM?$AAe?$AAm?$AAo?$AAr?$AAy@ 004c85e8     libucrtd:debug_heap.obj
 0002:00014618       ??_C@_1GG@OCLHPJPK@?$AAm?$AAi?$AAn?$AAk?$AAe?$AAr?$AAn?$AAe?$AAl?$AA?2?$AAc?$AAr?$AAt?$AAs?$AA?2@ 004c8618     libucrtd:debug_heap.obj
 0002:00014694       ??_C@_0DF@BBEGIFEK@Client?5hook?5allocation?5failure?5@ 004c8694     libucrtd:debug_heap.obj
 0002:000146d4       ??_C@_0CB@CCLOLAHO@Client?5hook?5allocation?5failure?4@ 004c86d4     libucrtd:debug_heap.obj
 0002:000146fc       ??_C@_0DC@JEMAGEKG@Error?3?5memory?5allocation?3?5bad?5m@ 004c86fc     libucrtd:debug_heap.obj
 0002:00014738       ??_C@_0DI@KKJPDPGM@Client?5hook?5re?9allocation?5failu@ 004c8738     libucrtd:debug_heap.obj
 0002:0001477c       ??_C@_0CE@DOFMDOL@Client?5hook?5re?9allocation?5failu@ 004c877c     libucrtd:debug_heap.obj
 0002:000147a8       ??_C@_0FA@EFEIGJKG@Error?3?5memory?5allocation?3?5bad?5m@ 004c87a8     libucrtd:debug_heap.obj
 0002:00014808       ??_C@_0EM@LGFLMAGJ@The?5Block?5at?50x?$CFp?5was?5allocated@ 004c8808     libucrtd:debug_heap.obj
 0002:00014864       ??_C@_1DM@DEDLGNML@?$AA_?$AAC?$AAr?$AAt?$AAI?$AAs?$AAV?$AAa?$AAl?$AAi?$AAd?$AAH?$AAe?$AAa?$AAp@ 004c8864     libucrtd:debug_heap.obj
 0002:000148b0       ??_C@_1PC@MCGKJLN@?$AAo?$AAl?$AAd?$AA_?$AAh?$AAe?$AAa?$AAd?$AA?9?$AA?$DO?$AA_?$AAl?$AAi?$AAn?$AAe@ 004c88b0     libucrtd:debug_heap.obj
 0002:000149d4       ??_C@_0DA@HFBKENN@Error?3?5possible?5heap?5corruption@ 004c89d4     libucrtd:debug_heap.obj
 0002:00014a10       ??_C@_1JM@MCMEPJEP@?$AAr?$AAe?$AAa?$AAl?$AAl?$AAo?$AAc?$AAa?$AAt?$AAi?$AAo?$AAn?$AA_?$AAi?$AAs@ 004c8a10     libucrtd:debug_heap.obj
 0002:00014acc       ??_C@_1DM@LNOPKAIJ@?$AA_?$AA_?$AAa?$AAc?$AAr?$AAt?$AA_?$AAl?$AAa?$AAs?$AAt?$AA_?$AAb?$AAl?$AAo@ 004c8acc     libucrtd:debug_heap.obj
 0002:00014b14       ??_C@_1DO@HABCJBHO@?$AA_?$AA_?$AAa?$AAc?$AAr?$AAt?$AA_?$AAf?$AAi?$AAr?$AAs?$AAt?$AA_?$AAb?$AAl@ 004c8b14     libucrtd:debug_heap.obj
 0002:00014b60       ??_C@_1CC@CKEAHJPH@?$AAb?$AAl?$AAo?$AAc?$AAk?$AA?5?$AA?$CB?$AA?$DN?$AA?5?$AAn?$AAu?$AAl?$AAl?$AAp?$AAt@ 004c8b60     libucrtd:debug_heap.obj
 0002:00014b88       ??_C@_1BI@HAPNGHDP@?$AA_?$AAe?$AAx?$AAp?$AAa?$AAn?$AAd?$AA_?$AAd?$AAb?$AAg@ 004c8b88     libucrtd:debug_heap.obj
 0002:00014ba8       ??_C@_0EJ@HEIBCIMJ@The?5Block?5at?50x?$CFp?5was?5allocated@ 004c8ba8     libucrtd:debug_heap.obj
 0002:00014c00       ??_C@_0BL@KEIPLFAC@Client?5hook?5free?5failure?4?6@ 004c8c00     libucrtd:debug_heap.obj
 0002:00014c20       ??_C@_1FA@KDNEBILF@?$AAi?$AAs?$AA_?$AAb?$AAl?$AAo?$AAc?$AAk?$AA_?$AAt?$AAy?$AAp?$AAe?$AA_?$AAv@ 004c8c20     libucrtd:debug_heap.obj
 0002:00014c80       ??_C@_0KI@JGFOHMEB@HEAP?5CORRUPTION?5DETECTED?3?5befor@ 004c8c80     libucrtd:debug_heap.obj
 0002:00014d50       ??_C@_0IK@PJCGLBOB@HEAP?5CORRUPTION?5DETECTED?3?5befor@ 004c8d50     libucrtd:debug_heap.obj
 0002:00014df8       ??_C@_0KE@MBMNHHHN@HEAP?5CORRUPTION?5DETECTED?3?5after@ 004c8df8     libucrtd:debug_heap.obj
 0002:00014ec0       ??_C@_0IG@LEMBDCJK@HEAP?5CORRUPTION?5DETECTED?3?5after@ 004c8ec0     libucrtd:debug_heap.obj
 0002:00014f60       ??_C@_1OK@GFEOEJAF@?$AAh?$AAe?$AAa?$AAd?$AAe?$AAr?$AA?9?$AA?$DO?$AA_?$AAl?$AAi?$AAn?$AAe?$AA_?$AAn@ 004c8f60     libucrtd:debug_heap.obj
 0002:00015078       ??_C@_1ME@GFALMLNA@?$AAh?$AAe?$AAa?$AAd?$AAe?$AAr?$AA?9?$AA?$DO?$AA_?$AAb?$AAl?$AAo?$AAc?$AAk?$AA_@ 004c9078     libucrtd:debug_heap.obj
 0002:00015164       ??_C@_1DI@ILNOPEPI@?$AA_?$AA_?$AAa?$AAc?$AAr?$AAt?$AA_?$AAl?$AAa?$AAs?$AAt?$AA_?$AAb?$AAl?$AAo@ 004c9164     libucrtd:debug_heap.obj
 0002:000151a8       ??_C@_1DK@KEHFGDIJ@?$AA_?$AA_?$AAa?$AAc?$AAr?$AAt?$AA_?$AAf?$AAi?$AAr?$AAs?$AAt?$AA_?$AAb?$AAl@ 004c91a8     libucrtd:debug_heap.obj
 0002:000151f0       ??_C@_1BG@MBKOGDLD@?$AA_?$AAm?$AAs?$AAi?$AAz?$AAe?$AA_?$AAd?$AAb?$AAg@ 004c91f0     libucrtd:debug_heap.obj
 0002:0001520c       ??_C@_07OHKEFPKJ@DAMAGED@  004c920c     libucrtd:debug_heap.obj
 0002:00015218       ??_C@_0KA@IHNJJKPL@HEAP?5CORRUPTION?5DETECTED?3?5on?5to@ 004c9218     libucrtd:debug_heap.obj
 0002:000152d8       ??_C@_0IC@BBJIOOJH@HEAP?5CORRUPTION?5DETECTED?3?5on?5to@ 004c92d8     libucrtd:debug_heap.obj
 0002:00015378       ??_C@_0EG@DGJMPDBH@?$CFhs?5located?5at?50x?$CFp?5is?5?$CFIu?5byte@ 004c9378     libucrtd:debug_heap.obj
 0002:000153cc       ??_C@_0CI@JMLBEDHJ@?$CFhs?5located?5at?50x?$CFp?5is?5?$CFIu?5byte@ 004c93cc     libucrtd:debug_heap.obj
 0002:00015400       ??_C@_0EG@GPFHANHO@Cycle?5in?5block?5list?5detected?5wh@ 004c9400     libucrtd:debug_heap.obj
 0002:00015454       ??_C@_0BJ@ELMAOCAJ@Heap?5validation?5failed?4?6@ 004c9454     libucrtd:debug_heap.obj
 0002:00015478       ??_C@_1IE@BBIFDGEB@?$AAn?$AAe?$AAw?$AA_?$AAb?$AAi?$AAt?$AAs?$AA?5?$AA?$DN?$AA?$DN?$AA?5?$AA_?$AAC?$AAR@ 004c9478     libucrtd:debug_heap.obj
 0002:00015518       ??_C@_1BO@GJFDNMNF@?$AA_?$AAC?$AAr?$AAt?$AAS?$AAe?$AAt?$AAD?$AAb?$AAg?$AAF?$AAl?$AAa?$AAg@ 004c9518     libucrtd:debug_heap.obj
 0002:0001553c       ??_C@_1CI@CEIBPAIA@?$AAc?$AAa?$AAl?$AAl?$AAb?$AAa?$AAc?$AAk?$AA?5?$AA?$CB?$AA?$DN?$AA?5?$AAn?$AAu?$AAl@ 004c953c     libucrtd:debug_heap.obj
 0002:0001556c       ??_C@_1DE@GJCKCKEC@?$AA_?$AAC?$AAr?$AAt?$AAD?$AAo?$AAF?$AAo?$AAr?$AAA?$AAl?$AAl?$AAC?$AAl?$AAi@ 004c956c     libucrtd:debug_heap.obj
 0002:000155ac       ??_C@_1CC@BBKMONGA@?$AAs?$AAt?$AAa?$AAt?$AAe?$AA?5?$AA?$CB?$AA?$DN?$AA?5?$AAn?$AAu?$AAl?$AAl?$AAp?$AAt@ 004c95ac     libucrtd:debug_heap.obj
 0002:000155d4       ??_C@_1CE@NJJKELF@?$AA_?$AAC?$AAr?$AAt?$AAM?$AAe?$AAm?$AAC?$AAh?$AAe?$AAc?$AAk?$AAp?$AAo?$AAi@ 004c95d4     libucrtd:debug_heap.obj
 0002:00015600       ??_C@_0DP@LEFMFBOD@Bad?5memory?5block?5found?5at?50x?$CFp?4@ 004c9600     libucrtd:debug_heap.obj
 0002:0001564c       ??_C@_0CB@EAAIGELO@Bad?5memory?5block?5found?5at?50x?$CFp?4@ 004c964c     libucrtd:debug_heap.obj
 0002:00015674       ??_C@_1CE@PDIENACM@?$AA_?$AAC?$AAr?$AAt?$AAM?$AAe?$AAm?$AAD?$AAi?$AAf?$AAf?$AAe?$AAr?$AAe?$AAn@ 004c9674     libucrtd:debug_heap.obj
 0002:000156a0       ??_C@_1CK@FFKLBHMD@?$AAo?$AAl?$AAd?$AA_?$AAs?$AAt?$AAa?$AAt?$AAe?$AA?5?$AA?$CB?$AA?$DN?$AA?5?$AAn?$AAu@ 004c96a0     libucrtd:debug_heap.obj
 0002:000156d4       ??_C@_1CK@NJPPHDJP@?$AAn?$AAe?$AAw?$AA_?$AAs?$AAt?$AAa?$AAt?$AAe?$AA?5?$AA?$CB?$AA?$DN?$AA?5?$AAn?$AAu@ 004c96d4     libucrtd:debug_heap.obj
 0002:00015708       ??_C@_1CC@DIJAHFFJ@?$AAp?$AAr?$AAi?$AAn?$AAt?$AA_?$AAb?$AAl?$AAo?$AAc?$AAk?$AA_?$AAd?$AAa?$AAt@ 004c9708     libucrtd:debug_heap.obj
 0002:00015730       ??_C@_0BA@HJBKCELP@?5Data?3?5?$DM?$CFs?$DO?5?$CFs?6@ 004c9730     libucrtd:debug_heap.obj
 0002:00015744       ??_C@_0BE@KCIPKCIA@Dumping?5objects?5?9?$DO?6@ 004c9744     libucrtd:debug_heap.obj
 0002:0001575c       ??_C@_0BE@OIEFNFL@?$CDFile?5Error?$CD?$CI?$CFd?$CJ?5?3?5@ 004c975c     libucrtd:debug_heap.obj
 0002:00015774       ??_C@_0L@JMEFFCCJ@?$CFhs?$CI?$CFd?$CJ?5?3?5@ 004c9774     libucrtd:debug_heap.obj
 0002:00015784       ??_C@_06PKLGBFGM@?$HL?$CFld?$HN?5@ 004c9784     libucrtd:debug_heap.obj
 0002:0001578c       ??_C@_0DD@GHNAAKBB@client?5block?5at?50x?$CFp?0?5subtype?5?$CF@ 004c978c     libucrtd:debug_heap.obj
 0002:000157cc       ??_C@_0CH@FAGDDGPN@normal?5block?5at?50x?$CFp?0?5?$CFIu?5bytes@ 004c97cc     libucrtd:debug_heap.obj
 0002:000157fc       ??_C@_0DA@MDLBNIBM@crt?5block?5at?50x?$CFp?0?5subtype?5?$CFx?0?5@ 004c97fc     libucrtd:debug_heap.obj
 0002:00015838       ??_C@_0BH@GFGKJDCO@Object?5dump?5complete?4?6@ 004c9838     libucrtd:debug_heap.obj
 0002:00015854       ??_C@_0BI@JBFPOEJA@Detected?5memory?5leaks?$CB?6@ 004c9854     libucrtd:debug_heap.obj
 0002:00015870       ??_C@_1CM@MPNIBKGK@?$AA_?$AAC?$AAr?$AAt?$AAM?$AAe?$AAm?$AAD?$AAu?$AAm?$AAp?$AAS?$AAt?$AAa?$AAt@ 004c9870     libucrtd:debug_heap.obj
 0002:000158a4       ??_C@_0BO@DACNIABB@?$CFId?5bytes?5in?5?$CFId?5?$CFhs?5Blocks?4?6@ 004c98a4     libucrtd:debug_heap.obj
 0002:000158c8       ??_C@_0CB@BLHDAFNE@Largest?5number?5used?3?5?$CFId?5bytes?4@ 004c98c8     libucrtd:debug_heap.obj
 0002:000158f0       ??_C@_0BP@DEDHGGGI@Total?5allocations?3?5?$CFId?5bytes?4?6@ 004c98f0     libucrtd:debug_heap.obj
 0002:00015918       ??_C@_1CM@JKMDHENJ@?$AAI?$AAS?$AA_?$AA2?$AA_?$AAP?$AAO?$AAW?$AA_?$AAN?$AA?$CI?$AAa?$AAl?$AAi?$AAg@ 004c9918     libucrtd:debug_heap.obj
 0002:0001594c       ??_C@_1DG@DONCJBBJ@?$AA_?$AAa?$AAl?$AAi?$AAg?$AAn?$AAe?$AAd?$AA_?$AAo?$AAf?$AAf?$AAs?$AAe?$AAt@ 004c994c     libucrtd:debug_heap.obj
 0002:0001598c       ??_C@_1DK@LFLKFPDA@?$AAo?$AAf?$AAf?$AAs?$AAe?$AAt?$AA?5?$AA?$DN?$AA?$DN?$AA?5?$AA0?$AA?5?$AA?$HM?$AA?$HM?$AA?5@ 004c998c     libucrtd:debug_heap.obj
 0002:000159d8       ??_C@_0EI@NDNJMAJK@The?5block?5at?50x?$CFp?5was?5not?5alloc@ 004c99d8     libucrtd:debug_heap.obj
 0002:00015a30       ??_C@_0DL@PGHMMKNE@Damage?5before?50x?$CFp?5which?5was?5al@ 004c9a30     libucrtd:debug_heap.obj
 0002:00015a78       ??_C@_1DI@NINIKFFK@?$AA_?$AAa?$AAl?$AAi?$AAg?$AAn?$AAe?$AAd?$AA_?$AAo?$AAf?$AAf?$AAs?$AAe?$AAt@ 004c9a78     libucrtd:debug_heap.obj
 0002:00015abc       ??_C@_1CG@CEGMHIMN@?$AA_?$AAa?$AAl?$AAi?$AAg?$AAn?$AAe?$AAd?$AA_?$AAm?$AAs?$AAi?$AAz?$AAe?$AA_@ 004c9abc     libucrtd:debug_heap.obj
 0002:00015af0       ??_C@_0EF@PGELACII@The?5block?5at?50x?$CFp?5was?5not?5alloc@ 004c9af0     libucrtd:debug_heap.obj
 0002:00015b48       ??_C@_1GI@BBAEIKL@?$AA?$CI?$AA?$CI?$AAd?$AAe?$AAs?$AAt?$AAi?$AAn?$AAa?$AAt?$AAi?$AAo?$AAn?$AA?$CJ?$AA?$CJ@ 004c9b48     libucrtd:strcpy_s.obj
 0002:00015bc8       ??_C@_1HI@PBJPCEBC@?$AAm?$AAi?$AAn?$AAk?$AAe?$AAr?$AAn?$AAe?$AAl?$AA?2?$AAc?$AAr?$AAt?$AAs?$AA?2@ 004c9bc8     libucrtd:strcpy_s.obj
 0002:00015c58       ??_C@_1CA@FHIAGDFH@?$AAc?$AAo?$AAm?$AAm?$AAo?$AAn?$AA_?$AAt?$AAc?$AAs?$AAc?$AAp?$AAy?$AA_?$AAs@ 004c9c58     libucrtd:strcpy_s.obj
 0002:00015c80       ??_C@_1CK@EIOKGPJL@?$AA?$CI?$AA?$CI?$AA?$CI?$AAs?$AAo?$AAu?$AAr?$AAc?$AAe?$AA?$CJ?$AA?$CJ?$AA?$CJ?$AA?5?$AA?$CB?$AA?$DN@ 004c9c80     libucrtd:strcpy_s.obj
 0002:00015cb4       ??_C@_1CI@HCPHDDLE@?$AAB?$AAu?$AAf?$AAf?$AAe?$AAr?$AA?5?$AAi?$AAs?$AA?5?$AAt?$AAo?$AAo?$AA?5?$AAs@ 004c9cb4     libucrtd:strcpy_s.obj
 0002:00015ce4       ??_C@_1DM@MADKGDLO@?$AA?$CI?$AAL?$AA?$CC?$AAB?$AAu?$AAf?$AAf?$AAe?$AAr?$AA?5?$AAi?$AAs?$AA?5?$AAt?$AAo@ 004c9ce4     libucrtd:strcpy_s.obj
 0002:00015d2c       ??_C@_1CA@EOJJMFA@?$AAc?$AAo?$AAm?$AAm?$AAo?$AAn?$AA_?$AAt?$AAc?$AAs?$AAc?$AAa?$AAt?$AA_?$AAs@ 004c9d2c     libucrtd:strcat_s.obj
 0002:00015d54       ??_C@_1DM@FHLMIEG@?$AAS?$AAt?$AAr?$AAi?$AAn?$AAg?$AA?5?$AAi?$AAs?$AA?5?$AAn?$AAo?$AAt?$AA?5?$AAn@ 004c9d54     libucrtd:strcat_s.obj
 0002:00015da0       ??_C@_1FA@MJKDNFFB@?$AA?$CI?$AAL?$AA?$CC?$AAS?$AAt?$AAr?$AAi?$AAn?$AAg?$AA?5?$AAi?$AAs?$AA?5?$AAn?$AAo@ 004c9da0     libucrtd:strcat_s.obj
 0002:00015e00       ??_C@_0DC@NBHMIIKL@minkernel?2crts?2ucrt?2src?2appcrt?2@ 004c9e00     libucrtd:onexit.obj
 0002:00015edc       ??_C@_1DG@JNDMIEJL@?$AA?$CI?$AA?$CC?$AAI?$AAn?$AAv?$AAa?$AAl?$AAi?$AAd?$AA?5?$AAi?$AAn?$AAp?$AAu?$AAt@ 004c9edc     libucrtd:contrlfp.obj
 0002:00015f20       ??_C@_1FO@HHLKCIKB@?$AAm?$AAi?$AAn?$AAk?$AAe?$AAr?$AAn?$AAe?$AAl?$AA?2?$AAc?$AAr?$AAt?$AAs?$AA?2@ 004c9f20     libucrtd:contrlfp.obj
 0002:00015f90       ??_C@_1BK@CDOALEA@?$AA_?$AAc?$AAo?$AAn?$AAt?$AAr?$AAo?$AAl?$AAf?$AAp?$AA_?$AAs@ 004c9f90     libucrtd:contrlfp.obj
 0002:00015fb0       ??_C@_1GE@IHIGNC@?$AA?$CI?$AA?$CI?$AAr?$AAe?$AAs?$AAu?$AAl?$AAt?$AA_?$AAb?$AAu?$AAf?$AAf?$AAe?$AAr@ 004c9fb0     libucrtd:makepath.obj
 0002:00016028       ??_C@_1GO@CPMBDHKK@?$AAm?$AAi?$AAn?$AAk?$AAe?$AAr?$AAn?$AAe?$AAl?$AA?2?$AAc?$AAr?$AAt?$AAs?$AA?2@ 004ca028     libucrtd:makepath.obj
 0002:000160ac       ??_C@_1CE@GNNMAAIL@?$AAc?$AAo?$AAm?$AAm?$AAo?$AAn?$AA_?$AAm?$AAa?$AAk?$AAe?$AAp?$AAa?$AAt?$AAh@ 004ca0ac     libucrtd:makepath.obj
 0002:000160d8       ??_C@_1CI@KGHCCPCN@?$AAc?$AAl?$AAe?$AAa?$AAn?$AAu?$AAp?$AA_?$AAa?$AAf?$AAt?$AAe?$AAr?$AA_?$AAe@ 004ca0d8     libucrtd:makepath.obj
 0002:00016108       ??_C@_1M@HLGKFCJM@?$AAf?$AAa?$AAl?$AAs?$AAe@ 004ca108     libucrtd:splitpath.obj
 0002:00016118       ??_C@_1HA@BEJINBHO@?$AAm?$AAi?$AAn?$AAk?$AAe?$AAr?$AAn?$AAe?$AAl?$AA?2?$AAc?$AAr?$AAt?$AAs?$AA?2@ 004ca118     libucrtd:splitpath.obj
 0002:000161a0       ??_C@_1DE@EEECINKG@?$AAc?$AAo?$AAm?$AAm?$AAo?$AAn?$AA_?$AAs?$AAp?$AAl?$AAi?$AAt?$AAp?$AAa?$AAt@ 004ca1a0     libucrtd:splitpath.obj
 0002:000161e0       ??_C@_1DA@LLLMNMKI@?$AAa?$AAb?$AAo?$AAr?$AAt?$AA?$CI?$AA?$CJ?$AA?5?$AAh?$AAa?$AAs?$AA?5?$AAb?$AAe?$AAe@ 004ca1e0     libucrtd:abort.obj
 0002:0001621c       __Fenv1                    004ca21c     libucrtd:atox.obj
 0002:00016228       ??_C@_1GE@DPGDJKLM@?$AAm?$AAi?$AAn?$AAk?$AAe?$AAr?$AAn?$AAe?$AAl?$AA?2?$AAc?$AAr?$AAt?$AAs?$AA?2@ 004ca228     libucrtd:atox.obj
 0002:000162a0       ??_C@_1EO@MLJCKPIB@?$AAb?$AAa?$AAs?$AAe?$AA?5?$AA?$DN?$AA?$DN?$AA?5?$AA0?$AA?5?$AA?$HM?$AA?$HM?$AA?5?$AA?$CI?$AA2@ 004ca2a0     libucrtd:atox.obj
 0002:00016300       ??_C@_1DI@BANODKFL@?$AA_?$AA_?$AAc?$AAr?$AAt?$AA_?$AAs?$AAt?$AAr?$AAt?$AAo?$AAx?$AA?3?$AA?3?$AAp@ 004ca300     libucrtd:atox.obj
 0002:00016344       ??_C@_1CM@GJENOOEJ@?$AAc?$AA?5?$AA?$DN?$AA?$DN?$AA?5?$AA?8?$AA?2?$AA0?$AA?8?$AA?5?$AA?$HM?$AA?$HM?$AA?5?$AA?$CK?$AA_@ 004ca344     libucrtd:atox.obj
 0002:00016378       ??_C@_1HA@CONLANFI@?$AA_?$AA_?$AAc?$AAr?$AAt?$AA_?$AAs?$AAt?$AAr?$AAt?$AAo?$AAx?$AA?3?$AA?3?$AAc@ 004ca378     libucrtd:atox.obj
 0002:00016400       ??_C@_1BM@PNEBBBDO@?$AA_?$AAp?$AA?5?$AA?$CB?$AA?$DN?$AA?5?$AAn?$AAu?$AAl?$AAl?$AAp?$AAt?$AAr@ 004ca400     libucrtd:atox.obj
 0002:00016428       ??_C@_1HG@FCDBLOEG@?$AA_?$AA_?$AAc?$AAr?$AAt?$AA_?$AAs?$AAt?$AAr?$AAt?$AAo?$AAx?$AA?3?$AA?3?$AAc@ 004ca428     libucrtd:atox.obj
 0002:000164b8       ??_C@_1GK@MNHIDABG@?$AA_?$AA_?$AAc?$AAr?$AAt?$AA_?$AAs?$AAt?$AAr?$AAt?$AAo?$AAx?$AA?3?$AA?3?$AAc@ 004ca4b8     libucrtd:atox.obj
 0002:00016538       ??_C@_1HA@MKKIHBHP@?$AA_?$AA_?$AAc?$AAr?$AAt?$AA_?$AAs?$AAt?$AAr?$AAt?$AAo?$AAx?$AA?3?$AA?3?$AAc@ 004ca538     libucrtd:atox.obj
 0002:00016770       ??_C@_1FM@MJJGEFKM@?$AAm?$AAi?$AAn?$AAk?$AAe?$AAr?$AAn?$AAe?$AAl?$AA?2?$AAc?$AAr?$AAt?$AAs?$AA?2@ 004ca770     libucrtd:errno.obj
 0002:000167e0       ??_C@_1BG@KCMPBBDK@?$AA_?$AAg?$AAe?$AAt?$AA_?$AAe?$AAr?$AAr?$AAn?$AAo@ 004ca7e0     libucrtd:errno.obj
 0002:000167fc       ??_C@_1BM@INIPHHDD@?$AA_?$AAg?$AAe?$AAt?$AA_?$AAd?$AAo?$AAs?$AAe?$AAr?$AAr?$AAn?$AAo@ 004ca7fc     libucrtd:errno.obj
 0002:00016880       ??_C@_1EA@JGEFHKEI@?$AAa?$AAp?$AAi?$AA?9?$AAm?$AAs?$AA?9?$AAw?$AAi?$AAn?$AA?9?$AAc?$AAo?$AAr?$AAe@ 004ca880     libucrtd:winapi_thunks.obj
